---
triple:          'arm64-apple-darwin'
binary-path:     city_builder
relocations:
  - { offsetInCU: 0x45, offset: 0x45, size: 0x8, addend: 0x0, symName: __ZN3olcL4GREYE, symObjAddr: 0x1E7548, symBinAddr: 0x100050020, symSize: 0x0 }
  - { offsetInCU: 0x2A9, offset: 0x2A9, size: 0x8, addend: 0x0, symName: __ZN3olcL9DARK_GREYE, symObjAddr: 0x1E754C, symBinAddr: 0x100050024, symSize: 0x0 }
  - { offsetInCU: 0x2C3, offset: 0x2C3, size: 0x8, addend: 0x0, symName: __ZN3olcL14VERY_DARK_GREYE, symObjAddr: 0x1E7550, symBinAddr: 0x100050028, symSize: 0x0 }
  - { offsetInCU: 0x2DD, offset: 0x2DD, size: 0x8, addend: 0x0, symName: __ZN3olcL3REDE, symObjAddr: 0x1E7554, symBinAddr: 0x10005002C, symSize: 0x0 }
  - { offsetInCU: 0x2F7, offset: 0x2F7, size: 0x8, addend: 0x0, symName: __ZN3olcL8DARK_REDE, symObjAddr: 0x1E7558, symBinAddr: 0x100050030, symSize: 0x0 }
  - { offsetInCU: 0x311, offset: 0x311, size: 0x8, addend: 0x0, symName: __ZN3olcL13VERY_DARK_REDE, symObjAddr: 0x1E755C, symBinAddr: 0x100050034, symSize: 0x0 }
  - { offsetInCU: 0x32B, offset: 0x32B, size: 0x8, addend: 0x0, symName: __ZN3olcL6YELLOWE, symObjAddr: 0x1E7560, symBinAddr: 0x100050038, symSize: 0x0 }
  - { offsetInCU: 0x345, offset: 0x345, size: 0x8, addend: 0x0, symName: __ZN3olcL11DARK_YELLOWE, symObjAddr: 0x1E7564, symBinAddr: 0x10005003C, symSize: 0x0 }
  - { offsetInCU: 0x35F, offset: 0x35F, size: 0x8, addend: 0x0, symName: __ZN3olcL16VERY_DARK_YELLOWE, symObjAddr: 0x1E7568, symBinAddr: 0x100050040, symSize: 0x0 }
  - { offsetInCU: 0x379, offset: 0x379, size: 0x8, addend: 0x0, symName: __ZN3olcL5GREENE, symObjAddr: 0x1E756C, symBinAddr: 0x100050044, symSize: 0x0 }
  - { offsetInCU: 0x393, offset: 0x393, size: 0x8, addend: 0x0, symName: __ZN3olcL10DARK_GREENE, symObjAddr: 0x1E7570, symBinAddr: 0x100050048, symSize: 0x0 }
  - { offsetInCU: 0x3AD, offset: 0x3AD, size: 0x8, addend: 0x0, symName: __ZN3olcL15VERY_DARK_GREENE, symObjAddr: 0x1E7574, symBinAddr: 0x10005004C, symSize: 0x0 }
  - { offsetInCU: 0x3C7, offset: 0x3C7, size: 0x8, addend: 0x0, symName: __ZN3olcL4CYANE, symObjAddr: 0x1E7578, symBinAddr: 0x100050050, symSize: 0x0 }
  - { offsetInCU: 0x3E1, offset: 0x3E1, size: 0x8, addend: 0x0, symName: __ZN3olcL9DARK_CYANE, symObjAddr: 0x1E757C, symBinAddr: 0x100050054, symSize: 0x0 }
  - { offsetInCU: 0x3FB, offset: 0x3FB, size: 0x8, addend: 0x0, symName: __ZN3olcL14VERY_DARK_CYANE, symObjAddr: 0x1E7580, symBinAddr: 0x100050058, symSize: 0x0 }
  - { offsetInCU: 0x415, offset: 0x415, size: 0x8, addend: 0x0, symName: __ZN3olcL4BLUEE, symObjAddr: 0x1E7584, symBinAddr: 0x10005005C, symSize: 0x0 }
  - { offsetInCU: 0x42F, offset: 0x42F, size: 0x8, addend: 0x0, symName: __ZN3olcL9DARK_BLUEE, symObjAddr: 0x1E7588, symBinAddr: 0x100050060, symSize: 0x0 }
  - { offsetInCU: 0x449, offset: 0x449, size: 0x8, addend: 0x0, symName: __ZN3olcL14VERY_DARK_BLUEE, symObjAddr: 0x1E758C, symBinAddr: 0x100050064, symSize: 0x0 }
  - { offsetInCU: 0x463, offset: 0x463, size: 0x8, addend: 0x0, symName: __ZN3olcL7MAGENTAE, symObjAddr: 0x1E7590, symBinAddr: 0x100050068, symSize: 0x0 }
  - { offsetInCU: 0x47D, offset: 0x47D, size: 0x8, addend: 0x0, symName: __ZN3olcL12DARK_MAGENTAE, symObjAddr: 0x1E7594, symBinAddr: 0x10005006C, symSize: 0x0 }
  - { offsetInCU: 0x497, offset: 0x497, size: 0x8, addend: 0x0, symName: __ZN3olcL17VERY_DARK_MAGENTAE, symObjAddr: 0x1E7598, symBinAddr: 0x100050070, symSize: 0x0 }
  - { offsetInCU: 0x4B1, offset: 0x4B1, size: 0x8, addend: 0x0, symName: __ZN3olcL5WHITEE, symObjAddr: 0x1E759C, symBinAddr: 0x100050074, symSize: 0x0 }
  - { offsetInCU: 0x4CB, offset: 0x4CB, size: 0x8, addend: 0x0, symName: __ZN3olcL5BLACKE, symObjAddr: 0x1E75A0, symBinAddr: 0x100050078, symSize: 0x0 }
  - { offsetInCU: 0x4E5, offset: 0x4E5, size: 0x8, addend: 0x0, symName: __ZN3olcL5BLANKE, symObjAddr: 0x1E75A4, symBinAddr: 0x10005007C, symSize: 0x0 }
  - { offsetInCU: 0x4FF, offset: 0x4FF, size: 0x8, addend: 0x0, symName: __ZN3olcL8rendererE, symObjAddr: 0x1E75A8, symBinAddr: 0x100050080, symSize: 0x0 }
  - { offsetInCU: 0x32AA, offset: 0x32AA, size: 0x8, addend: 0x0, symName: __ZN3olcL8platformE, symObjAddr: 0x1E75B0, symBinAddr: 0x100050088, symSize: 0x0 }
  - { offsetInCU: 0x344C, offset: 0x344C, size: 0x8, addend: 0x0, symName: __ZN3olcL7mapKeysE, symObjAddr: 0x1E75B8, symBinAddr: 0x100050090, symSize: 0x0 }
  - { offsetInCU: 0x3498, offset: 0x3498, size: 0x8, addend: 0x0, symName: __ZN3olc15PixelGameEngine11bAtomActiveE, symObjAddr: 0x1E75D8, symBinAddr: 0x1000500B0, symSize: 0x0 }
  - { offsetInCU: 0x34AB, offset: 0x34AB, size: 0x8, addend: 0x0, symName: __ZN3olc4PGEX3pgeE, symObjAddr: 0x1E75D0, symBinAddr: 0x1000500A8, symSize: 0x0 }
  - { offsetInCU: 0x34BE, offset: 0x34BE, size: 0x8, addend: 0x0, symName: __ZN3olc8Platform6ptrPGEE, symObjAddr: 0x1E75E0, symBinAddr: 0x1000500B8, symSize: 0x0 }
  - { offsetInCU: 0x34D1, offset: 0x34D1, size: 0x8, addend: 0x0, symName: __ZN3olc8Renderer6ptrPGEE, symObjAddr: 0x1E75E8, symBinAddr: 0x1000500C0, symSize: 0x0 }
  - { offsetInCU: 0x34E4, offset: 0x34E4, size: 0x8, addend: 0x0, symName: __ZN3olc6Sprite6loaderE, symObjAddr: 0x1E75F0, symBinAddr: 0x1000500C8, symSize: 0x0 }
  - { offsetInCU: 0x34F7, offset: 0x34F7, size: 0x8, addend: 0x0, symName: __ZN3olc13Platform_GLUT10bActiveRefE, symObjAddr: 0x1E75F8, symBinAddr: 0x1000500D0, symSize: 0x0 }
  - { offsetInCU: 0x43C7, offset: 0x43C7, size: 0x8, addend: 0x0, symName: __ZN3olc6PixelFEffff, symObjAddr: 0x113C, symBinAddr: 0x100002E2C, symSize: 0x7C }
  - { offsetInCU: 0x4422, offset: 0x4422, size: 0x8, addend: 0x0, symName: __ZN3olc9PixelLerpERKNS_5PixelES2_f, symObjAddr: 0x11B8, symBinAddr: 0x100002EA8, symSize: 0x6C }
  - { offsetInCU: 0x446E, offset: 0x446E, size: 0x8, addend: 0x0, symName: __ZN3olcdvIiEENS_11v2d_genericIT_EERKfRKS3_, symObjAddr: 0x5D34, symBinAddr: 0x100007A24, symSize: 0x70 }
  - { offsetInCU: 0x44B4, offset: 0x44B4, size: 0x8, addend: 0x0, symName: __ZN3olcmlIfEENS_11v2d_genericIT_EERKfRKS3_, symObjAddr: 0xED44, symBinAddr: 0x100010A34, symSize: 0x60 }
  - { offsetInCU: 0x44FA, offset: 0x44FA, size: 0x8, addend: 0x0, symName: __ZN3olc13pngReadStreamEP14png_struct_defPhm, symObjAddr: 0x15540, symBinAddr: 0x100017230, symSize: 0x40 }
  - { offsetInCU: 0x4551, offset: 0x4551, size: 0x8, addend: 0x0, symName: __ZN3olcdvIfEENS_11v2d_genericIT_EERKfRKS3_, symObjAddr: 0x15C0C, symBinAddr: 0x1000178FC, symSize: 0x60 }
  - { offsetInCU: 0xE875, offset: 0xE875, size: 0x8, addend: 0x0, symName: __ZNSt3__14__fs10filesystem6existsB8ue170006ERKNS1_4pathE, symObjAddr: 0x3630, symBinAddr: 0x100005320, symSize: 0x50 }
  - { offsetInCU: 0xE8A1, offset: 0xE8A1, size: 0x8, addend: 0x0, symName: __ZNSt3__14__fs10filesystem9file_sizeB8ue170006ERKNS1_4pathE, symObjAddr: 0x36E8, symBinAddr: 0x1000053D8, symSize: 0x28 }
  - { offsetInCU: 0xE8CD, offset: 0xE8CD, size: 0x8, addend: 0x0, symName: __ZNSt3__14__fs10filesystem6existsB8ue170006ENS1_11file_statusE, symObjAddr: 0x1F334, symBinAddr: 0x100021024, symSize: 0x78 }
  - { offsetInCU: 0xEA06, offset: 0xEA06, size: 0x8, addend: 0x0, symName: __ZNSt3__14__fs10filesystem12status_knownB8ue170006ENS1_11file_statusE, symObjAddr: 0x1F3D8, symBinAddr: 0x1000210C8, symSize: 0x30 }
  - { offsetInCU: 0x1F3C4, offset: 0x1F3C4, size: 0x8, addend: 0x0, symName: '__ZNSt3__110__function10__not_nullB8ue170006IZN3olc15TransformedView10DrawStringERKNS2_11v2d_genericIfEERKNS_12basic_stringIcNS_11char_traitsIcEENS_9allocatorIcEEEENS2_5PixelES7_E4$_10EEbRKT_', symObjAddr: 0x4334C, symBinAddr: 0x10004503C, symSize: 0x18 }
  - { offsetInCU: 0x2075B, offset: 0x2075B, size: 0x8, addend: 0x0, symName: __ZNSt3__16chronomiB8ue170006IxNS_5ratioILl1ELl1000000EEExS3_EENS_11common_typeIJNS0_8durationIT_T0_EENS5_IT1_T2_EEEE4typeERKS8_RKSB_, symObjAddr: 0x32B34, symBinAddr: 0x100034824, symSize: 0x70 }
  - { offsetInCU: 0x20A36, offset: 0x20A36, size: 0x8, addend: 0x0, symName: __ZNSt3__16chronomiB8ue170006INS0_12system_clockENS0_8durationIxNS_5ratioILl1ELl1000000EEEEES6_EENS_11common_typeIJT0_T1_EE4typeERKNS0_10time_pointIT_S8_EERKNSC_ISD_S9_EE, symObjAddr: 0x14BBC, symBinAddr: 0x1000168AC, symSize: 0x58 }
  - { offsetInCU: 0x20ACE, offset: 0x20ACE, size: 0x8, addend: 0x0, symName: __ZNSt3__16chrono13duration_castB8ue170006INS0_8durationIfNS_5ratioILl1ELl1EEEEExNS3_ILl1ELl1000000EEEEENS_9enable_ifIXsr13__is_durationIT_EE5valueES8_E4typeERKNS2_IT0_T1_EE, symObjAddr: 0x32C24, symBinAddr: 0x100034914, symSize: 0x30 }
  - { offsetInCU: 0x2BFCB, offset: 0x2BFCB, size: 0x8, addend: 0x0, symName: __ZNSt3__119piecewise_constructE, symObjAddr: 0x47989, symBinAddr: 0x100049BB5, symSize: 0x0 }
  - { offsetInCU: 0x2D806, offset: 0x2D806, size: 0x8, addend: 0x0, symName: __ZNSt3__17advanceB8ue170006IPN3olc9LayerDescEllvEEvRT_T0_, symObjAddr: 0x25874, symBinAddr: 0x100027564, symSize: 0x38 }
  - { offsetInCU: 0x2DA88, offset: 0x2DA88, size: 0x8, addend: 0x0, symName: __ZNSt3__17advanceB8ue170006INS_16reverse_iteratorIPN3olc9LayerDescEEEllvEEvRT_T0_, symObjAddr: 0x25C48, symBinAddr: 0x100027938, symSize: 0x38 }
  - { offsetInCU: 0x2DD04, offset: 0x2DD04, size: 0x8, addend: 0x0, symName: __ZNSt3__17advanceB8ue170006IPN3olc11v2d_genericIfEEllvEEvRT_T0_, symObjAddr: 0x27720, symBinAddr: 0x100029410, symSize: 0x38 }
  - { offsetInCU: 0x2DE3E, offset: 0x2DE3E, size: 0x8, addend: 0x0, symName: __ZNSt3__17advanceB8ue170006IPKN3olc5PixelEllvEEvRT_T0_, symObjAddr: 0x29964, symBinAddr: 0x10002B654, symSize: 0x38 }
  - { offsetInCU: 0x2DEAB, offset: 0x2DEAB, size: 0x8, addend: 0x0, symName: __ZNSt3__17advanceB8ue170006IPKN3olc11v2d_genericIfEEllvEEvRT_T0_, symObjAddr: 0x29E24, symBinAddr: 0x10002BB14, symSize: 0x38 }
  - { offsetInCU: 0x2DF38, offset: 0x2DF38, size: 0x8, addend: 0x0, symName: __ZNSt3__17advanceB8ue170006IPKfllvEEvRT_T0_, symObjAddr: 0x2A924, symBinAddr: 0x10002C614, symSize: 0x38 }
  - { offsetInCU: 0x2E3C4, offset: 0x2E3C4, size: 0x8, addend: 0x0, symName: __ZNSt3__17advanceB8ue170006IPN3olc13DecalInstanceEllvEEvRT_T0_, symObjAddr: 0x2D67C, symBinAddr: 0x10002F36C, symSize: 0x38 }
  - { offsetInCU: 0x2E646, offset: 0x2E646, size: 0x8, addend: 0x0, symName: __ZNSt3__17advanceB8ue170006INS_16reverse_iteratorIPN3olc13DecalInstanceEEEllvEEvRT_T0_, symObjAddr: 0x2DA3C, symBinAddr: 0x10002F72C, symSize: 0x38 }
  - { offsetInCU: 0x2EA0A, offset: 0x2EA0A, size: 0x8, addend: 0x0, symName: __ZNSt3__17advanceB8ue170006INS_16reverse_iteratorIPN3olc11v2d_genericIfEEEEllvEEvRT_T0_, symObjAddr: 0x2EB30, symBinAddr: 0x100030820, symSize: 0x38 }
  - { offsetInCU: 0x2EFF1, offset: 0x2EFF1, size: 0x8, addend: 0x0, symName: __ZNSt3__17advanceB8ue170006IPNS_12basic_stringIcNS_11char_traitsIcEENS_9allocatorIcEEEEllvEEvRT_T0_, symObjAddr: 0x314BC, symBinAddr: 0x1000331AC, symSize: 0x38 }
  - { offsetInCU: 0x2F273, offset: 0x2F273, size: 0x8, addend: 0x0, symName: __ZNSt3__17advanceB8ue170006INS_16reverse_iteratorIPNS_12basic_stringIcNS_11char_traitsIcEENS_9allocatorIcEEEEEEllvEEvRT_T0_, symObjAddr: 0x3187C, symBinAddr: 0x10003356C, symSize: 0x38 }
  - { offsetInCU: 0x2F4DA, offset: 0x2F4DA, size: 0x8, addend: 0x0, symName: __ZNSt3__17advanceB8ue170006INS_11__wrap_iterIPN3olc9LayerDescEEEllvEEvRT_T0_, symObjAddr: 0x32DF4, symBinAddr: 0x100034AE4, symSize: 0x38 }
  - { offsetInCU: 0x2FB77, offset: 0x2FB77, size: 0x8, addend: 0x0, symName: __ZNSt3__17advanceB8ue170006IPN3olc11v2d_genericIiEEllvEEvRT_T0_, symObjAddr: 0x33F00, symBinAddr: 0x100035BF0, symSize: 0x38 }
  - { offsetInCU: 0x2FDF9, offset: 0x2FDF9, size: 0x8, addend: 0x0, symName: __ZNSt3__17advanceB8ue170006INS_16reverse_iteratorIPN3olc11v2d_genericIiEEEEllvEEvRT_T0_, symObjAddr: 0x342B8, symBinAddr: 0x100035FA8, symSize: 0x38 }
  - { offsetInCU: 0x2FE66, offset: 0x2FE66, size: 0x8, addend: 0x0, symName: __ZNSt3__17advanceB8ue170006IPKNS_5tupleIJN3olc3KeyENS_12basic_stringIcNS_11char_traitsIcEENS_9allocatorIcEEEES9_EEEllvEEvRT_T0_, symObjAddr: 0x34DE8, symBinAddr: 0x100036AD8, symSize: 0x38 }
  - { offsetInCU: 0x30225, offset: 0x30225, size: 0x8, addend: 0x0, symName: __ZNSt3__17advanceB8ue170006IPNS_5tupleIJN3olc3KeyENS_12basic_stringIcNS_11char_traitsIcEENS_9allocatorIcEEEES9_EEEllvEEvRT_T0_, symObjAddr: 0x35840, symBinAddr: 0x100037530, symSize: 0x38 }
  - { offsetInCU: 0x308D2, offset: 0x308D2, size: 0x8, addend: 0x0, symName: __ZNSt3__124__put_character_sequenceB8ue170006IcNS_11char_traitsIcEEEERNS_13basic_ostreamIT_T0_EES7_PKS4_m, symObjAddr: 0x3D1C0, symBinAddr: 0x10003EEB0, symSize: 0x1EC }
  - { offsetInCU: 0x30A6C, offset: 0x30A6C, size: 0x8, addend: 0x0, symName: __ZNSt3__117__cxx_atomic_loadB8ue170006IbEET_PKNS_22__cxx_atomic_base_implIS1_EENS_12memory_orderE, symObjAddr: 0x3DFF8, symBinAddr: 0x10003FCE8, symSize: 0x84 }
  - { offsetInCU: 0x3390B, offset: 0x3390B, size: 0x8, addend: 0x0, symName: __ZNSt3__13minB8ue170006IfEERKT_S3_S3_, symObjAddr: 0x3B8, symBinAddr: 0x1000020A8, symSize: 0x2C }
  - { offsetInCU: 0x3394E, offset: 0x3394E, size: 0x8, addend: 0x0, symName: __ZNSt3__13maxB8ue170006IfEERKT_S3_S3_, symObjAddr: 0x3E4, symBinAddr: 0x1000020D4, symSize: 0x2C }
  - { offsetInCU: 0x33991, offset: 0x33991, size: 0x8, addend: 0x0, symName: __ZNSt3__13minB8ue170006IiEERKT_S3_S3_, symObjAddr: 0x8FC, symBinAddr: 0x1000025EC, symSize: 0x2C }
  - { offsetInCU: 0x339D4, offset: 0x339D4, size: 0x8, addend: 0x0, symName: __ZNSt3__13maxB8ue170006IiEERKT_S3_S3_, symObjAddr: 0x928, symBinAddr: 0x100002618, symSize: 0x2C }
  - { offsetInCU: 0x33A17, offset: 0x33A17, size: 0x8, addend: 0x0, symName: __ZNSt3__111make_uniqueB8ue170006IN3olc6SpriteEJRjS3_EEENS_11__unique_ifIT_E15__unique_singleEDpOT0_, symObjAddr: 0x282C, symBinAddr: 0x10000451C, symSize: 0x7C }
  - { offsetInCU: 0x33A6D, offset: 0x33A6D, size: 0x8, addend: 0x0, symName: __ZNSt3__111make_uniqueB8ue170006IN3olc5DecalEJPNS1_6SpriteERbS5_EEENS_11__unique_ifIT_E15__unique_singleEDpOT0_, symObjAddr: 0x2924, symBinAddr: 0x100004614, symSize: 0x90 }
  - { offsetInCU: 0x33AD7, offset: 0x33AD7, size: 0x8, addend: 0x0, symName: __ZNSt3__111make_uniqueB8ue170006IN3olc6SpriteEJEEENS_11__unique_ifIT_E15__unique_singleEDpOT0_, symObjAddr: 0x2B4C, symBinAddr: 0x10000483C, symSize: 0x3C }
  - { offsetInCU: 0x33CA5, offset: 0x33CA5, size: 0x8, addend: 0x0, symName: __ZNSt3__1neB8ue170006ERKNS_14__map_iteratorINS_15__tree_iteratorINS_12__value_typeINS_12basic_stringIcNS_11char_traitsIcEENS_9allocatorIcEEEEN3olc12ResourcePack13sResourceFileEEEPNS_11__tree_nodeISC_PvEElEEEESK_, symObjAddr: 0x4594, symBinAddr: 0x100006284, symSize: 0x30 }
  - { offsetInCU: 0x33CED, offset: 0x33CED, size: 0x8, addend: 0x0, symName: __ZNSt3__1neB8ue170006IPKcEEbRKNS_11__wrap_iterIT_EES7_, symObjAddr: 0x4CF8, symBinAddr: 0x1000069E8, symSize: 0x34 }
  - { offsetInCU: 0x33D30, offset: 0x33D30, size: 0x8, addend: 0x0, symName: __ZNSt3__1neB8ue170006IPN3olc9LayerDescEEEbRKNS_11__wrap_iterIT_EES8_, symObjAddr: 0x5FFC, symBinAddr: 0x100007CEC, symSize: 0x34 }
  - { offsetInCU: 0x33D74, offset: 0x33D74, size: 0x8, addend: 0x0, symName: __ZNSt3__14swapB8ue170006IiEENS_9enable_ifIXaasr21is_move_constructibleIT_EE5valuesr18is_move_assignableIS2_EE5valueEvE4typeERS2_S5_, symObjAddr: 0x7420, symBinAddr: 0x100009110, symSize: 0x3C }
  - { offsetInCU: 0x33DC7, offset: 0x33DC7, size: 0x8, addend: 0x0, symName: __ZNSt3__14swapB8ue170006IfEENS_9enable_ifIXaasr21is_move_constructibleIT_EE5valuesr18is_move_assignableIS2_EE5valueEvE4typeERS2_S5_, symObjAddr: 0xA1B8, symBinAddr: 0x10000BEA8, symSize: 0x3C }
  - { offsetInCU: 0x33E1A, offset: 0x33E1A, size: 0x8, addend: 0x0, symName: __ZNSt3__14swapB8ue170006IN3olc5PixelEEENS_9enable_ifIXaasr21is_move_constructibleIT_EE5valuesr18is_move_assignableIS4_EE5valueEvE4typeERS4_S7_, symObjAddr: 0xA218, symBinAddr: 0x10000BF08, symSize: 0x3C }
  - { offsetInCU: 0x33E6C, offset: 0x33E6C, size: 0x8, addend: 0x0, symName: __ZNSt3__14swapB8ue170006IN3olc11v2d_genericIfEEEENS_9enable_ifIXaasr21is_move_constructibleIT_EE5valuesr18is_move_assignableIS5_EE5valueEvE4typeERS5_S8_, symObjAddr: 0xA394, symBinAddr: 0x10000C084, symSize: 0x48 }
  - { offsetInCU: 0x33EBF, offset: 0x33EBF, size: 0x8, addend: 0x0, symName: '__ZNSt3__19transformB8ue170006INS_11__wrap_iterIPKN3olc5PixelEEENS1_IPS3_EEZNS2_15PixelGameEngine16DrawPolygonDecalEPNS2_5DecalERKNS_6vectorINS2_11v2d_genericIfEENS_9allocatorISE_EEEESJ_RKNSC_IS3_NSF_IS3_EEEES3_E3$_0EET0_T_SQ_SP_T1_', symObjAddr: 0xD0D4, symBinAddr: 0x10000EDC4, symSize: 0x98 }
  - { offsetInCU: 0x341FD, offset: 0x341FD, size: 0x8, addend: 0x0, symName: __ZNSt3__1plB8ue170006IcNS_11char_traitsIcEENS_9allocatorIcEEEENS_12basic_stringIT_T0_T1_EEOS9_SA_, symObjAddr: 0x118EC, symBinAddr: 0x1000135DC, symSize: 0x40 }
  - { offsetInCU: 0x34255, offset: 0x34255, size: 0x8, addend: 0x0, symName: __ZNSt3__1neB8ue170006IPNS_5tupleIJN3olc3KeyENS_12basic_stringIcNS_11char_traitsIcEENS_9allocatorIcEEEES9_EEEEEbRKNS_11__wrap_iterIT_EESG_, symObjAddr: 0x120F8, symBinAddr: 0x100013DE8, symSize: 0x34 }
  - { offsetInCU: 0x34298, offset: 0x34298, size: 0x8, addend: 0x0, symName: __ZNSt3__13getB8ue170006ILm0EJN3olc3KeyENS_12basic_stringIcNS_11char_traitsIcEENS_9allocatorIcEEEES8_EEERKNS_13tuple_elementIXT_ENS_5tupleIJDpT0_EEEE4typeERKSD_, symObjAddr: 0x12144, symBinAddr: 0x100013E34, symSize: 0x24 }
  - { offsetInCU: 0x342E5, offset: 0x342E5, size: 0x8, addend: 0x0, symName: __ZNSt3__13getB8ue170006ILm2EJN3olc3KeyENS_12basic_stringIcNS_11char_traitsIcEENS_9allocatorIcEEEES8_EEERKNS_13tuple_elementIXT_ENS_5tupleIJDpT0_EEEE4typeERKSD_, symObjAddr: 0x121C4, symBinAddr: 0x100013EB4, symSize: 0x28 }
  - { offsetInCU: 0x34332, offset: 0x34332, size: 0x8, addend: 0x0, symName: __ZNSt3__13getB8ue170006ILm1EJN3olc3KeyENS_12basic_stringIcNS_11char_traitsIcEENS_9allocatorIcEEEES8_EEERKNS_13tuple_elementIXT_ENS_5tupleIJDpT0_EEEE4typeERKSD_, symObjAddr: 0x121EC, symBinAddr: 0x100013EDC, symSize: 0x28 }
  - { offsetInCU: 0x3437F, offset: 0x3437F, size: 0x8, addend: 0x0, symName: __ZNSt3__1neB8ue170006ERKNS_15__list_iteratorINS_12basic_stringIcNS_11char_traitsIcEENS_9allocatorIcEEEEPvEESA_, symObjAddr: 0x1225C, symBinAddr: 0x100013F4C, symSize: 0x34 }
  - { offsetInCU: 0x343BC, offset: 0x343BC, size: 0x8, addend: 0x0, symName: __ZNSt3__1lsB8ue170006IcNS_11char_traitsIcEENS_9allocatorIcEEEERNS_13basic_ostreamIT_T0_EES9_RKNS_12basic_stringIS6_S7_T1_EE, symObjAddr: 0x123AC, symBinAddr: 0x10001409C, symSize: 0x4C }
  - { offsetInCU: 0x34414, offset: 0x34414, size: 0x8, addend: 0x0, symName: __ZNSt3__1plB8ue170006IcNS_11char_traitsIcEENS_9allocatorIcEEEENS_12basic_stringIT_T0_T1_EEOS9_PKS6_, symObjAddr: 0x123F8, symBinAddr: 0x1000140E8, symSize: 0x40 }
  - { offsetInCU: 0x3446C, offset: 0x3446C, size: 0x8, addend: 0x0, symName: __ZNSt3__1neB8ue170006IPPN3olc4PGEXEEEbRKNS_11__wrap_iterIT_EES9_, symObjAddr: 0x130BC, symBinAddr: 0x100014DAC, symSize: 0x34 }
  - { offsetInCU: 0x344CD, offset: 0x344CD, size: 0x8, addend: 0x0, symName: __ZNSt3__1neB8ue170006INS_11__wrap_iterIPN3olc9LayerDescEEES5_EEbRKNS_16reverse_iteratorIT_EERKNS6_IT0_EE, symObjAddr: 0x14E24, symBinAddr: 0x100016B14, symSize: 0x54 }
  - { offsetInCU: 0x34519, offset: 0x34519, size: 0x8, addend: 0x0, symName: __ZNSt3__1eqB8ue170006IvJEEEbRKNS_8functionIFT_DpT0_EEEDn, symObjAddr: 0x14F00, symBinAddr: 0x100016BF0, symSize: 0x30 }
  - { offsetInCU: 0x3455E, offset: 0x3455E, size: 0x8, addend: 0x0, symName: __ZNSt3__1neB8ue170006IPN3olc13DecalInstanceEEEbRKNS_11__wrap_iterIT_EES8_, symObjAddr: 0x14F90, symBinAddr: 0x100016C80, symSize: 0x34 }
  - { offsetInCU: 0x345A1, offset: 0x345A1, size: 0x8, addend: 0x0, symName: __ZNSt3__1eqB8ue170006IPPN3olc4PGEXEEEbRKNS_11__wrap_iterIT_EES9_, symObjAddr: 0x152EC, symBinAddr: 0x100016FDC, symSize: 0x48 }
  - { offsetInCU: 0x345E4, offset: 0x345E4, size: 0x8, addend: 0x0, symName: __ZNSt3__14findB8ue170006INS_11__wrap_iterIPPN3olc4PGEXEEES4_EET_S7_S7_RKT0_, symObjAddr: 0x15334, symBinAddr: 0x100017024, symSize: 0x78 }
  - { offsetInCU: 0x3464D, offset: 0x3464D, size: 0x8, addend: 0x0, symName: __ZNSt3__111make_uniqueB8ue170006IN3olc18ImageLoader_LibPNGEJEEENS_11__unique_ifIT_E15__unique_singleEDpOT0_, symObjAddr: 0x158A8, symBinAddr: 0x100017598, symSize: 0x64 }
  - { offsetInCU: 0x3467A, offset: 0x3467A, size: 0x8, addend: 0x0, symName: __ZNSt3__111make_uniqueB8ue170006IN3olc13Platform_GLUTEJEEENS_11__unique_ifIT_E15__unique_singleEDpOT0_, symObjAddr: 0x15998, symBinAddr: 0x100017688, symSize: 0x40 }
  - { offsetInCU: 0x346A7, offset: 0x346A7, size: 0x8, addend: 0x0, symName: __ZNSt3__111make_uniqueB8ue170006IN3olc14Renderer_OGL10EJEEENS_11__unique_ifIT_E15__unique_singleEDpOT0_, symObjAddr: 0x15A64, symBinAddr: 0x100017754, symSize: 0x48 }
  - { offsetInCU: 0x34C96, offset: 0x34C96, size: 0x8, addend: 0x0, symName: __ZNSt3__111make_uniqueB8ue170006IN3olc6SpriteEJRA35_KcEEENS_11__unique_ifIT_E15__unique_singleEDpOT0_, symObjAddr: 0x194A4, symBinAddr: 0x10001B194, symSize: 0xD4 }
  - { offsetInCU: 0x34CD8, offset: 0x34CD8, size: 0x8, addend: 0x0, symName: __ZNSt3__111make_uniqueB8ue170006IN3olc6SpriteEJRA27_KcEEENS_11__unique_ifIT_E15__unique_singleEDpOT0_, symObjAddr: 0x19578, symBinAddr: 0x10001B268, symSize: 0xD4 }
  - { offsetInCU: 0x34D1A, offset: 0x34D1A, size: 0x8, addend: 0x0, symName: __ZNSt3__111make_uniqueB8ue170006IN3olc6SpriteEJRA22_KcEEENS_11__unique_ifIT_E15__unique_singleEDpOT0_, symObjAddr: 0x1964C, symBinAddr: 0x10001B33C, symSize: 0xD4 }
  - { offsetInCU: 0x34D5C, offset: 0x34D5C, size: 0x8, addend: 0x0, symName: __ZNSt3__111make_uniqueB8ue170006IN3olc6SpriteEJRA38_KcEEENS_11__unique_ifIT_E15__unique_singleEDpOT0_, symObjAddr: 0x19720, symBinAddr: 0x10001B410, symSize: 0xD4 }
  - { offsetInCU: 0x34F2D, offset: 0x34F2D, size: 0x8, addend: 0x0, symName: __ZNSt3__1plB8ue170006IcNS_11char_traitsIcEENS_9allocatorIcEEEENS_12basic_stringIT_T0_T1_EEPKS6_OS9_, symObjAddr: 0x1ADE8, symBinAddr: 0x10001CAD8, symSize: 0x44 }
  - { offsetInCU: 0x34F85, offset: 0x34F85, size: 0x8, addend: 0x0, symName: __ZNSt3__13minB8ue170006IfNS_6__lessIvvEEEERKT_S5_S5_T0_, symObjAddr: 0x1B07C, symBinAddr: 0x10001CD6C, symSize: 0x54 }
  - { offsetInCU: 0x350B9, offset: 0x350B9, size: 0x8, addend: 0x0, symName: __ZNSt3__13maxB8ue170006IfNS_6__lessIvvEEEERKT_S5_S5_T0_, symObjAddr: 0x1B104, symBinAddr: 0x10001CDF4, symSize: 0x54 }
  - { offsetInCU: 0x35113, offset: 0x35113, size: 0x8, addend: 0x0, symName: __ZNSt3__13minB8ue170006IiNS_6__lessIvvEEEERKT_S5_S5_T0_, symObjAddr: 0x1B158, symBinAddr: 0x10001CE48, symSize: 0x54 }
  - { offsetInCU: 0x3516D, offset: 0x3516D, size: 0x8, addend: 0x0, symName: __ZNSt3__13maxB8ue170006IiNS_6__lessIvvEEEERKT_S5_S5_T0_, symObjAddr: 0x1B1E0, symBinAddr: 0x10001CED0, symSize: 0x54 }
  - { offsetInCU: 0x351C8, offset: 0x351C8, size: 0x8, addend: 0x0, symName: __ZNSt3__112__to_addressB8ue170006IN3olc5PixelEEEPT_S4_, symObjAddr: 0x1B6DC, symBinAddr: 0x10001D3CC, symSize: 0x14 }
  - { offsetInCU: 0x351FE, offset: 0x351FE, size: 0x8, addend: 0x0, symName: __ZNSt3__110destroy_atB8ue170006IN3olc5PixelELi0EEEvPT_, symObjAddr: 0x1B6F0, symBinAddr: 0x10001D3E0, symSize: 0x24 }
  - { offsetInCU: 0x35236, offset: 0x35236, size: 0x8, addend: 0x0, symName: __ZNSt3__112__destroy_atB8ue170006IN3olc5PixelELi0EEEvPT_, symObjAddr: 0x1B714, symBinAddr: 0x10001D404, symSize: 0x10 }
  - { offsetInCU: 0x3526D, offset: 0x3526D, size: 0x8, addend: 0x0, symName: __ZNSt3__119__libcpp_deallocateB8ue170006EPvmm, symObjAddr: 0x1B7AC, symBinAddr: 0x10001D49C, symSize: 0x60 }
  - { offsetInCU: 0x352D4, offset: 0x352D4, size: 0x8, addend: 0x0, symName: __ZNSt3__124__is_overaligned_for_newB8ue170006Em, symObjAddr: 0x1B80C, symBinAddr: 0x10001D4FC, symSize: 0x20 }
  - { offsetInCU: 0x35302, offset: 0x35302, size: 0x8, addend: 0x0, symName: __ZNSt3__127__do_deallocate_handle_sizeB8ue170006IJSt11align_val_tEEEvPvmDpT_, symObjAddr: 0x1B82C, symBinAddr: 0x10001D51C, symSize: 0x30 }
  - { offsetInCU: 0x35355, offset: 0x35355, size: 0x8, addend: 0x0, symName: __ZNSt3__127__do_deallocate_handle_sizeB8ue170006IJEEEvPvmDpT_, symObjAddr: 0x1B85C, symBinAddr: 0x10001D54C, symSize: 0x28 }
  - { offsetInCU: 0x35393, offset: 0x35393, size: 0x8, addend: 0x0, symName: __ZNSt3__124__libcpp_operator_deleteB8ue170006IJPvSt11align_val_tEEEvDpT_, symObjAddr: 0x1B884, symBinAddr: 0x10001D574, symSize: 0x2C }
  - { offsetInCU: 0x353DC, offset: 0x353DC, size: 0x8, addend: 0x0, symName: __ZNSt3__124__libcpp_operator_deleteB8ue170006IJPvEEEvDpT_, symObjAddr: 0x1B8B0, symBinAddr: 0x10001D5A0, symSize: 0x24 }
  - { offsetInCU: 0x35438, offset: 0x35438, size: 0x8, addend: 0x0, symName: __ZNSt3__112construct_atB8ue170006IN3olc5PixelEJEPS2_EEPT_S5_DpOT0_, symObjAddr: 0x1BFA4, symBinAddr: 0x10001DC94, symSize: 0x34 }
  - { offsetInCU: 0x35496, offset: 0x35496, size: 0x8, addend: 0x0, symName: __ZNSt3__13maxB8ue170006ImEERKT_S3_S3_, symObjAddr: 0x1C074, symBinAddr: 0x10001DD64, symSize: 0x2C }
  - { offsetInCU: 0x354D9, offset: 0x354D9, size: 0x8, addend: 0x0, symName: __ZNSt3__13minB8ue170006ImEERKT_S3_S3_, symObjAddr: 0x1C0A0, symBinAddr: 0x10001DD90, symSize: 0x2C }
  - { offsetInCU: 0x35706, offset: 0x35706, size: 0x8, addend: 0x0, symName: __ZNSt3__13minB8ue170006ImNS_6__lessIvvEEEERKT_S5_S5_T0_, symObjAddr: 0x1C130, symBinAddr: 0x10001DE20, symSize: 0x54 }
  - { offsetInCU: 0x3594D, offset: 0x3594D, size: 0x8, addend: 0x0, symName: __ZNSt3__120__throw_length_errorB8ue170006EPKc, symObjAddr: 0x1C214, symBinAddr: 0x10001DF04, symSize: 0x64 }
  - { offsetInCU: 0x35977, offset: 0x35977, size: 0x8, addend: 0x0, symName: __ZNSt3__13maxB8ue170006ImNS_6__lessIvvEEEERKT_S5_S5_T0_, symObjAddr: 0x1C2F8, symBinAddr: 0x10001DFE8, symSize: 0x54 }
  - { offsetInCU: 0x359D1, offset: 0x359D1, size: 0x8, addend: 0x0, symName: __ZNSt3__119__allocate_at_leastB8ue170006INS_9allocatorIN3olc5PixelEEEEENS_19__allocation_resultINS_16allocator_traitsIT_E7pointerEEERS7_m, symObjAddr: 0x1C45C, symBinAddr: 0x10001E14C, symSize: 0x40 }
  - { offsetInCU: 0x35A14, offset: 0x35A14, size: 0x8, addend: 0x0, symName: __ZNSt3__117__libcpp_allocateB8ue170006Emm, symObjAddr: 0x1C5E0, symBinAddr: 0x10001E2D0, symSize: 0x60 }
  - { offsetInCU: 0x35A6F, offset: 0x35A6F, size: 0x8, addend: 0x0, symName: __ZNSt3__121__libcpp_operator_newB8ue170006IJmSt11align_val_tEEEPvDpT_, symObjAddr: 0x1C640, symBinAddr: 0x10001E330, symSize: 0x2C }
  - { offsetInCU: 0x35ABC, offset: 0x35ABC, size: 0x8, addend: 0x0, symName: __ZNSt3__121__libcpp_operator_newB8ue170006IJmEEEPvDpT_, symObjAddr: 0x1C66C, symBinAddr: 0x10001E35C, symSize: 0x24 }
  - { offsetInCU: 0x35AF5, offset: 0x35AF5, size: 0x8, addend: 0x0, symName: __ZNSt3__142__uninitialized_allocator_move_if_noexceptB8ue170006INS_9allocatorIN3olc5PixelEEENS_16reverse_iteratorIPS3_EES7_S3_vEET1_RT_T0_SB_S8_, symObjAddr: 0x1C7C0, symBinAddr: 0x10001E4B0, symSize: 0x78 }
  - { offsetInCU: 0x35B74, offset: 0x35B74, size: 0x8, addend: 0x0, symName: __ZNSt3__14swapB8ue170006IPN3olc5PixelEEENS_9enable_ifIXaasr21is_move_constructibleIT_EE5valuesr18is_move_assignableIS5_EE5valueEvE4typeERS5_S8_, symObjAddr: 0x1C884, symBinAddr: 0x10001E574, symSize: 0x3C }
  - { offsetInCU: 0x35BC6, offset: 0x35BC6, size: 0x8, addend: 0x0, symName: __ZNSt3__14moveB8ue170006INS_16reverse_iteratorIPN3olc5PixelEEES5_EET0_T_S7_S6_, symObjAddr: 0x1C96C, symBinAddr: 0x10001E65C, symSize: 0x78 }
  - { offsetInCU: 0x35C20, offset: 0x35C20, size: 0x8, addend: 0x0, symName: __ZNSt3__16__moveB8ue170006INS_17_ClassicAlgPolicyENS_16reverse_iteratorIPN3olc5PixelEEES6_S6_EENS_4pairIT0_T2_EES8_T1_S9_, symObjAddr: 0x1C9E4, symBinAddr: 0x10001E6D4, symSize: 0x64 }
  - { offsetInCU: 0x35C8C, offset: 0x35C8C, size: 0x8, addend: 0x0, symName: __ZNSt3__123__dispatch_copy_or_moveB8ue170006INS_17_ClassicAlgPolicyENS_11__move_loopIS1_EENS_14__move_trivialENS_16reverse_iteratorIPN3olc5PixelEEES9_S9_EENS_4pairIT2_T4_EESB_T3_SC_, symObjAddr: 0x1CA48, symBinAddr: 0x10001E738, symSize: 0x64 }
  - { offsetInCU: 0x35D0A, offset: 0x35D0A, size: 0x8, addend: 0x0, symName: __ZNSt3__121__unwrap_and_dispatchB8ue170006INS_10__overloadINS_11__move_loopINS_17_ClassicAlgPolicyEEENS_14__move_trivialEEENS_16reverse_iteratorIPN3olc5PixelEEESB_SB_Li0EEENS_4pairIT0_T2_EESD_T1_SE_, symObjAddr: 0x1CAAC, symBinAddr: 0x10001E79C, symSize: 0x12C }
  - { offsetInCU: 0x35D9C, offset: 0x35D9C, size: 0x8, addend: 0x0, symName: __ZNSt3__114__unwrap_rangeB8ue170006INS_16reverse_iteratorIPN3olc5PixelEEES5_EEDaT_T0_, symObjAddr: 0x1CBD8, symBinAddr: 0x10001E8C8, symSize: 0x4C }
  - { offsetInCU: 0x35FD4, offset: 0x35FD4, size: 0x8, addend: 0x0, symName: __ZNSt3__113__unwrap_iterB8ue170006INS_16reverse_iteratorIPN3olc5PixelEEENS_18__unwrap_iter_implIS5_Lb0EEELi0EEEDTclsrT0_8__unwrapclsr3stdE7declvalIT_EEEES9_, symObjAddr: 0x1CCC4, symBinAddr: 0x10001E9B4, symSize: 0x44 }
  - { offsetInCU: 0x36018, offset: 0x36018, size: 0x8, addend: 0x0, symName: __ZNSt3__19make_pairB8ue170006INS_16reverse_iteratorIPN3olc5PixelEEES5_EENS_4pairINS_18__unwrap_ref_decayIT_E4typeENS7_IT0_E4typeEEEOS8_OSB_, symObjAddr: 0x1CD08, symBinAddr: 0x10001E9F8, symSize: 0x38 }
  - { offsetInCU: 0x36067, offset: 0x36067, size: 0x8, addend: 0x0, symName: __ZNSt3__114__rewrap_rangeB8ue170006INS_16reverse_iteratorIPN3olc5PixelEEES5_S5_EET0_S6_T1_, symObjAddr: 0x1CD40, symBinAddr: 0x10001EA30, symSize: 0x5C }
  - { offsetInCU: 0x360BC, offset: 0x360BC, size: 0x8, addend: 0x0, symName: __ZNSt3__113__rewrap_iterB8ue170006INS_16reverse_iteratorIPN3olc5PixelEEES5_NS_18__unwrap_iter_implIS5_Lb0EEEEET_S8_T0_, symObjAddr: 0x1CD9C, symBinAddr: 0x10001EA8C, symSize: 0x74 }
  - { offsetInCU: 0x36161, offset: 0x36161, size: 0x8, addend: 0x0, symName: __ZNSt3__1neB8ue170006IPN3olc5PixelES3_EEbRKNS_16reverse_iteratorIT_EERKNS4_IT0_EE, symObjAddr: 0x1CF04, symBinAddr: 0x10001EBF4, symSize: 0x48 }
  - { offsetInCU: 0x362F9, offset: 0x362F9, size: 0x8, addend: 0x0, symName: __ZNSt3__112construct_atB8ue170006IN3olc5PixelEJRKS2_EPS2_EEPT_S7_DpOT0_, symObjAddr: 0x1D604, symBinAddr: 0x10001F2F4, symSize: 0x2C }
  - { offsetInCU: 0x3636C, offset: 0x3636C, size: 0x8, addend: 0x0, symName: __ZNSt3__112__to_addressB8ue170006IcEEPT_S2_, symObjAddr: 0x1DD68, symBinAddr: 0x10001FA58, symSize: 0x14 }
  - { offsetInCU: 0x363C9, offset: 0x363C9, size: 0x8, addend: 0x0, symName: __ZNSt3__112construct_atB8ue170006IcJEPcEEPT_S3_DpOT0_, symObjAddr: 0x1DDEC, symBinAddr: 0x10001FADC, symSize: 0x20 }
  - { offsetInCU: 0x36427, offset: 0x36427, size: 0x8, addend: 0x0, symName: __ZNSt3__119__allocate_at_leastB8ue170006INS_9allocatorIcEEEENS_19__allocation_resultINS_16allocator_traitsIT_E7pointerEEERS5_m, symObjAddr: 0x1E110, symBinAddr: 0x10001FE00, symSize: 0x40 }
  - { offsetInCU: 0x3646A, offset: 0x3646A, size: 0x8, addend: 0x0, symName: __ZNSt3__142__uninitialized_allocator_move_if_noexceptB8ue170006INS_9allocatorIcEENS_16reverse_iteratorIPcEES5_cvEET1_RT_T0_S9_S6_, symObjAddr: 0x1E448, symBinAddr: 0x100020138, symSize: 0x78 }
  - { offsetInCU: 0x364E9, offset: 0x364E9, size: 0x8, addend: 0x0, symName: __ZNSt3__14swapB8ue170006IPcEENS_9enable_ifIXaasr21is_move_constructibleIT_EE5valuesr18is_move_assignableIS3_EE5valueEvE4typeERS3_S6_, symObjAddr: 0x1E50C, symBinAddr: 0x1000201FC, symSize: 0x3C }
  - { offsetInCU: 0x3653B, offset: 0x3653B, size: 0x8, addend: 0x0, symName: __ZNSt3__14moveB8ue170006INS_16reverse_iteratorIPcEES3_EET0_T_S5_S4_, symObjAddr: 0x1E63C, symBinAddr: 0x10002032C, symSize: 0x78 }
  - { offsetInCU: 0x36595, offset: 0x36595, size: 0x8, addend: 0x0, symName: __ZNSt3__16__moveB8ue170006INS_17_ClassicAlgPolicyENS_16reverse_iteratorIPcEES4_S4_EENS_4pairIT0_T2_EES6_T1_S7_, symObjAddr: 0x1E6B4, symBinAddr: 0x1000203A4, symSize: 0x64 }
  - { offsetInCU: 0x36601, offset: 0x36601, size: 0x8, addend: 0x0, symName: __ZNSt3__123__dispatch_copy_or_moveB8ue170006INS_17_ClassicAlgPolicyENS_11__move_loopIS1_EENS_14__move_trivialENS_16reverse_iteratorIPcEES7_S7_EENS_4pairIT2_T4_EES9_T3_SA_, symObjAddr: 0x1E718, symBinAddr: 0x100020408, symSize: 0x64 }
  - { offsetInCU: 0x3667F, offset: 0x3667F, size: 0x8, addend: 0x0, symName: __ZNSt3__121__unwrap_and_dispatchB8ue170006INS_10__overloadINS_11__move_loopINS_17_ClassicAlgPolicyEEENS_14__move_trivialEEENS_16reverse_iteratorIPcEES9_S9_Li0EEENS_4pairIT0_T2_EESB_T1_SC_, symObjAddr: 0x1E77C, symBinAddr: 0x10002046C, symSize: 0x12C }
  - { offsetInCU: 0x36711, offset: 0x36711, size: 0x8, addend: 0x0, symName: __ZNSt3__114__unwrap_rangeB8ue170006INS_16reverse_iteratorIPcEES3_EEDaT_T0_, symObjAddr: 0x1E8A8, symBinAddr: 0x100020598, symSize: 0x4C }
  - { offsetInCU: 0x36831, offset: 0x36831, size: 0x8, addend: 0x0, symName: __ZNSt3__113__unwrap_iterB8ue170006INS_16reverse_iteratorIPcEENS_18__unwrap_iter_implIS3_Lb0EEELi0EEEDTclsrT0_8__unwrapclsr3stdE7declvalIT_EEEES7_, symObjAddr: 0x1E994, symBinAddr: 0x100020684, symSize: 0x44 }
  - { offsetInCU: 0x36875, offset: 0x36875, size: 0x8, addend: 0x0, symName: __ZNSt3__19make_pairB8ue170006INS_16reverse_iteratorIPcEES3_EENS_4pairINS_18__unwrap_ref_decayIT_E4typeENS5_IT0_E4typeEEEOS6_OS9_, symObjAddr: 0x1E9D8, symBinAddr: 0x1000206C8, symSize: 0x38 }
  - { offsetInCU: 0x368C4, offset: 0x368C4, size: 0x8, addend: 0x0, symName: __ZNSt3__114__rewrap_rangeB8ue170006INS_16reverse_iteratorIPcEES3_S3_EET0_S4_T1_, symObjAddr: 0x1EA10, symBinAddr: 0x100020700, symSize: 0x5C }
  - { offsetInCU: 0x36919, offset: 0x36919, size: 0x8, addend: 0x0, symName: __ZNSt3__113__rewrap_iterB8ue170006INS_16reverse_iteratorIPcEES3_NS_18__unwrap_iter_implIS3_Lb0EEEEET_S6_T0_, symObjAddr: 0x1EA6C, symBinAddr: 0x10002075C, symSize: 0x74 }
  - { offsetInCU: 0x369BE, offset: 0x369BE, size: 0x8, addend: 0x0, symName: __ZNSt3__1neB8ue170006IPcS1_EEbRKNS_16reverse_iteratorIT_EERKNS2_IT0_EE, symObjAddr: 0x1EBD4, symBinAddr: 0x1000208C4, symSize: 0x48 }
  - { offsetInCU: 0x36A77, offset: 0x36A77, size: 0x8, addend: 0x0, symName: __ZNSt3__110destroy_atB8ue170006IcLi0EEEvPT_, symObjAddr: 0x1EF58, symBinAddr: 0x100020C48, symSize: 0x24 }
  - { offsetInCU: 0x36AAF, offset: 0x36AAF, size: 0x8, addend: 0x0, symName: __ZNSt3__112__destroy_atB8ue170006IcLi0EEEvPT_, symObjAddr: 0x1EF7C, symBinAddr: 0x100020C6C, symSize: 0x10 }
  - { offsetInCU: 0x36AE6, offset: 0x36AE6, size: 0x8, addend: 0x0, symName: __ZNSt3__122__make_exception_guardB8ue170006INS_6vectorIcNS_9allocatorIcEEE16__destroy_vectorEEENS_28__exception_guard_exceptionsIT_EES7_, symObjAddr: 0x1F534, symBinAddr: 0x100021224, symSize: 0x40 }
  - { offsetInCU: 0x36B1C, offset: 0x36B1C, size: 0x8, addend: 0x0, symName: __ZNSt3__112__to_addressB8ue170006IKcEEPT_S3_, symObjAddr: 0x1F9C4, symBinAddr: 0x1000216B4, symSize: 0x14 }
  - { offsetInCU: 0x36B84, offset: 0x36B84, size: 0x8, addend: 0x0, symName: __ZNSt3__122__make_exception_guardB8ue170006INS_6vectorIhNS_9allocatorIhEEE16__destroy_vectorEEENS_28__exception_guard_exceptionsIT_EES7_, symObjAddr: 0x1FBA0, symBinAddr: 0x100021890, symSize: 0x40 }
  - { offsetInCU: 0x36BB9, offset: 0x36BB9, size: 0x8, addend: 0x0, symName: __ZNSt3__119__allocate_at_leastB8ue170006INS_9allocatorIhEEEENS_19__allocation_resultINS_16allocator_traitsIT_E7pointerEEERS5_m, symObjAddr: 0x1FF8C, symBinAddr: 0x100021C7C, symSize: 0x40 }
  - { offsetInCU: 0x36BFD, offset: 0x36BFD, size: 0x8, addend: 0x0, symName: __ZNSt3__112__to_addressB8ue170006IhEEPT_S2_, symObjAddr: 0x20298, symBinAddr: 0x100021F88, symSize: 0x14 }
  - { offsetInCU: 0x36C5A, offset: 0x36C5A, size: 0x8, addend: 0x0, symName: __ZNSt3__112construct_atB8ue170006IhJEPhEEPT_S3_DpOT0_, symObjAddr: 0x203E0, symBinAddr: 0x1000220D0, symSize: 0x20 }
  - { offsetInCU: 0x36CB9, offset: 0x36CB9, size: 0x8, addend: 0x0, symName: __ZNSt3__110destroy_atB8ue170006IhLi0EEEvPT_, symObjAddr: 0x206C8, symBinAddr: 0x1000223B8, symSize: 0x24 }
  - { offsetInCU: 0x36CF1, offset: 0x36CF1, size: 0x8, addend: 0x0, symName: __ZNSt3__112__destroy_atB8ue170006IhLi0EEEvPT_, symObjAddr: 0x206EC, symBinAddr: 0x1000223DC, symSize: 0x10 }
  - { offsetInCU: 0x36D28, offset: 0x36D28, size: 0x8, addend: 0x0, symName: __ZNSt3__130__uninitialized_allocator_copyB8ue170006INS_9allocatorIcEEPcS3_S3_EET2_RT_T0_T1_S4_, symObjAddr: 0x20AA8, symBinAddr: 0x100022798, symSize: 0x80 }
  - { offsetInCU: 0x36DC5, offset: 0x36DC5, size: 0x8, addend: 0x0, symName: __ZNSt3__114__unwrap_rangeB8ue170006IPcS1_EEDaT_T0_, symObjAddr: 0x20B28, symBinAddr: 0x100022818, symSize: 0x3C }
  - { offsetInCU: 0x36E11, offset: 0x36E11, size: 0x8, addend: 0x0, symName: __ZNSt3__135__uninitialized_allocator_copy_implB8ue170006INS_9allocatorIcEEcccLPv0EEEPT2_RT_PT0_S9_S5_, symObjAddr: 0x20B64, symBinAddr: 0x100022854, symSize: 0x38 }
  - { offsetInCU: 0x36E93, offset: 0x36E93, size: 0x8, addend: 0x0, symName: __ZNSt3__113__unwrap_iterB8ue170006IPcNS_18__unwrap_iter_implIS1_Lb1EEELi0EEEDTclsrT0_8__unwrapclsr3stdE7declvalIT_EEEES5_, symObjAddr: 0x20B9C, symBinAddr: 0x10002288C, symSize: 0x24 }
  - { offsetInCU: 0x36ED7, offset: 0x36ED7, size: 0x8, addend: 0x0, symName: __ZNSt3__113__rewrap_iterB8ue170006IPcS1_NS_18__unwrap_iter_implIS1_Lb1EEEEET_S4_T0_, symObjAddr: 0x20BC0, symBinAddr: 0x1000228B0, symSize: 0x3C }
  - { offsetInCU: 0x3707F, offset: 0x3707F, size: 0x8, addend: 0x0, symName: __ZNSt3__14copyB8ue170006IPcS1_EET0_T_S3_S2_, symObjAddr: 0x20CC4, symBinAddr: 0x1000229B4, symSize: 0x40 }
  - { offsetInCU: 0x370D9, offset: 0x370D9, size: 0x8, addend: 0x0, symName: __ZNSt3__16__copyB8ue170006INS_17_ClassicAlgPolicyEPcS2_S2_EENS_4pairIT0_T2_EES4_T1_S5_, symObjAddr: 0x20D04, symBinAddr: 0x1000229F4, symSize: 0x44 }
  - { offsetInCU: 0x37145, offset: 0x37145, size: 0x8, addend: 0x0, symName: __ZNSt3__123__dispatch_copy_or_moveB8ue170006INS_17_ClassicAlgPolicyENS_11__copy_loopIS1_EENS_14__copy_trivialEPcS5_S5_EENS_4pairIT2_T4_EES7_T3_S8_, symObjAddr: 0x20D48, symBinAddr: 0x100022A38, symSize: 0x44 }
  - { offsetInCU: 0x371C3, offset: 0x371C3, size: 0x8, addend: 0x0, symName: __ZNSt3__121__unwrap_and_dispatchB8ue170006INS_10__overloadINS_11__copy_loopINS_17_ClassicAlgPolicyEEENS_14__copy_trivialEEEPcS7_S7_Li0EEENS_4pairIT0_T2_EES9_T1_SA_, symObjAddr: 0x20D8C, symBinAddr: 0x100022A7C, symSize: 0xB4 }
  - { offsetInCU: 0x37389, offset: 0x37389, size: 0x8, addend: 0x0, symName: __ZNSt3__19make_pairB8ue170006IPcS1_EENS_4pairINS_18__unwrap_ref_decayIT_E4typeENS3_IT0_E4typeEEEOS4_OS7_, symObjAddr: 0x20E88, symBinAddr: 0x100022B78, symSize: 0x38 }
  - { offsetInCU: 0x373D8, offset: 0x373D8, size: 0x8, addend: 0x0, symName: __ZNSt3__114__rewrap_rangeB8ue170006IPcS1_S1_EET0_S2_T1_, symObjAddr: 0x20EC0, symBinAddr: 0x100022BB0, symSize: 0x2C }
  - { offsetInCU: 0x3742D, offset: 0x3742D, size: 0x8, addend: 0x0, symName: __ZNSt3__119__copy_trivial_implB8ue170006IccEENS_4pairIPT_PT0_EES3_S3_S5_, symObjAddr: 0x20EEC, symBinAddr: 0x100022BDC, symSize: 0x78 }
  - { offsetInCU: 0x37496, offset: 0x37496, size: 0x8, addend: 0x0, symName: __ZNSt3__119__constexpr_memmoveB8ue170006IccLi0EEEPT_S2_PT0_NS_15__element_countE, symObjAddr: 0x20F64, symBinAddr: 0x100022C54, symSize: 0x64 }
  - { offsetInCU: 0x37505, offset: 0x37505, size: 0x8, addend: 0x0, symName: __ZNSt3__19make_pairB8ue170006IRPcS1_EENS_4pairINS_18__unwrap_ref_decayIT_E4typeENS4_IT0_E4typeEEEOS5_OS8_, symObjAddr: 0x20FC8, symBinAddr: 0x100022CB8, symSize: 0x38 }
  - { offsetInCU: 0x375A7, offset: 0x375A7, size: 0x8, addend: 0x0, symName: __ZNSt3__1eqB8ue170006IPKcEEbRKNS_11__wrap_iterIT_EES7_, symObjAddr: 0x2118C, symBinAddr: 0x100022E7C, symSize: 0x48 }
  - { offsetInCU: 0x375EB, offset: 0x375EB, size: 0x8, addend: 0x0, symName: __ZNSt3__112construct_atB8ue170006IcJcEPcEEPT_S3_DpOT0_, symObjAddr: 0x21384, symBinAddr: 0x100023074, symSize: 0x2C }
  - { offsetInCU: 0x3765D, offset: 0x3765D, size: 0x8, addend: 0x0, symName: __ZNSt3__118__constexpr_strlenB8ue170006EPKc, symObjAddr: 0x21C80, symBinAddr: 0x100023970, symSize: 0x24 }
  - { offsetInCU: 0x3768A, offset: 0x3768A, size: 0x8, addend: 0x0, symName: __ZNSt3__112__to_addressB8ue170006IPN3olc4PGEXEEEPT_S5_, symObjAddr: 0x2229C, symBinAddr: 0x100023F8C, symSize: 0x14 }
  - { offsetInCU: 0x376C0, offset: 0x376C0, size: 0x8, addend: 0x0, symName: __ZNSt3__110destroy_atB8ue170006IPN3olc4PGEXELi0EEEvPT_, symObjAddr: 0x222B0, symBinAddr: 0x100023FA0, symSize: 0x24 }
  - { offsetInCU: 0x376F8, offset: 0x376F8, size: 0x8, addend: 0x0, symName: __ZNSt3__112__destroy_atB8ue170006IPN3olc4PGEXELi0EEEvPT_, symObjAddr: 0x222D4, symBinAddr: 0x100023FC4, symSize: 0x10 }
  - { offsetInCU: 0x37730, offset: 0x37730, size: 0x8, addend: 0x0, symName: __ZNSt3__112__to_addressB8ue170006INS_5tupleIJN3olc3KeyENS_12basic_stringIcNS_11char_traitsIcEENS_9allocatorIcEEEES9_EEEEEPT_SC_, symObjAddr: 0x227A0, symBinAddr: 0x100024490, symSize: 0x14 }
  - { offsetInCU: 0x37766, offset: 0x37766, size: 0x8, addend: 0x0, symName: __ZNSt3__110destroy_atB8ue170006INS_5tupleIJN3olc3KeyENS_12basic_stringIcNS_11char_traitsIcEENS_9allocatorIcEEEES9_EEELi0EEEvPT_, symObjAddr: 0x227B4, symBinAddr: 0x1000244A4, symSize: 0x24 }
  - { offsetInCU: 0x3779E, offset: 0x3779E, size: 0x8, addend: 0x0, symName: __ZNSt3__112__destroy_atB8ue170006INS_5tupleIJN3olc3KeyENS_12basic_stringIcNS_11char_traitsIcEENS_9allocatorIcEEEES9_EEELi0EEEvPT_, symObjAddr: 0x227D8, symBinAddr: 0x1000244C8, symSize: 0x24 }
  - { offsetInCU: 0x37809, offset: 0x37809, size: 0x8, addend: 0x0, symName: __ZNSt3__110destroy_atB8ue170006INS_12basic_stringIcNS_11char_traitsIcEENS_9allocatorIcEEEELi0EEEvPT_, symObjAddr: 0x22D20, symBinAddr: 0x100024A10, symSize: 0x24 }
  - { offsetInCU: 0x37841, offset: 0x37841, size: 0x8, addend: 0x0, symName: __ZNSt3__112__destroy_atB8ue170006INS_12basic_stringIcNS_11char_traitsIcEENS_9allocatorIcEEEELi0EEEvPT_, symObjAddr: 0x22D44, symBinAddr: 0x100024A34, symSize: 0x24 }
  - { offsetInCU: 0x37879, offset: 0x37879, size: 0x8, addend: 0x0, symName: __ZNSt3__112__to_addressB8ue170006INS_12basic_stringIcNS_11char_traitsIcEENS_9allocatorIcEEEEEEPT_S8_, symObjAddr: 0x23120, symBinAddr: 0x100024E10, symSize: 0x14 }
  - { offsetInCU: 0x378AF, offset: 0x378AF, size: 0x8, addend: 0x0, symName: __ZNSt3__112__to_addressB8ue170006IN3olc11v2d_genericIiEEEEPT_S5_, symObjAddr: 0x236D4, symBinAddr: 0x1000253C4, symSize: 0x14 }
  - { offsetInCU: 0x378E5, offset: 0x378E5, size: 0x8, addend: 0x0, symName: __ZNSt3__110destroy_atB8ue170006IN3olc11v2d_genericIiEELi0EEEvPT_, symObjAddr: 0x236E8, symBinAddr: 0x1000253D8, symSize: 0x24 }
  - { offsetInCU: 0x3791D, offset: 0x3791D, size: 0x8, addend: 0x0, symName: __ZNSt3__112__destroy_atB8ue170006IN3olc11v2d_genericIiEELi0EEEvPT_, symObjAddr: 0x2370C, symBinAddr: 0x1000253FC, symSize: 0x10 }
  - { offsetInCU: 0x37955, offset: 0x37955, size: 0x8, addend: 0x0, symName: __ZNSt3__112__to_addressB8ue170006IN3olc9LayerDescEEEPT_S4_, symObjAddr: 0x23BD8, symBinAddr: 0x1000258C8, symSize: 0x14 }
  - { offsetInCU: 0x3798B, offset: 0x3798B, size: 0x8, addend: 0x0, symName: __ZNSt3__110destroy_atB8ue170006IN3olc9LayerDescELi0EEEvPT_, symObjAddr: 0x23BEC, symBinAddr: 0x1000258DC, symSize: 0x24 }
  - { offsetInCU: 0x379C3, offset: 0x379C3, size: 0x8, addend: 0x0, symName: __ZNSt3__112__destroy_atB8ue170006IN3olc9LayerDescELi0EEEvPT_, symObjAddr: 0x23C10, symBinAddr: 0x100025900, symSize: 0x24 }
  - { offsetInCU: 0x379FA, offset: 0x379FA, size: 0x8, addend: 0x0, symName: __ZNSt3__1eqB8ue170006IPN3olc9LayerDescEEEbRKNS_11__wrap_iterIT_EES8_, symObjAddr: 0x23E14, symBinAddr: 0x100025B04, symSize: 0x48 }
  - { offsetInCU: 0x37A64, offset: 0x37A64, size: 0x8, addend: 0x0, symName: __ZNSt3__112construct_atB8ue170006IN3olc9LayerDescEJS2_EPS2_EEPT_S5_DpOT0_, symObjAddr: 0x243CC, symBinAddr: 0x1000260BC, symSize: 0x3C }
  - { offsetInCU: 0x37AD6, offset: 0x37AD6, size: 0x8, addend: 0x0, symName: __ZNSt3__119__allocate_at_leastB8ue170006INS_9allocatorIN3olc9LayerDescEEEEENS_19__allocation_resultINS_16allocator_traitsIT_E7pointerEEERS7_m, symObjAddr: 0x25178, symBinAddr: 0x100026E68, symSize: 0x40 }
  - { offsetInCU: 0x37B19, offset: 0x37B19, size: 0x8, addend: 0x0, symName: __ZNSt3__142__uninitialized_allocator_move_if_noexceptB8ue170006INS_9allocatorIN3olc9LayerDescEEENS_16reverse_iteratorIPS3_EES7_S7_EET2_RT_T0_T1_S8_, symObjAddr: 0x25330, symBinAddr: 0x100027020, symSize: 0x12C }
  - { offsetInCU: 0x37BBA, offset: 0x37BBA, size: 0x8, addend: 0x0, symName: __ZNSt3__14swapB8ue170006IPN3olc9LayerDescEEENS_9enable_ifIXaasr21is_move_constructibleIT_EE5valuesr18is_move_assignableIS5_EE5valueEvE4typeERS5_S8_, symObjAddr: 0x254A8, symBinAddr: 0x100027198, symSize: 0x3C }
  - { offsetInCU: 0x37C0C, offset: 0x37C0C, size: 0x8, addend: 0x0, symName: __ZNSt3__122__make_exception_guardB8ue170006INS_29_AllocatorDestroyRangeReverseINS_9allocatorIN3olc9LayerDescEEENS_16reverse_iteratorIPS4_EEEEEENS_28__exception_guard_exceptionsIT_EESB_, symObjAddr: 0x255AC, symBinAddr: 0x10002729C, symSize: 0x4C }
  - { offsetInCU: 0x37C42, offset: 0x37C42, size: 0x8, addend: 0x0, symName: __ZNSt3__1neB8ue170006IPN3olc9LayerDescES3_EEbRKNS_16reverse_iteratorIT_EERKNS4_IT0_EE, symObjAddr: 0x2563C, symBinAddr: 0x10002732C, symSize: 0x48 }
  - { offsetInCU: 0x37C8E, offset: 0x37C8E, size: 0x8, addend: 0x0, symName: __ZNSt3__112__to_addressB8ue170006INS_16reverse_iteratorIPN3olc9LayerDescEEEvEEu7__decayIDTclsr19__to_address_helperIT_EE6__callclsr3stdE7declvalIRKS6_EEEEES8_, symObjAddr: 0x25684, symBinAddr: 0x100027374, symSize: 0x24 }
  - { offsetInCU: 0x37CED, offset: 0x37CED, size: 0x8, addend: 0x0, symName: __ZNSt3__14prevB8ue170006IPN3olc9LayerDescEEENS_9enable_ifIXsr29__has_input_iterator_categoryIT_EE5valueES5_E4typeES5_NS_15iterator_traitsIS5_E15difference_typeE, symObjAddr: 0x25838, symBinAddr: 0x100027528, symSize: 0x3C }
  - { offsetInCU: 0x37D31, offset: 0x37D31, size: 0x8, addend: 0x0, symName: __ZNSt3__121__convert_to_integralB8ue170006El, symObjAddr: 0x258AC, symBinAddr: 0x10002759C, symSize: 0x14 }
  - { offsetInCU: 0x37D5E, offset: 0x37D5E, size: 0x8, addend: 0x0, symName: __ZNSt3__19__advanceB8ue170006IPN3olc9LayerDescEEEvRT_NS_15iterator_traitsIS4_E15difference_typeENS_26random_access_iterator_tagE, symObjAddr: 0x258C0, symBinAddr: 0x1000275B0, symSize: 0x30 }
  - { offsetInCU: 0x37DA7, offset: 0x37DA7, size: 0x8, addend: 0x0, symName: __ZNSt3__119__allocator_destroyB8ue170006INS_9allocatorIN3olc9LayerDescEEENS_16reverse_iteratorINS5_IPS3_EEEES8_EEvRT_T0_T1_, symObjAddr: 0x259F4, symBinAddr: 0x1000276E4, symSize: 0x70 }
  - { offsetInCU: 0x37E0C, offset: 0x37E0C, size: 0x8, addend: 0x0, symName: __ZNSt3__1neB8ue170006INS_16reverse_iteratorIPN3olc9LayerDescEEES5_EEbRKNS1_IT_EERKNS1_IT0_EE, symObjAddr: 0x25AA0, symBinAddr: 0x100027790, symSize: 0x60 }
  - { offsetInCU: 0x37E58, offset: 0x37E58, size: 0x8, addend: 0x0, symName: __ZNSt3__112__to_addressB8ue170006INS_16reverse_iteratorINS1_IPN3olc9LayerDescEEEEEvEEu7__decayIDTclsr19__to_address_helperIT_EE6__callclsr3stdE7declvalIRKS7_EEEEES9_, symObjAddr: 0x25B00, symBinAddr: 0x1000277F0, symSize: 0x24 }
  - { offsetInCU: 0x37EB7, offset: 0x37EB7, size: 0x8, addend: 0x0, symName: __ZNSt3__14prevB8ue170006INS_16reverse_iteratorIPN3olc9LayerDescEEEEENS_9enable_ifIXsr29__has_input_iterator_categoryIT_EE5valueES7_E4typeES7_NS_15iterator_traitsIS7_E15difference_typeE, symObjAddr: 0x25BFC, symBinAddr: 0x1000278EC, symSize: 0x4C }
  - { offsetInCU: 0x37EFB, offset: 0x37EFB, size: 0x8, addend: 0x0, symName: __ZNSt3__19__advanceB8ue170006INS_16reverse_iteratorIPN3olc9LayerDescEEEEEvRT_NS_15iterator_traitsIS6_E15difference_typeENS_26random_access_iterator_tagE, symObjAddr: 0x25C80, symBinAddr: 0x100027970, symSize: 0x2C }
  - { offsetInCU: 0x37F45, offset: 0x37F45, size: 0x8, addend: 0x0, symName: __ZNSt3__112__to_addressB8ue170006IN3olc13DecalInstanceEEEPT_S4_, symObjAddr: 0x26410, symBinAddr: 0x100028100, symSize: 0x14 }
  - { offsetInCU: 0x37F7B, offset: 0x37F7B, size: 0x8, addend: 0x0, symName: __ZNSt3__110destroy_atB8ue170006IN3olc13DecalInstanceELi0EEEvPT_, symObjAddr: 0x26424, symBinAddr: 0x100028114, symSize: 0x24 }
  - { offsetInCU: 0x37FB3, offset: 0x37FB3, size: 0x8, addend: 0x0, symName: __ZNSt3__112__destroy_atB8ue170006IN3olc13DecalInstanceELi0EEEvPT_, symObjAddr: 0x26448, symBinAddr: 0x100028138, symSize: 0x24 }
  - { offsetInCU: 0x37FEA, offset: 0x37FEA, size: 0x8, addend: 0x0, symName: __ZNSt3__122__make_exception_guardB8ue170006INS_6vectorIN3olc11v2d_genericIfEENS_9allocatorIS4_EEE16__destroy_vectorEEENS_28__exception_guard_exceptionsIT_EESA_, symObjAddr: 0x266DC, symBinAddr: 0x1000283CC, symSize: 0x40 }
  - { offsetInCU: 0x3801F, offset: 0x3801F, size: 0x8, addend: 0x0, symName: __ZNSt3__119__allocate_at_leastB8ue170006INS_9allocatorIN3olc11v2d_genericIfEEEEEENS_19__allocation_resultINS_16allocator_traitsIT_E7pointerEEERS8_m, symObjAddr: 0x26ADC, symBinAddr: 0x1000287CC, symSize: 0x40 }
  - { offsetInCU: 0x38063, offset: 0x38063, size: 0x8, addend: 0x0, symName: __ZNSt3__112__to_addressB8ue170006IN3olc11v2d_genericIfEEEEPT_S5_, symObjAddr: 0x26DF0, symBinAddr: 0x100028AE0, symSize: 0x14 }
  - { offsetInCU: 0x38098, offset: 0x38098, size: 0x8, addend: 0x0, symName: __ZNSt3__130__uninitialized_allocator_copyB8ue170006INS_9allocatorIN3olc11v2d_genericIfEEEEPKS4_S7_PS4_EET2_RT_T0_T1_S9_, symObjAddr: 0x26EA0, symBinAddr: 0x100028B90, symSize: 0x80 }
  - { offsetInCU: 0x38135, offset: 0x38135, size: 0x8, addend: 0x0, symName: __ZNSt3__114__unwrap_rangeB8ue170006IPKN3olc11v2d_genericIfEES5_EEDaT_T0_, symObjAddr: 0x26F90, symBinAddr: 0x100028C80, symSize: 0x3C }
  - { offsetInCU: 0x38181, offset: 0x38181, size: 0x8, addend: 0x0, symName: __ZNSt3__135__uninitialized_allocator_copy_implB8ue170006INS_9allocatorIN3olc11v2d_genericIfEEEEPKS4_S7_PS4_EET2_RT_T0_T1_S9_, symObjAddr: 0x26FCC, symBinAddr: 0x100028CBC, symSize: 0xF4 }
  - { offsetInCU: 0x3821F, offset: 0x3821F, size: 0x8, addend: 0x0, symName: __ZNSt3__113__unwrap_iterB8ue170006IPN3olc11v2d_genericIfEENS_18__unwrap_iter_implIS4_Lb1EEELi0EEEDTclsrT0_8__unwrapclsr3stdE7declvalIT_EEEES8_, symObjAddr: 0x270C0, symBinAddr: 0x100028DB0, symSize: 0x24 }
  - { offsetInCU: 0x38263, offset: 0x38263, size: 0x8, addend: 0x0, symName: __ZNSt3__113__rewrap_iterB8ue170006IPN3olc11v2d_genericIfEES4_NS_18__unwrap_iter_implIS4_Lb1EEEEET_S7_T0_, symObjAddr: 0x270E4, symBinAddr: 0x100028DD4, symSize: 0x3C }
  - { offsetInCU: 0x383D4, offset: 0x383D4, size: 0x8, addend: 0x0, symName: __ZNSt3__113__unwrap_iterB8ue170006IPKN3olc11v2d_genericIfEENS_18__unwrap_iter_implIS5_Lb1EEELi0EEEDTclsrT0_8__unwrapclsr3stdE7declvalIT_EEEES9_, symObjAddr: 0x27178, symBinAddr: 0x100028E68, symSize: 0x24 }
  - { offsetInCU: 0x3846C, offset: 0x3846C, size: 0x8, addend: 0x0, symName: __ZNSt3__112__to_addressB8ue170006IKN3olc11v2d_genericIfEEEEPT_S6_, symObjAddr: 0x271FC, symBinAddr: 0x100028EEC, symSize: 0x14 }
  - { offsetInCU: 0x384A1, offset: 0x384A1, size: 0x8, addend: 0x0, symName: __ZNSt3__122__make_exception_guardB8ue170006INS_29_AllocatorDestroyRangeReverseINS_9allocatorIN3olc11v2d_genericIfEEEEPS5_EEEENS_28__exception_guard_exceptionsIT_EESA_, symObjAddr: 0x27244, symBinAddr: 0x100028F34, symSize: 0x4C }
  - { offsetInCU: 0x384FE, offset: 0x384FE, size: 0x8, addend: 0x0, symName: __ZNSt3__112construct_atB8ue170006IN3olc11v2d_genericIfEEJRKS3_EPS3_EEPT_S8_DpOT0_, symObjAddr: 0x273E8, symBinAddr: 0x1000290D8, symSize: 0x3C }
  - { offsetInCU: 0x38570, offset: 0x38570, size: 0x8, addend: 0x0, symName: __ZNSt3__119__allocator_destroyB8ue170006INS_9allocatorIN3olc11v2d_genericIfEEEENS_16reverse_iteratorIPS4_EES8_EEvRT_T0_T1_, symObjAddr: 0x274DC, symBinAddr: 0x1000291CC, symSize: 0x70 }
  - { offsetInCU: 0x385D3, offset: 0x385D3, size: 0x8, addend: 0x0, symName: __ZNSt3__1neB8ue170006IPN3olc11v2d_genericIfEES4_EEbRKNS_16reverse_iteratorIT_EERKNS5_IT0_EE, symObjAddr: 0x27580, symBinAddr: 0x100029270, symSize: 0x48 }
  - { offsetInCU: 0x3861F, offset: 0x3861F, size: 0x8, addend: 0x0, symName: __ZNSt3__112__to_addressB8ue170006INS_16reverse_iteratorIPN3olc11v2d_genericIfEEEEvEEu7__decayIDTclsr19__to_address_helperIT_EE6__callclsr3stdE7declvalIRKS7_EEEEES9_, symObjAddr: 0x275F0, symBinAddr: 0x1000292E0, symSize: 0x24 }
  - { offsetInCU: 0x38656, offset: 0x38656, size: 0x8, addend: 0x0, symName: __ZNSt3__110destroy_atB8ue170006IN3olc11v2d_genericIfEELi0EEEvPT_, symObjAddr: 0x2764C, symBinAddr: 0x10002933C, symSize: 0x24 }
  - { offsetInCU: 0x3868E, offset: 0x3868E, size: 0x8, addend: 0x0, symName: __ZNSt3__112__destroy_atB8ue170006IN3olc11v2d_genericIfEELi0EEEvPT_, symObjAddr: 0x27670, symBinAddr: 0x100029360, symSize: 0x10 }
  - { offsetInCU: 0x386EE, offset: 0x386EE, size: 0x8, addend: 0x0, symName: __ZNSt3__14prevB8ue170006IPN3olc11v2d_genericIfEEEENS_9enable_ifIXsr29__has_input_iterator_categoryIT_EE5valueES6_E4typeES6_NS_15iterator_traitsIS6_E15difference_typeE, symObjAddr: 0x276E4, symBinAddr: 0x1000293D4, symSize: 0x3C }
  - { offsetInCU: 0x38732, offset: 0x38732, size: 0x8, addend: 0x0, symName: __ZNSt3__19__advanceB8ue170006IPN3olc11v2d_genericIfEEEEvRT_NS_15iterator_traitsIS5_E15difference_typeENS_26random_access_iterator_tagE, symObjAddr: 0x27758, symBinAddr: 0x100029448, symSize: 0x28 }
  - { offsetInCU: 0x387CE, offset: 0x387CE, size: 0x8, addend: 0x0, symName: __ZNSt3__122__make_exception_guardB8ue170006INS_6vectorIN3olc5PixelENS_9allocatorIS3_EEE16__destroy_vectorEEENS_28__exception_guard_exceptionsIT_EES9_, symObjAddr: 0x27C1C, symBinAddr: 0x10002990C, symSize: 0x40 }
  - { offsetInCU: 0x38803, offset: 0x38803, size: 0x8, addend: 0x0, symName: __ZNSt3__130__uninitialized_allocator_copyB8ue170006INS_9allocatorIN3olc5PixelEEEPKS3_S6_PS3_EET2_RT_T0_T1_S8_, symObjAddr: 0x27E84, symBinAddr: 0x100029B74, symSize: 0x80 }
  - { offsetInCU: 0x388A0, offset: 0x388A0, size: 0x8, addend: 0x0, symName: __ZNSt3__114__unwrap_rangeB8ue170006IPKN3olc5PixelES4_EEDaT_T0_, symObjAddr: 0x27F04, symBinAddr: 0x100029BF4, symSize: 0x3C }
  - { offsetInCU: 0x388EC, offset: 0x388EC, size: 0x8, addend: 0x0, symName: __ZNSt3__135__uninitialized_allocator_copy_implB8ue170006INS_9allocatorIN3olc5PixelEEEKS3_S3_S3_LPv0EEEPT2_RT_PT0_SC_S8_, symObjAddr: 0x27F40, symBinAddr: 0x100029C30, symSize: 0x38 }
  - { offsetInCU: 0x3896E, offset: 0x3896E, size: 0x8, addend: 0x0, symName: __ZNSt3__113__unwrap_iterB8ue170006IPN3olc5PixelENS_18__unwrap_iter_implIS3_Lb1EEELi0EEEDTclsrT0_8__unwrapclsr3stdE7declvalIT_EEEES7_, symObjAddr: 0x27F78, symBinAddr: 0x100029C68, symSize: 0x24 }
  - { offsetInCU: 0x389B2, offset: 0x389B2, size: 0x8, addend: 0x0, symName: __ZNSt3__113__rewrap_iterB8ue170006IPN3olc5PixelES3_NS_18__unwrap_iter_implIS3_Lb1EEEEET_S6_T0_, symObjAddr: 0x27F9C, symBinAddr: 0x100029C8C, symSize: 0x3C }
  - { offsetInCU: 0x38B23, offset: 0x38B23, size: 0x8, addend: 0x0, symName: __ZNSt3__113__unwrap_iterB8ue170006IPKN3olc5PixelENS_18__unwrap_iter_implIS4_Lb1EEELi0EEEDTclsrT0_8__unwrapclsr3stdE7declvalIT_EEEES8_, symObjAddr: 0x28030, symBinAddr: 0x100029D20, symSize: 0x24 }
  - { offsetInCU: 0x38BBB, offset: 0x38BBB, size: 0x8, addend: 0x0, symName: __ZNSt3__112__to_addressB8ue170006IKN3olc5PixelEEEPT_S5_, symObjAddr: 0x280B4, symBinAddr: 0x100029DA4, symSize: 0x14 }
  - { offsetInCU: 0x38BF0, offset: 0x38BF0, size: 0x8, addend: 0x0, symName: __ZNSt3__14copyB8ue170006IPKN3olc5PixelEPS2_EET0_T_S7_S6_, symObjAddr: 0x280FC, symBinAddr: 0x100029DEC, symSize: 0x40 }
  - { offsetInCU: 0x38C4A, offset: 0x38C4A, size: 0x8, addend: 0x0, symName: __ZNSt3__16__copyB8ue170006INS_17_ClassicAlgPolicyEPKN3olc5PixelES5_PS3_EENS_4pairIT0_T2_EES8_T1_S9_, symObjAddr: 0x2813C, symBinAddr: 0x100029E2C, symSize: 0x44 }
  - { offsetInCU: 0x38CB6, offset: 0x38CB6, size: 0x8, addend: 0x0, symName: __ZNSt3__123__dispatch_copy_or_moveB8ue170006INS_17_ClassicAlgPolicyENS_11__copy_loopIS1_EENS_14__copy_trivialEPKN3olc5PixelES8_PS6_EENS_4pairIT2_T4_EESB_T3_SC_, symObjAddr: 0x28180, symBinAddr: 0x100029E70, symSize: 0x44 }
  - { offsetInCU: 0x38D34, offset: 0x38D34, size: 0x8, addend: 0x0, symName: __ZNSt3__121__unwrap_and_dispatchB8ue170006INS_10__overloadINS_11__copy_loopINS_17_ClassicAlgPolicyEEENS_14__copy_trivialEEEPKN3olc5PixelESA_PS8_Li0EEENS_4pairIT0_T2_EESD_T1_SE_, symObjAddr: 0x281C4, symBinAddr: 0x100029EB4, symSize: 0xB4 }
  - { offsetInCU: 0x38EC7, offset: 0x38EC7, size: 0x8, addend: 0x0, symName: __ZNSt3__19make_pairB8ue170006IPKN3olc5PixelEPS2_EENS_4pairINS_18__unwrap_ref_decayIT_E4typeENS7_IT0_E4typeEEEOS8_OSB_, symObjAddr: 0x282C0, symBinAddr: 0x100029FB0, symSize: 0x38 }
  - { offsetInCU: 0x38F16, offset: 0x38F16, size: 0x8, addend: 0x0, symName: __ZNSt3__114__rewrap_rangeB8ue170006IPKN3olc5PixelES4_S4_EET0_S5_T1_, symObjAddr: 0x282F8, symBinAddr: 0x100029FE8, symSize: 0x2C }
  - { offsetInCU: 0x38F6B, offset: 0x38F6B, size: 0x8, addend: 0x0, symName: __ZNSt3__119__copy_trivial_implB8ue170006IKN3olc5PixelES2_EENS_4pairIPT_PT0_EES6_S6_S8_, symObjAddr: 0x28324, symBinAddr: 0x10002A014, symSize: 0x80 }
  - { offsetInCU: 0x38FD4, offset: 0x38FD4, size: 0x8, addend: 0x0, symName: __ZNSt3__119__constexpr_memmoveB8ue170006IN3olc5PixelEKS2_Li0EEEPT_S5_PT0_NS_15__element_countE, symObjAddr: 0x283A4, symBinAddr: 0x10002A094, symSize: 0x64 }
  - { offsetInCU: 0x39043, offset: 0x39043, size: 0x8, addend: 0x0, symName: __ZNSt3__19make_pairB8ue170006IRPKN3olc5PixelEPS2_EENS_4pairINS_18__unwrap_ref_decayIT_E4typeENS8_IT0_E4typeEEEOS9_OSC_, symObjAddr: 0x28408, symBinAddr: 0x10002A0F8, symSize: 0x38 }
  - { offsetInCU: 0x39092, offset: 0x39092, size: 0x8, addend: 0x0, symName: __ZNSt3__113__rewrap_iterB8ue170006IPKN3olc5PixelES4_NS_18__unwrap_iter_implIS4_Lb1EEEEET_S7_T0_, symObjAddr: 0x2854C, symBinAddr: 0x10002A23C, symSize: 0x3C }
  - { offsetInCU: 0x3913A, offset: 0x3913A, size: 0x8, addend: 0x0, symName: __ZNSt3__130__uninitialized_allocator_copyB8ue170006INS_9allocatorIN3olc11v2d_genericIfEEEEPS4_S6_S6_EET2_RT_T0_T1_S7_, symObjAddr: 0x28914, symBinAddr: 0x10002A604, symSize: 0x80 }
  - { offsetInCU: 0x391D7, offset: 0x391D7, size: 0x8, addend: 0x0, symName: __ZNSt3__114__unwrap_rangeB8ue170006IPN3olc11v2d_genericIfEES4_EEDaT_T0_, symObjAddr: 0x28994, symBinAddr: 0x10002A684, symSize: 0x3C }
  - { offsetInCU: 0x39223, offset: 0x39223, size: 0x8, addend: 0x0, symName: __ZNSt3__135__uninitialized_allocator_copy_implB8ue170006INS_9allocatorIN3olc11v2d_genericIfEEEEPS4_S6_S6_EET2_RT_T0_T1_S7_, symObjAddr: 0x289D0, symBinAddr: 0x10002A6C0, symSize: 0xF4 }
  - { offsetInCU: 0x393C3, offset: 0x393C3, size: 0x8, addend: 0x0, symName: __ZNSt3__112construct_atB8ue170006IN3olc11v2d_genericIfEEJRS3_EPS3_EEPT_S7_DpOT0_, symObjAddr: 0x28BBC, symBinAddr: 0x10002A8AC, symSize: 0x3C }
  - { offsetInCU: 0x39435, offset: 0x39435, size: 0x8, addend: 0x0, symName: __ZNSt3__130__uninitialized_allocator_copyB8ue170006INS_9allocatorIN3olc5PixelEEEPS3_S5_S5_EET2_RT_T0_T1_S6_, symObjAddr: 0x28E78, symBinAddr: 0x10002AB68, symSize: 0x80 }
  - { offsetInCU: 0x394D2, offset: 0x394D2, size: 0x8, addend: 0x0, symName: __ZNSt3__114__unwrap_rangeB8ue170006IPN3olc5PixelES3_EEDaT_T0_, symObjAddr: 0x28EF8, symBinAddr: 0x10002ABE8, symSize: 0x3C }
  - { offsetInCU: 0x3951E, offset: 0x3951E, size: 0x8, addend: 0x0, symName: __ZNSt3__135__uninitialized_allocator_copy_implB8ue170006INS_9allocatorIN3olc5PixelEEES3_S3_S3_LPv0EEEPT2_RT_PT0_SB_S7_, symObjAddr: 0x28F34, symBinAddr: 0x10002AC24, symSize: 0x38 }
  - { offsetInCU: 0x396EB, offset: 0x396EB, size: 0x8, addend: 0x0, symName: __ZNSt3__14copyB8ue170006IPN3olc5PixelES3_EET0_T_S5_S4_, symObjAddr: 0x29034, symBinAddr: 0x10002AD24, symSize: 0x40 }
  - { offsetInCU: 0x39745, offset: 0x39745, size: 0x8, addend: 0x0, symName: __ZNSt3__16__copyB8ue170006INS_17_ClassicAlgPolicyEPN3olc5PixelES4_S4_EENS_4pairIT0_T2_EES6_T1_S7_, symObjAddr: 0x29074, symBinAddr: 0x10002AD64, symSize: 0x44 }
  - { offsetInCU: 0x397B1, offset: 0x397B1, size: 0x8, addend: 0x0, symName: __ZNSt3__123__dispatch_copy_or_moveB8ue170006INS_17_ClassicAlgPolicyENS_11__copy_loopIS1_EENS_14__copy_trivialEPN3olc5PixelES7_S7_EENS_4pairIT2_T4_EES9_T3_SA_, symObjAddr: 0x290B8, symBinAddr: 0x10002ADA8, symSize: 0x44 }
  - { offsetInCU: 0x3982F, offset: 0x3982F, size: 0x8, addend: 0x0, symName: __ZNSt3__121__unwrap_and_dispatchB8ue170006INS_10__overloadINS_11__copy_loopINS_17_ClassicAlgPolicyEEENS_14__copy_trivialEEEPN3olc5PixelES9_S9_Li0EEENS_4pairIT0_T2_EESB_T1_SC_, symObjAddr: 0x290FC, symBinAddr: 0x10002ADEC, symSize: 0xB4 }
  - { offsetInCU: 0x398BF, offset: 0x398BF, size: 0x8, addend: 0x0, symName: __ZNSt3__19make_pairB8ue170006IPN3olc5PixelES3_EENS_4pairINS_18__unwrap_ref_decayIT_E4typeENS5_IT0_E4typeEEEOS6_OS9_, symObjAddr: 0x291F8, symBinAddr: 0x10002AEE8, symSize: 0x38 }
  - { offsetInCU: 0x3990E, offset: 0x3990E, size: 0x8, addend: 0x0, symName: __ZNSt3__114__rewrap_rangeB8ue170006IPN3olc5PixelES3_S3_EET0_S4_T1_, symObjAddr: 0x29230, symBinAddr: 0x10002AF20, symSize: 0x2C }
  - { offsetInCU: 0x39963, offset: 0x39963, size: 0x8, addend: 0x0, symName: __ZNSt3__119__copy_trivial_implB8ue170006IN3olc5PixelES2_EENS_4pairIPT_PT0_EES5_S5_S7_, symObjAddr: 0x2925C, symBinAddr: 0x10002AF4C, symSize: 0x80 }
  - { offsetInCU: 0x399CC, offset: 0x399CC, size: 0x8, addend: 0x0, symName: __ZNSt3__119__constexpr_memmoveB8ue170006IN3olc5PixelES2_Li0EEEPT_S4_PT0_NS_15__element_countE, symObjAddr: 0x292DC, symBinAddr: 0x10002AFCC, symSize: 0x64 }
  - { offsetInCU: 0x39A3B, offset: 0x39A3B, size: 0x8, addend: 0x0, symName: __ZNSt3__19make_pairB8ue170006IRPN3olc5PixelES3_EENS_4pairINS_18__unwrap_ref_decayIT_E4typeENS6_IT0_E4typeEEEOS7_OSA_, symObjAddr: 0x29340, symBinAddr: 0x10002B030, symSize: 0x38 }
  - { offsetInCU: 0x39A8A, offset: 0x39A8A, size: 0x8, addend: 0x0, symName: __ZNSt3__18distanceB8ue170006IPKN3olc5PixelEEENS_15iterator_traitsIT_E15difference_typeES6_S6_, symObjAddr: 0x29870, symBinAddr: 0x10002B560, symSize: 0x2C }
  - { offsetInCU: 0x39ACD, offset: 0x39ACD, size: 0x8, addend: 0x0, symName: __ZNSt3__14nextB8ue170006IPKN3olc5PixelEEENS_9enable_ifIXsr29__has_input_iterator_categoryIT_EE5valueES6_E4typeES6_NS_15iterator_traitsIS6_E15difference_typeE, symObjAddr: 0x2989C, symBinAddr: 0x10002B58C, symSize: 0x34 }
  - { offsetInCU: 0x39B11, offset: 0x39B11, size: 0x8, addend: 0x0, symName: __ZNSt3__19__advanceB8ue170006IPKN3olc5PixelEEEvRT_NS_15iterator_traitsIS5_E15difference_typeENS_26random_access_iterator_tagE, symObjAddr: 0x2999C, symBinAddr: 0x10002B68C, symSize: 0x28 }
  - { offsetInCU: 0x39B5B, offset: 0x39B5B, size: 0x8, addend: 0x0, symName: __ZNSt3__110__distanceB8ue170006IPKN3olc5PixelEEENS_15iterator_traitsIT_E15difference_typeES6_S6_NS_26random_access_iterator_tagE, symObjAddr: 0x299C4, symBinAddr: 0x10002B6B4, symSize: 0x28 }
  - { offsetInCU: 0x39BA8, offset: 0x39BA8, size: 0x8, addend: 0x0, symName: __ZNSt3__18distanceB8ue170006IPKN3olc11v2d_genericIfEEEENS_15iterator_traitsIT_E15difference_typeES7_S7_, symObjAddr: 0x29BAC, symBinAddr: 0x10002B89C, symSize: 0x2C }
  - { offsetInCU: 0x39BEB, offset: 0x39BEB, size: 0x8, addend: 0x0, symName: __ZNSt3__14nextB8ue170006IPKN3olc11v2d_genericIfEEEENS_9enable_ifIXsr29__has_input_iterator_categoryIT_EE5valueES7_E4typeES7_NS_15iterator_traitsIS7_E15difference_typeE, symObjAddr: 0x29BD8, symBinAddr: 0x10002B8C8, symSize: 0x34 }
  - { offsetInCU: 0x39C2E, offset: 0x39C2E, size: 0x8, addend: 0x0, symName: __ZNSt3__14copyB8ue170006IPKN3olc11v2d_genericIfEEPS3_EET0_T_S8_S7_, symObjAddr: 0x29C0C, symBinAddr: 0x10002B8FC, symSize: 0x40 }
  - { offsetInCU: 0x39C88, offset: 0x39C88, size: 0x8, addend: 0x0, symName: __ZNSt3__16__copyB8ue170006INS_17_ClassicAlgPolicyEPKN3olc11v2d_genericIfEES6_PS4_EENS_4pairIT0_T2_EES9_T1_SA_, symObjAddr: 0x29C4C, symBinAddr: 0x10002B93C, symSize: 0x44 }
  - { offsetInCU: 0x39CF5, offset: 0x39CF5, size: 0x8, addend: 0x0, symName: __ZNSt3__19__advanceB8ue170006IPKN3olc11v2d_genericIfEEEEvRT_NS_15iterator_traitsIS6_E15difference_typeENS_26random_access_iterator_tagE, symObjAddr: 0x29E5C, symBinAddr: 0x10002BB4C, symSize: 0x28 }
  - { offsetInCU: 0x39D3E, offset: 0x39D3E, size: 0x8, addend: 0x0, symName: __ZNSt3__123__dispatch_copy_or_moveB8ue170006INS_17_ClassicAlgPolicyENS_11__copy_loopIS1_EENS_14__copy_trivialEPKN3olc11v2d_genericIfEES9_PS7_EENS_4pairIT2_T4_EESC_T3_SD_, symObjAddr: 0x29E84, symBinAddr: 0x10002BB74, symSize: 0x44 }
  - { offsetInCU: 0x39DBC, offset: 0x39DBC, size: 0x8, addend: 0x0, symName: __ZNSt3__121__unwrap_and_dispatchB8ue170006INS_10__overloadINS_11__copy_loopINS_17_ClassicAlgPolicyEEENS_14__copy_trivialEEEPKN3olc11v2d_genericIfEESB_PS9_Li0EEENS_4pairIT0_T2_EESE_T1_SF_, symObjAddr: 0x29EC8, symBinAddr: 0x10002BBB8, symSize: 0xB4 }
  - { offsetInCU: 0x39FF0, offset: 0x39FF0, size: 0x8, addend: 0x0, symName: __ZNSt3__19make_pairB8ue170006IPKN3olc11v2d_genericIfEEPS3_EENS_4pairINS_18__unwrap_ref_decayIT_E4typeENS8_IT0_E4typeEEEOS9_OSC_, symObjAddr: 0x2A008, symBinAddr: 0x10002BCF8, symSize: 0x38 }
  - { offsetInCU: 0x3A03F, offset: 0x3A03F, size: 0x8, addend: 0x0, symName: __ZNSt3__114__rewrap_rangeB8ue170006IPKN3olc11v2d_genericIfEES5_S5_EET0_S6_T1_, symObjAddr: 0x2A040, symBinAddr: 0x10002BD30, symSize: 0x2C }
  - { offsetInCU: 0x3A094, offset: 0x3A094, size: 0x8, addend: 0x0, symName: __ZNSt3__113__rewrap_iterB8ue170006IPKN3olc11v2d_genericIfEES5_NS_18__unwrap_iter_implIS5_Lb1EEEEET_S8_T0_, symObjAddr: 0x2A108, symBinAddr: 0x10002BDF8, symSize: 0x3C }
  - { offsetInCU: 0x3A0EA, offset: 0x3A0EA, size: 0x8, addend: 0x0, symName: __ZNSt3__110__distanceB8ue170006IPKN3olc11v2d_genericIfEEEENS_15iterator_traitsIT_E15difference_typeES7_S7_NS_26random_access_iterator_tagE, symObjAddr: 0x2A28C, symBinAddr: 0x10002BF7C, symSize: 0x28 }
  - { offsetInCU: 0x3A137, offset: 0x3A137, size: 0x8, addend: 0x0, symName: __ZNSt3__18distanceB8ue170006IPKfEENS_15iterator_traitsIT_E15difference_typeES4_S4_, symObjAddr: 0x2A4AC, symBinAddr: 0x10002C19C, symSize: 0x2C }
  - { offsetInCU: 0x3A17A, offset: 0x3A17A, size: 0x8, addend: 0x0, symName: __ZNSt3__14nextB8ue170006IPKfEENS_9enable_ifIXsr29__has_input_iterator_categoryIT_EE5valueES4_E4typeES4_NS_15iterator_traitsIS4_E15difference_typeE, symObjAddr: 0x2A540, symBinAddr: 0x10002C230, symSize: 0x34 }
  - { offsetInCU: 0x3A1BD, offset: 0x3A1BD, size: 0x8, addend: 0x0, symName: __ZNSt3__14copyB8ue170006IPKfPfEET0_T_S5_S4_, symObjAddr: 0x2A574, symBinAddr: 0x10002C264, symSize: 0x40 }
  - { offsetInCU: 0x3A217, offset: 0x3A217, size: 0x8, addend: 0x0, symName: __ZNSt3__16__copyB8ue170006INS_17_ClassicAlgPolicyEPKfS3_PfEENS_4pairIT0_T2_EES6_T1_S7_, symObjAddr: 0x2A640, symBinAddr: 0x10002C330, symSize: 0x44 }
  - { offsetInCU: 0x3A284, offset: 0x3A284, size: 0x8, addend: 0x0, symName: __ZNSt3__19__advanceB8ue170006IPKfEEvRT_NS_15iterator_traitsIS3_E15difference_typeENS_26random_access_iterator_tagE, symObjAddr: 0x2A95C, symBinAddr: 0x10002C64C, symSize: 0x28 }
  - { offsetInCU: 0x3A2CD, offset: 0x3A2CD, size: 0x8, addend: 0x0, symName: __ZNSt3__130__uninitialized_allocator_copyB8ue170006INS_9allocatorIfEEPKfS4_PfEET2_RT_T0_T1_S6_, symObjAddr: 0x2A9C0, symBinAddr: 0x10002C6B0, symSize: 0x80 }
  - { offsetInCU: 0x3A36A, offset: 0x3A36A, size: 0x8, addend: 0x0, symName: __ZNSt3__114__unwrap_rangeB8ue170006IPKfS2_EEDaT_T0_, symObjAddr: 0x2AAD8, symBinAddr: 0x10002C7C8, symSize: 0x3C }
  - { offsetInCU: 0x3A3B6, offset: 0x3A3B6, size: 0x8, addend: 0x0, symName: __ZNSt3__135__uninitialized_allocator_copy_implB8ue170006INS_9allocatorIfEEKfffLPv0EEEPT2_RT_PT0_SA_S6_, symObjAddr: 0x2AB14, symBinAddr: 0x10002C804, symSize: 0x38 }
  - { offsetInCU: 0x3A438, offset: 0x3A438, size: 0x8, addend: 0x0, symName: __ZNSt3__113__unwrap_iterB8ue170006IPfNS_18__unwrap_iter_implIS1_Lb1EEELi0EEEDTclsrT0_8__unwrapclsr3stdE7declvalIT_EEEES5_, symObjAddr: 0x2AB4C, symBinAddr: 0x10002C83C, symSize: 0x24 }
  - { offsetInCU: 0x3A47C, offset: 0x3A47C, size: 0x8, addend: 0x0, symName: __ZNSt3__113__rewrap_iterB8ue170006IPfS1_NS_18__unwrap_iter_implIS1_Lb1EEEEET_S4_T0_, symObjAddr: 0x2AB70, symBinAddr: 0x10002C860, symSize: 0x3C }
  - { offsetInCU: 0x3A5ED, offset: 0x3A5ED, size: 0x8, addend: 0x0, symName: __ZNSt3__113__unwrap_iterB8ue170006IPKfNS_18__unwrap_iter_implIS2_Lb1EEELi0EEEDTclsrT0_8__unwrapclsr3stdE7declvalIT_EEEES6_, symObjAddr: 0x2AC04, symBinAddr: 0x10002C8F4, symSize: 0x24 }
  - { offsetInCU: 0x3A685, offset: 0x3A685, size: 0x8, addend: 0x0, symName: __ZNSt3__112__to_addressB8ue170006IKfEEPT_S3_, symObjAddr: 0x2AC88, symBinAddr: 0x10002C978, symSize: 0x14 }
  - { offsetInCU: 0x3A70E, offset: 0x3A70E, size: 0x8, addend: 0x0, symName: __ZNSt3__112__to_addressB8ue170006IfEEPT_S2_, symObjAddr: 0x2ACF4, symBinAddr: 0x10002C9E4, symSize: 0x14 }
  - { offsetInCU: 0x3A743, offset: 0x3A743, size: 0x8, addend: 0x0, symName: __ZNSt3__123__dispatch_copy_or_moveB8ue170006INS_17_ClassicAlgPolicyENS_11__copy_loopIS1_EENS_14__copy_trivialEPKfS6_PfEENS_4pairIT2_T4_EES9_T3_SA_, symObjAddr: 0x2ADB0, symBinAddr: 0x10002CAA0, symSize: 0x44 }
  - { offsetInCU: 0x3A7C1, offset: 0x3A7C1, size: 0x8, addend: 0x0, symName: __ZNSt3__121__unwrap_and_dispatchB8ue170006INS_10__overloadINS_11__copy_loopINS_17_ClassicAlgPolicyEEENS_14__copy_trivialEEEPKfS8_PfLi0EEENS_4pairIT0_T2_EESB_T1_SC_, symObjAddr: 0x2ADF4, symBinAddr: 0x10002CAE4, symSize: 0xB4 }
  - { offsetInCU: 0x3A954, offset: 0x3A954, size: 0x8, addend: 0x0, symName: __ZNSt3__19make_pairB8ue170006IPKfPfEENS_4pairINS_18__unwrap_ref_decayIT_E4typeENS5_IT0_E4typeEEEOS6_OS9_, symObjAddr: 0x2AEF0, symBinAddr: 0x10002CBE0, symSize: 0x38 }
  - { offsetInCU: 0x3A9A3, offset: 0x3A9A3, size: 0x8, addend: 0x0, symName: __ZNSt3__114__rewrap_rangeB8ue170006IPKfS2_S2_EET0_S3_T1_, symObjAddr: 0x2AF28, symBinAddr: 0x10002CC18, symSize: 0x2C }
  - { offsetInCU: 0x3A9F8, offset: 0x3A9F8, size: 0x8, addend: 0x0, symName: __ZNSt3__119__copy_trivial_implB8ue170006IKffEENS_4pairIPT_PT0_EES4_S4_S6_, symObjAddr: 0x2AF54, symBinAddr: 0x10002CC44, symSize: 0x80 }
  - { offsetInCU: 0x3AA61, offset: 0x3AA61, size: 0x8, addend: 0x0, symName: __ZNSt3__119__constexpr_memmoveB8ue170006IfKfLi0EEEPT_S3_PT0_NS_15__element_countE, symObjAddr: 0x2AFD4, symBinAddr: 0x10002CCC4, symSize: 0x64 }
  - { offsetInCU: 0x3AAD0, offset: 0x3AAD0, size: 0x8, addend: 0x0, symName: __ZNSt3__19make_pairB8ue170006IRPKfPfEENS_4pairINS_18__unwrap_ref_decayIT_E4typeENS6_IT0_E4typeEEEOS7_OSA_, symObjAddr: 0x2B038, symBinAddr: 0x10002CD28, symSize: 0x38 }
  - { offsetInCU: 0x3AB1F, offset: 0x3AB1F, size: 0x8, addend: 0x0, symName: __ZNSt3__113__rewrap_iterB8ue170006IPKfS2_NS_18__unwrap_iter_implIS2_Lb1EEEEET_S5_T0_, symObjAddr: 0x2B17C, symBinAddr: 0x10002CE6C, symSize: 0x3C }
  - { offsetInCU: 0x3AB75, offset: 0x3AB75, size: 0x8, addend: 0x0, symName: __ZNSt3__110destroy_atB8ue170006IfLi0EEEvPT_, symObjAddr: 0x2B370, symBinAddr: 0x10002D060, symSize: 0x24 }
  - { offsetInCU: 0x3ABAD, offset: 0x3ABAD, size: 0x8, addend: 0x0, symName: __ZNSt3__112__destroy_atB8ue170006IfLi0EEEvPT_, symObjAddr: 0x2B394, symBinAddr: 0x10002D084, symSize: 0x10 }
  - { offsetInCU: 0x3ABE4, offset: 0x3ABE4, size: 0x8, addend: 0x0, symName: __ZNSt3__119__allocate_at_leastB8ue170006INS_9allocatorIfEEEENS_19__allocation_resultINS_16allocator_traitsIT_E7pointerEEERS5_m, symObjAddr: 0x2B660, symBinAddr: 0x10002D350, symSize: 0x40 }
  - { offsetInCU: 0x3AC28, offset: 0x3AC28, size: 0x8, addend: 0x0, symName: __ZNSt3__110__distanceB8ue170006IPKfEENS_15iterator_traitsIT_E15difference_typeES4_S4_NS_26random_access_iterator_tagE, symObjAddr: 0x2B82C, symBinAddr: 0x10002D51C, symSize: 0x28 }
  - { offsetInCU: 0x3AC9C, offset: 0x3AC9C, size: 0x8, addend: 0x0, symName: __ZNSt3__112construct_atB8ue170006IN3olc13DecalInstanceEJRKS2_EPS2_EEPT_S7_DpOT0_, symObjAddr: 0x2BAA0, symBinAddr: 0x10002D790, symSize: 0x3C }
  - { offsetInCU: 0x3AD0E, offset: 0x3AD0E, size: 0x8, addend: 0x0, symName: __ZNSt3__122__make_exception_guardB8ue170006INS_6vectorIfNS_9allocatorIfEEE16__destroy_vectorEEENS_28__exception_guard_exceptionsIT_EES7_, symObjAddr: 0x2BE70, symBinAddr: 0x10002DB60, symSize: 0x40 }
  - { offsetInCU: 0x3AD43, offset: 0x3AD43, size: 0x8, addend: 0x0, symName: __ZNSt3__130__uninitialized_allocator_copyB8ue170006INS_9allocatorIfEEPfS3_S3_EET2_RT_T0_T1_S4_, symObjAddr: 0x2C030, symBinAddr: 0x10002DD20, symSize: 0x80 }
  - { offsetInCU: 0x3ADE0, offset: 0x3ADE0, size: 0x8, addend: 0x0, symName: __ZNSt3__114__unwrap_rangeB8ue170006IPfS1_EEDaT_T0_, symObjAddr: 0x2C0B0, symBinAddr: 0x10002DDA0, symSize: 0x3C }
  - { offsetInCU: 0x3AE2C, offset: 0x3AE2C, size: 0x8, addend: 0x0, symName: __ZNSt3__135__uninitialized_allocator_copy_implB8ue170006INS_9allocatorIfEEfffLPv0EEEPT2_RT_PT0_S9_S5_, symObjAddr: 0x2C0EC, symBinAddr: 0x10002DDDC, symSize: 0x38 }
  - { offsetInCU: 0x3AFF9, offset: 0x3AFF9, size: 0x8, addend: 0x0, symName: __ZNSt3__14copyB8ue170006IPfS1_EET0_T_S3_S2_, symObjAddr: 0x2C1EC, symBinAddr: 0x10002DEDC, symSize: 0x40 }
  - { offsetInCU: 0x3B053, offset: 0x3B053, size: 0x8, addend: 0x0, symName: __ZNSt3__16__copyB8ue170006INS_17_ClassicAlgPolicyEPfS2_S2_EENS_4pairIT0_T2_EES4_T1_S5_, symObjAddr: 0x2C22C, symBinAddr: 0x10002DF1C, symSize: 0x44 }
  - { offsetInCU: 0x3B0BF, offset: 0x3B0BF, size: 0x8, addend: 0x0, symName: __ZNSt3__123__dispatch_copy_or_moveB8ue170006INS_17_ClassicAlgPolicyENS_11__copy_loopIS1_EENS_14__copy_trivialEPfS5_S5_EENS_4pairIT2_T4_EES7_T3_S8_, symObjAddr: 0x2C270, symBinAddr: 0x10002DF60, symSize: 0x44 }
  - { offsetInCU: 0x3B13D, offset: 0x3B13D, size: 0x8, addend: 0x0, symName: __ZNSt3__121__unwrap_and_dispatchB8ue170006INS_10__overloadINS_11__copy_loopINS_17_ClassicAlgPolicyEEENS_14__copy_trivialEEEPfS7_S7_Li0EEENS_4pairIT0_T2_EES9_T1_SA_, symObjAddr: 0x2C2B4, symBinAddr: 0x10002DFA4, symSize: 0xB4 }
  - { offsetInCU: 0x3B1CD, offset: 0x3B1CD, size: 0x8, addend: 0x0, symName: __ZNSt3__19make_pairB8ue170006IPfS1_EENS_4pairINS_18__unwrap_ref_decayIT_E4typeENS3_IT0_E4typeEEEOS4_OS7_, symObjAddr: 0x2C3B0, symBinAddr: 0x10002E0A0, symSize: 0x38 }
  - { offsetInCU: 0x3B21C, offset: 0x3B21C, size: 0x8, addend: 0x0, symName: __ZNSt3__114__rewrap_rangeB8ue170006IPfS1_S1_EET0_S2_T1_, symObjAddr: 0x2C3E8, symBinAddr: 0x10002E0D8, symSize: 0x2C }
  - { offsetInCU: 0x3B271, offset: 0x3B271, size: 0x8, addend: 0x0, symName: __ZNSt3__119__copy_trivial_implB8ue170006IffEENS_4pairIPT_PT0_EES3_S3_S5_, symObjAddr: 0x2C414, symBinAddr: 0x10002E104, symSize: 0x80 }
  - { offsetInCU: 0x3B2DA, offset: 0x3B2DA, size: 0x8, addend: 0x0, symName: __ZNSt3__119__constexpr_memmoveB8ue170006IffLi0EEEPT_S2_PT0_NS_15__element_countE, symObjAddr: 0x2C494, symBinAddr: 0x10002E184, symSize: 0x64 }
  - { offsetInCU: 0x3B349, offset: 0x3B349, size: 0x8, addend: 0x0, symName: __ZNSt3__19make_pairB8ue170006IRPfS1_EENS_4pairINS_18__unwrap_ref_decayIT_E4typeENS4_IT0_E4typeEEEOS5_OS8_, symObjAddr: 0x2C4F8, symBinAddr: 0x10002E1E8, symSize: 0x38 }
  - { offsetInCU: 0x3B398, offset: 0x3B398, size: 0x8, addend: 0x0, symName: __ZNSt3__119__allocate_at_leastB8ue170006INS_9allocatorIN3olc13DecalInstanceEEEEENS_19__allocation_resultINS_16allocator_traitsIT_E7pointerEEERS7_m, symObjAddr: 0x2CB60, symBinAddr: 0x10002E850, symSize: 0x40 }
  - { offsetInCU: 0x3B3DB, offset: 0x3B3DB, size: 0x8, addend: 0x0, symName: __ZNSt3__142__uninitialized_allocator_move_if_noexceptB8ue170006INS_9allocatorIN3olc13DecalInstanceEEENS_16reverse_iteratorIPS3_EES7_S7_EET2_RT_T0_T1_S8_, symObjAddr: 0x2CD18, symBinAddr: 0x10002EA08, symSize: 0x12C }
  - { offsetInCU: 0x3B47C, offset: 0x3B47C, size: 0x8, addend: 0x0, symName: __ZNSt3__14swapB8ue170006IPN3olc13DecalInstanceEEENS_9enable_ifIXaasr21is_move_constructibleIT_EE5valuesr18is_move_assignableIS5_EE5valueEvE4typeERS5_S8_, symObjAddr: 0x2CE90, symBinAddr: 0x10002EB80, symSize: 0x3C }
  - { offsetInCU: 0x3B4CE, offset: 0x3B4CE, size: 0x8, addend: 0x0, symName: __ZNSt3__122__make_exception_guardB8ue170006INS_29_AllocatorDestroyRangeReverseINS_9allocatorIN3olc13DecalInstanceEEENS_16reverse_iteratorIPS4_EEEEEENS_28__exception_guard_exceptionsIT_EESB_, symObjAddr: 0x2CF94, symBinAddr: 0x10002EC84, symSize: 0x4C }
  - { offsetInCU: 0x3B504, offset: 0x3B504, size: 0x8, addend: 0x0, symName: __ZNSt3__1neB8ue170006IPN3olc13DecalInstanceES3_EEbRKNS_16reverse_iteratorIT_EERKNS4_IT0_EE, symObjAddr: 0x2D024, symBinAddr: 0x10002ED14, symSize: 0x48 }
  - { offsetInCU: 0x3B550, offset: 0x3B550, size: 0x8, addend: 0x0, symName: __ZNSt3__112__to_addressB8ue170006INS_16reverse_iteratorIPN3olc13DecalInstanceEEEvEEu7__decayIDTclsr19__to_address_helperIT_EE6__callclsr3stdE7declvalIRKS6_EEEEES8_, symObjAddr: 0x2D09C, symBinAddr: 0x10002ED8C, symSize: 0x24 }
  - { offsetInCU: 0x3B586, offset: 0x3B586, size: 0x8, addend: 0x0, symName: __ZNSt3__112construct_atB8ue170006IN3olc13DecalInstanceEJS2_EPS2_EEPT_S5_DpOT0_, symObjAddr: 0x2D1EC, symBinAddr: 0x10002EEDC, symSize: 0x3C }
  - { offsetInCU: 0x3B621, offset: 0x3B621, size: 0x8, addend: 0x0, symName: __ZNSt3__14prevB8ue170006IPN3olc13DecalInstanceEEENS_9enable_ifIXsr29__has_input_iterator_categoryIT_EE5valueES5_E4typeES5_NS_15iterator_traitsIS5_E15difference_typeE, symObjAddr: 0x2D640, symBinAddr: 0x10002F330, symSize: 0x3C }
  - { offsetInCU: 0x3B665, offset: 0x3B665, size: 0x8, addend: 0x0, symName: __ZNSt3__19__advanceB8ue170006IPN3olc13DecalInstanceEEEvRT_NS_15iterator_traitsIS4_E15difference_typeENS_26random_access_iterator_tagE, symObjAddr: 0x2D6B4, symBinAddr: 0x10002F3A4, symSize: 0x30 }
  - { offsetInCU: 0x3B6AE, offset: 0x3B6AE, size: 0x8, addend: 0x0, symName: __ZNSt3__119__allocator_destroyB8ue170006INS_9allocatorIN3olc13DecalInstanceEEENS_16reverse_iteratorINS5_IPS3_EEEES8_EEvRT_T0_T1_, symObjAddr: 0x2D7E8, symBinAddr: 0x10002F4D8, symSize: 0x70 }
  - { offsetInCU: 0x3B713, offset: 0x3B713, size: 0x8, addend: 0x0, symName: __ZNSt3__1neB8ue170006INS_16reverse_iteratorIPN3olc13DecalInstanceEEES5_EEbRKNS1_IT_EERKNS1_IT0_EE, symObjAddr: 0x2D894, symBinAddr: 0x10002F584, symSize: 0x60 }
  - { offsetInCU: 0x3B75F, offset: 0x3B75F, size: 0x8, addend: 0x0, symName: __ZNSt3__112__to_addressB8ue170006INS_16reverse_iteratorINS1_IPN3olc13DecalInstanceEEEEEvEEu7__decayIDTclsr19__to_address_helperIT_EE6__callclsr3stdE7declvalIRKS7_EEEEES9_, symObjAddr: 0x2D8F4, symBinAddr: 0x10002F5E4, symSize: 0x24 }
  - { offsetInCU: 0x3B7BE, offset: 0x3B7BE, size: 0x8, addend: 0x0, symName: __ZNSt3__14prevB8ue170006INS_16reverse_iteratorIPN3olc13DecalInstanceEEEEENS_9enable_ifIXsr29__has_input_iterator_categoryIT_EE5valueES7_E4typeES7_NS_15iterator_traitsIS7_E15difference_typeE, symObjAddr: 0x2D9F0, symBinAddr: 0x10002F6E0, symSize: 0x4C }
  - { offsetInCU: 0x3B802, offset: 0x3B802, size: 0x8, addend: 0x0, symName: __ZNSt3__19__advanceB8ue170006INS_16reverse_iteratorIPN3olc13DecalInstanceEEEEEvRT_NS_15iterator_traitsIS6_E15difference_typeENS_26random_access_iterator_tagE, symObjAddr: 0x2DA74, symBinAddr: 0x10002F764, symSize: 0x2C }
  - { offsetInCU: 0x3B84B, offset: 0x3B84B, size: 0x8, addend: 0x0, symName: __ZNSt3__112construct_atB8ue170006IN3olc11v2d_genericIfEEJEPS3_EEPT_S6_DpOT0_, symObjAddr: 0x2E1B0, symBinAddr: 0x10002FEA0, symSize: 0x34 }
  - { offsetInCU: 0x3B8A9, offset: 0x3B8A9, size: 0x8, addend: 0x0, symName: __ZNSt3__142__uninitialized_allocator_move_if_noexceptB8ue170006INS_9allocatorIN3olc11v2d_genericIfEEEENS_16reverse_iteratorIPS4_EES8_S8_EET2_RT_T0_T1_S9_, symObjAddr: 0x2E4DC, symBinAddr: 0x1000301CC, symSize: 0x124 }
  - { offsetInCU: 0x3B94A, offset: 0x3B94A, size: 0x8, addend: 0x0, symName: __ZNSt3__14swapB8ue170006IPN3olc11v2d_genericIfEEEENS_9enable_ifIXaasr21is_move_constructibleIT_EE5valuesr18is_move_assignableIS6_EE5valueEvE4typeERS6_S9_, symObjAddr: 0x2E600, symBinAddr: 0x1000302F0, symSize: 0x3C }
  - { offsetInCU: 0x3B99C, offset: 0x3B99C, size: 0x8, addend: 0x0, symName: __ZNSt3__122__make_exception_guardB8ue170006INS_29_AllocatorDestroyRangeReverseINS_9allocatorIN3olc11v2d_genericIfEEEENS_16reverse_iteratorIPS5_EEEEEENS_28__exception_guard_exceptionsIT_EESC_, symObjAddr: 0x2E63C, symBinAddr: 0x10003032C, symSize: 0x4C }
  - { offsetInCU: 0x3B9D2, offset: 0x3B9D2, size: 0x8, addend: 0x0, symName: __ZNSt3__119__allocator_destroyB8ue170006INS_9allocatorIN3olc11v2d_genericIfEEEENS_16reverse_iteratorINS6_IPS4_EEEES9_EEvRT_T0_T1_, symObjAddr: 0x2E8DC, symBinAddr: 0x1000305CC, symSize: 0x70 }
  - { offsetInCU: 0x3BA37, offset: 0x3BA37, size: 0x8, addend: 0x0, symName: __ZNSt3__1neB8ue170006INS_16reverse_iteratorIPN3olc11v2d_genericIfEEEES6_EEbRKNS1_IT_EERKNS1_IT0_EE, symObjAddr: 0x2E988, symBinAddr: 0x100030678, symSize: 0x60 }
  - { offsetInCU: 0x3BA83, offset: 0x3BA83, size: 0x8, addend: 0x0, symName: __ZNSt3__112__to_addressB8ue170006INS_16reverse_iteratorINS1_IPN3olc11v2d_genericIfEEEEEEvEEu7__decayIDTclsr19__to_address_helperIT_EE6__callclsr3stdE7declvalIRKS8_EEEEESA_, symObjAddr: 0x2E9E8, symBinAddr: 0x1000306D8, symSize: 0x24 }
  - { offsetInCU: 0x3BAE2, offset: 0x3BAE2, size: 0x8, addend: 0x0, symName: __ZNSt3__14prevB8ue170006INS_16reverse_iteratorIPN3olc11v2d_genericIfEEEEEENS_9enable_ifIXsr29__has_input_iterator_categoryIT_EE5valueES8_E4typeES8_NS_15iterator_traitsIS8_E15difference_typeE, symObjAddr: 0x2EAE4, symBinAddr: 0x1000307D4, symSize: 0x4C }
  - { offsetInCU: 0x3BB26, offset: 0x3BB26, size: 0x8, addend: 0x0, symName: __ZNSt3__19__advanceB8ue170006INS_16reverse_iteratorIPN3olc11v2d_genericIfEEEEEEvRT_NS_15iterator_traitsIS7_E15difference_typeENS_26random_access_iterator_tagE, symObjAddr: 0x2EB68, symBinAddr: 0x100030858, symSize: 0x2C }
  - { offsetInCU: 0x3BB97, offset: 0x3BB97, size: 0x8, addend: 0x0, symName: __ZNSt3__112construct_atB8ue170006IfJEPfEEPT_S3_DpOT0_, symObjAddr: 0x2F228, symBinAddr: 0x100030F18, symSize: 0x24 }
  - { offsetInCU: 0x3BBF5, offset: 0x3BBF5, size: 0x8, addend: 0x0, symName: __ZNSt3__142__uninitialized_allocator_move_if_noexceptB8ue170006INS_9allocatorIfEENS_16reverse_iteratorIPfEES5_fvEET1_RT_T0_S9_S6_, symObjAddr: 0x2F544, symBinAddr: 0x100031234, symSize: 0x78 }
  - { offsetInCU: 0x3BC74, offset: 0x3BC74, size: 0x8, addend: 0x0, symName: __ZNSt3__14swapB8ue170006IPfEENS_9enable_ifIXaasr21is_move_constructibleIT_EE5valuesr18is_move_assignableIS3_EE5valueEvE4typeERS3_S6_, symObjAddr: 0x2F608, symBinAddr: 0x1000312F8, symSize: 0x3C }
  - { offsetInCU: 0x3BCC6, offset: 0x3BCC6, size: 0x8, addend: 0x0, symName: __ZNSt3__14moveB8ue170006INS_16reverse_iteratorIPfEES3_EET0_T_S5_S4_, symObjAddr: 0x2F644, symBinAddr: 0x100031334, symSize: 0x78 }
  - { offsetInCU: 0x3BD20, offset: 0x3BD20, size: 0x8, addend: 0x0, symName: __ZNSt3__16__moveB8ue170006INS_17_ClassicAlgPolicyENS_16reverse_iteratorIPfEES4_S4_EENS_4pairIT0_T2_EES6_T1_S7_, symObjAddr: 0x2F6BC, symBinAddr: 0x1000313AC, symSize: 0x64 }
  - { offsetInCU: 0x3BD8C, offset: 0x3BD8C, size: 0x8, addend: 0x0, symName: __ZNSt3__123__dispatch_copy_or_moveB8ue170006INS_17_ClassicAlgPolicyENS_11__move_loopIS1_EENS_14__move_trivialENS_16reverse_iteratorIPfEES7_S7_EENS_4pairIT2_T4_EES9_T3_SA_, symObjAddr: 0x2F720, symBinAddr: 0x100031410, symSize: 0x64 }
  - { offsetInCU: 0x3BE0A, offset: 0x3BE0A, size: 0x8, addend: 0x0, symName: __ZNSt3__121__unwrap_and_dispatchB8ue170006INS_10__overloadINS_11__move_loopINS_17_ClassicAlgPolicyEEENS_14__move_trivialEEENS_16reverse_iteratorIPfEES9_S9_Li0EEENS_4pairIT0_T2_EESB_T1_SC_, symObjAddr: 0x2F784, symBinAddr: 0x100031474, symSize: 0x12C }
  - { offsetInCU: 0x3BE9C, offset: 0x3BE9C, size: 0x8, addend: 0x0, symName: __ZNSt3__114__unwrap_rangeB8ue170006INS_16reverse_iteratorIPfEES3_EEDaT_T0_, symObjAddr: 0x2F8B0, symBinAddr: 0x1000315A0, symSize: 0x4C }
  - { offsetInCU: 0x3BFBC, offset: 0x3BFBC, size: 0x8, addend: 0x0, symName: __ZNSt3__113__unwrap_iterB8ue170006INS_16reverse_iteratorIPfEENS_18__unwrap_iter_implIS3_Lb0EEELi0EEEDTclsrT0_8__unwrapclsr3stdE7declvalIT_EEEES7_, symObjAddr: 0x2F99C, symBinAddr: 0x10003168C, symSize: 0x44 }
  - { offsetInCU: 0x3C000, offset: 0x3C000, size: 0x8, addend: 0x0, symName: __ZNSt3__19make_pairB8ue170006INS_16reverse_iteratorIPfEES3_EENS_4pairINS_18__unwrap_ref_decayIT_E4typeENS5_IT0_E4typeEEEOS6_OS9_, symObjAddr: 0x2F9E0, symBinAddr: 0x1000316D0, symSize: 0x38 }
  - { offsetInCU: 0x3C04F, offset: 0x3C04F, size: 0x8, addend: 0x0, symName: __ZNSt3__114__rewrap_rangeB8ue170006INS_16reverse_iteratorIPfEES3_S3_EET0_S4_T1_, symObjAddr: 0x2FA18, symBinAddr: 0x100031708, symSize: 0x5C }
  - { offsetInCU: 0x3C0A4, offset: 0x3C0A4, size: 0x8, addend: 0x0, symName: __ZNSt3__113__rewrap_iterB8ue170006INS_16reverse_iteratorIPfEES3_NS_18__unwrap_iter_implIS3_Lb0EEEEET_S6_T0_, symObjAddr: 0x2FA74, symBinAddr: 0x100031764, symSize: 0x74 }
  - { offsetInCU: 0x3C149, offset: 0x3C149, size: 0x8, addend: 0x0, symName: __ZNSt3__1neB8ue170006IPfS1_EEbRKNS_16reverse_iteratorIT_EERKNS2_IT0_EE, symObjAddr: 0x2FBDC, symBinAddr: 0x1000318CC, symSize: 0x48 }
  - { offsetInCU: 0x3C201, offset: 0x3C201, size: 0x8, addend: 0x0, symName: __ZNSt3__1neB8ue170006IPKN3olc5PixelEEEbRKNS_11__wrap_iterIT_EES9_, symObjAddr: 0x30034, symBinAddr: 0x100031D24, symSize: 0x34 }
  - { offsetInCU: 0x3C244, offset: 0x3C244, size: 0x8, addend: 0x0, symName: __ZNSt3__1eqB8ue170006IPKN3olc5PixelEEEbRKNS_11__wrap_iterIT_EES9_, symObjAddr: 0x30118, symBinAddr: 0x100031E08, symSize: 0x48 }
  - { offsetInCU: 0x3C2AE, offset: 0x3C2AE, size: 0x8, addend: 0x0, symName: __ZNSt3__112construct_atB8ue170006INS_12basic_stringIcNS_11char_traitsIcEENS_9allocatorIcEEEEJEPS6_EEPT_S9_DpOT0_, symObjAddr: 0x30990, symBinAddr: 0x100032680, symSize: 0x34 }
  - { offsetInCU: 0x3C30C, offset: 0x3C30C, size: 0x8, addend: 0x0, symName: __ZNSt3__119__allocate_at_leastB8ue170006INS_9allocatorINS_12basic_stringIcNS_11char_traitsIcEENS1_IcEEEEEEEENS_19__allocation_resultINS_16allocator_traitsIT_E7pointerEEERSA_m, symObjAddr: 0x30C04, symBinAddr: 0x1000328F4, symSize: 0x40 }
  - { offsetInCU: 0x3C34F, offset: 0x3C34F, size: 0x8, addend: 0x0, symName: __ZNSt3__142__uninitialized_allocator_move_if_noexceptB8ue170006INS_9allocatorINS_12basic_stringIcNS_11char_traitsIcEENS1_IcEEEEEENS_16reverse_iteratorIPS6_EESA_SA_EET2_RT_T0_T1_SB_, symObjAddr: 0x30E90, symBinAddr: 0x100032B80, symSize: 0x12C }
  - { offsetInCU: 0x3C3F0, offset: 0x3C3F0, size: 0x8, addend: 0x0, symName: __ZNSt3__14swapB8ue170006IPNS_12basic_stringIcNS_11char_traitsIcEENS_9allocatorIcEEEEEENS_9enable_ifIXaasr21is_move_constructibleIT_EE5valuesr18is_move_assignableIS9_EE5valueEvE4typeERS9_SC_, symObjAddr: 0x31008, symBinAddr: 0x100032CF8, symSize: 0x3C }
  - { offsetInCU: 0x3C442, offset: 0x3C442, size: 0x8, addend: 0x0, symName: __ZNSt3__122__make_exception_guardB8ue170006INS_29_AllocatorDestroyRangeReverseINS_9allocatorINS_12basic_stringIcNS_11char_traitsIcEENS2_IcEEEEEENS_16reverse_iteratorIPS7_EEEEEENS_28__exception_guard_exceptionsIT_EESE_, symObjAddr: 0x3110C, symBinAddr: 0x100032DFC, symSize: 0x4C }
  - { offsetInCU: 0x3C478, offset: 0x3C478, size: 0x8, addend: 0x0, symName: __ZNSt3__1neB8ue170006IPNS_12basic_stringIcNS_11char_traitsIcEENS_9allocatorIcEEEES7_EEbRKNS_16reverse_iteratorIT_EERKNS8_IT0_EE, symObjAddr: 0x3119C, symBinAddr: 0x100032E8C, symSize: 0x48 }
  - { offsetInCU: 0x3C4C4, offset: 0x3C4C4, size: 0x8, addend: 0x0, symName: __ZNSt3__112__to_addressB8ue170006INS_16reverse_iteratorIPNS_12basic_stringIcNS_11char_traitsIcEENS_9allocatorIcEEEEEEvEEu7__decayIDTclsr19__to_address_helperIT_EE6__callclsr3stdE7declvalIRKSA_EEEEESC_, symObjAddr: 0x31214, symBinAddr: 0x100032F04, symSize: 0x24 }
  - { offsetInCU: 0x3C4FA, offset: 0x3C4FA, size: 0x8, addend: 0x0, symName: __ZNSt3__112construct_atB8ue170006INS_12basic_stringIcNS_11char_traitsIcEENS_9allocatorIcEEEEJS6_EPS6_EEPT_S9_DpOT0_, symObjAddr: 0x31364, symBinAddr: 0x100033054, symSize: 0x3C }
  - { offsetInCU: 0x3C595, offset: 0x3C595, size: 0x8, addend: 0x0, symName: __ZNSt3__14prevB8ue170006IPNS_12basic_stringIcNS_11char_traitsIcEENS_9allocatorIcEEEEEENS_9enable_ifIXsr29__has_input_iterator_categoryIT_EE5valueES9_E4typeES9_NS_15iterator_traitsIS9_E15difference_typeE, symObjAddr: 0x31480, symBinAddr: 0x100033170, symSize: 0x3C }
  - { offsetInCU: 0x3C5D9, offset: 0x3C5D9, size: 0x8, addend: 0x0, symName: __ZNSt3__19__advanceB8ue170006IPNS_12basic_stringIcNS_11char_traitsIcEENS_9allocatorIcEEEEEEvRT_NS_15iterator_traitsIS8_E15difference_typeENS_26random_access_iterator_tagE, symObjAddr: 0x314F4, symBinAddr: 0x1000331E4, symSize: 0x30 }
  - { offsetInCU: 0x3C622, offset: 0x3C622, size: 0x8, addend: 0x0, symName: __ZNSt3__119__allocator_destroyB8ue170006INS_9allocatorINS_12basic_stringIcNS_11char_traitsIcEENS1_IcEEEEEENS_16reverse_iteratorINS8_IPS6_EEEESB_EEvRT_T0_T1_, symObjAddr: 0x31628, symBinAddr: 0x100033318, symSize: 0x70 }
  - { offsetInCU: 0x3C687, offset: 0x3C687, size: 0x8, addend: 0x0, symName: __ZNSt3__1neB8ue170006INS_16reverse_iteratorIPNS_12basic_stringIcNS_11char_traitsIcEENS_9allocatorIcEEEEEES9_EEbRKNS1_IT_EERKNS1_IT0_EE, symObjAddr: 0x316D4, symBinAddr: 0x1000333C4, symSize: 0x60 }
  - { offsetInCU: 0x3C6D3, offset: 0x3C6D3, size: 0x8, addend: 0x0, symName: __ZNSt3__112__to_addressB8ue170006INS_16reverse_iteratorINS1_IPNS_12basic_stringIcNS_11char_traitsIcEENS_9allocatorIcEEEEEEEEvEEu7__decayIDTclsr19__to_address_helperIT_EE6__callclsr3stdE7declvalIRKSB_EEEEESD_, symObjAddr: 0x31734, symBinAddr: 0x100033424, symSize: 0x24 }
  - { offsetInCU: 0x3C732, offset: 0x3C732, size: 0x8, addend: 0x0, symName: __ZNSt3__14prevB8ue170006INS_16reverse_iteratorIPNS_12basic_stringIcNS_11char_traitsIcEENS_9allocatorIcEEEEEEEENS_9enable_ifIXsr29__has_input_iterator_categoryIT_EE5valueESB_E4typeESB_NS_15iterator_traitsISB_E15difference_typeE, symObjAddr: 0x31830, symBinAddr: 0x100033520, symSize: 0x4C }
  - { offsetInCU: 0x3C776, offset: 0x3C776, size: 0x8, addend: 0x0, symName: __ZNSt3__19__advanceB8ue170006INS_16reverse_iteratorIPNS_12basic_stringIcNS_11char_traitsIcEENS_9allocatorIcEEEEEEEEvRT_NS_15iterator_traitsISA_E15difference_typeENS_26random_access_iterator_tagE, symObjAddr: 0x318B4, symBinAddr: 0x1000335A4, symSize: 0x2C }
  - { offsetInCU: 0x3C7BF, offset: 0x3C7BF, size: 0x8, addend: 0x0, symName: __ZNSt3__1eqB8ue170006IPNS_5tupleIJN3olc3KeyENS_12basic_stringIcNS_11char_traitsIcEENS_9allocatorIcEEEES9_EEEEEbRKNS_11__wrap_iterIT_EESG_, symObjAddr: 0x31BF4, symBinAddr: 0x1000338E4, symSize: 0x48 }
  - { offsetInCU: 0x3C802, offset: 0x3C802, size: 0x8, addend: 0x0, symName: __ZNSt3__18distanceB8ue170006IPNS_12basic_stringIcNS_11char_traitsIcEENS_9allocatorIcEEEEEENS_15iterator_traitsIT_E15difference_typeES9_S9_, symObjAddr: 0x31F64, symBinAddr: 0x100033C54, symSize: 0x2C }
  - { offsetInCU: 0x3C845, offset: 0x3C845, size: 0x8, addend: 0x0, symName: __ZNSt3__14nextB8ue170006IPNS_12basic_stringIcNS_11char_traitsIcEENS_9allocatorIcEEEEEENS_9enable_ifIXsr29__has_input_iterator_categoryIT_EE5valueES9_E4typeES9_NS_15iterator_traitsIS9_E15difference_typeE, symObjAddr: 0x31F90, symBinAddr: 0x100033C80, symSize: 0x34 }
  - { offsetInCU: 0x3C888, offset: 0x3C888, size: 0x8, addend: 0x0, symName: __ZNSt3__14copyB8ue170006IPNS_12basic_stringIcNS_11char_traitsIcEENS_9allocatorIcEEEES7_EET0_T_S9_S8_, symObjAddr: 0x31FC4, symBinAddr: 0x100033CB4, symSize: 0x40 }
  - { offsetInCU: 0x3C8E2, offset: 0x3C8E2, size: 0x8, addend: 0x0, symName: __ZNSt3__16__copyB8ue170006INS_17_ClassicAlgPolicyEPNS_12basic_stringIcNS_11char_traitsIcEENS_9allocatorIcEEEES8_S8_EENS_4pairIT0_T2_EESA_T1_SB_, symObjAddr: 0x32090, symBinAddr: 0x100033D80, symSize: 0x44 }
  - { offsetInCU: 0x3C94E, offset: 0x3C94E, size: 0x8, addend: 0x0, symName: __ZNSt3__130__uninitialized_allocator_copyB8ue170006INS_9allocatorINS_12basic_stringIcNS_11char_traitsIcEENS1_IcEEEEEEPS6_S8_S8_EET2_RT_T0_T1_S9_, symObjAddr: 0x3221C, symBinAddr: 0x100033F0C, symSize: 0x80 }
  - { offsetInCU: 0x3C9EB, offset: 0x3C9EB, size: 0x8, addend: 0x0, symName: __ZNSt3__114__unwrap_rangeB8ue170006IPNS_12basic_stringIcNS_11char_traitsIcEENS_9allocatorIcEEEES7_EEDaT_T0_, symObjAddr: 0x3229C, symBinAddr: 0x100033F8C, symSize: 0x3C }
  - { offsetInCU: 0x3CA37, offset: 0x3CA37, size: 0x8, addend: 0x0, symName: __ZNSt3__135__uninitialized_allocator_copy_implB8ue170006INS_9allocatorINS_12basic_stringIcNS_11char_traitsIcEENS1_IcEEEEEEPS6_S8_S8_EET2_RT_T0_T1_S9_, symObjAddr: 0x322D8, symBinAddr: 0x100033FC8, symSize: 0xF4 }
  - { offsetInCU: 0x3CAD5, offset: 0x3CAD5, size: 0x8, addend: 0x0, symName: __ZNSt3__113__unwrap_iterB8ue170006IPNS_12basic_stringIcNS_11char_traitsIcEENS_9allocatorIcEEEENS_18__unwrap_iter_implIS7_Lb1EEELi0EEEDTclsrT0_8__unwrapclsr3stdE7declvalIT_EEEESB_, symObjAddr: 0x323CC, symBinAddr: 0x1000340BC, symSize: 0x24 }
  - { offsetInCU: 0x3CB19, offset: 0x3CB19, size: 0x8, addend: 0x0, symName: __ZNSt3__113__rewrap_iterB8ue170006IPNS_12basic_stringIcNS_11char_traitsIcEENS_9allocatorIcEEEES7_NS_18__unwrap_iter_implIS7_Lb1EEEEET_SA_T0_, symObjAddr: 0x323F0, symBinAddr: 0x1000340E0, symSize: 0x3C }
  - { offsetInCU: 0x3CC92, offset: 0x3CC92, size: 0x8, addend: 0x0, symName: __ZNSt3__122__make_exception_guardB8ue170006INS_29_AllocatorDestroyRangeReverseINS_9allocatorINS_12basic_stringIcNS_11char_traitsIcEENS2_IcEEEEEEPS7_EEEENS_28__exception_guard_exceptionsIT_EESC_, symObjAddr: 0x324F4, symBinAddr: 0x1000341E4, symSize: 0x4C }
  - { offsetInCU: 0x3CCC8, offset: 0x3CCC8, size: 0x8, addend: 0x0, symName: __ZNSt3__112construct_atB8ue170006INS_12basic_stringIcNS_11char_traitsIcEENS_9allocatorIcEEEEJRS6_EPS6_EEPT_SA_DpOT0_, symObjAddr: 0x32698, symBinAddr: 0x100034388, symSize: 0x3C }
  - { offsetInCU: 0x3CD3A, offset: 0x3CD3A, size: 0x8, addend: 0x0, symName: __ZNSt3__119__allocator_destroyB8ue170006INS_9allocatorINS_12basic_stringIcNS_11char_traitsIcEENS1_IcEEEEEENS_16reverse_iteratorIPS6_EESA_EEvRT_T0_T1_, symObjAddr: 0x3278C, symBinAddr: 0x10003447C, symSize: 0x70 }
  - { offsetInCU: 0x3CDF0, offset: 0x3CDF0, size: 0x8, addend: 0x0, symName: __ZNSt3__123__dispatch_copy_or_moveB8ue170006INS_17_ClassicAlgPolicyENS_11__copy_loopIS1_EENS_14__copy_trivialEPNS_12basic_stringIcNS_11char_traitsIcEENS_9allocatorIcEEEESB_SB_EENS_4pairIT2_T4_EESD_T3_SE_, symObjAddr: 0x32878, symBinAddr: 0x100034568, symSize: 0x44 }
  - { offsetInCU: 0x3CE6E, offset: 0x3CE6E, size: 0x8, addend: 0x0, symName: __ZNSt3__121__unwrap_and_dispatchB8ue170006INS_10__overloadINS_11__copy_loopINS_17_ClassicAlgPolicyEEENS_14__copy_trivialEEEPNS_12basic_stringIcNS_11char_traitsIcEENS_9allocatorIcEEEESD_SD_Li0EEENS_4pairIT0_T2_EESF_T1_SG_, symObjAddr: 0x328BC, symBinAddr: 0x1000345AC, symSize: 0xB4 }
  - { offsetInCU: 0x3CEFE, offset: 0x3CEFE, size: 0x8, addend: 0x0, symName: __ZNSt3__19make_pairB8ue170006IPNS_12basic_stringIcNS_11char_traitsIcEENS_9allocatorIcEEEES7_EENS_4pairINS_18__unwrap_ref_decayIT_E4typeENS9_IT0_E4typeEEEOSA_OSD_, symObjAddr: 0x329F8, symBinAddr: 0x1000346E8, symSize: 0x38 }
  - { offsetInCU: 0x3CF4D, offset: 0x3CF4D, size: 0x8, addend: 0x0, symName: __ZNSt3__114__rewrap_rangeB8ue170006IPNS_12basic_stringIcNS_11char_traitsIcEENS_9allocatorIcEEEES7_S7_EET0_S8_T1_, symObjAddr: 0x32A30, symBinAddr: 0x100034720, symSize: 0x2C }
  - { offsetInCU: 0x3CFA3, offset: 0x3CFA3, size: 0x8, addend: 0x0, symName: __ZNSt3__110__distanceB8ue170006IPNS_12basic_stringIcNS_11char_traitsIcEENS_9allocatorIcEEEEEENS_15iterator_traitsIT_E15difference_typeES9_S9_NS_26random_access_iterator_tagE, symObjAddr: 0x32A88, symBinAddr: 0x100034778, symSize: 0x28 }
  - { offsetInCU: 0x3CFF0, offset: 0x3CFF0, size: 0x8, addend: 0x0, symName: __ZNSt3__14prevB8ue170006INS_11__wrap_iterIPN3olc9LayerDescEEEEENS_9enable_ifIXsr29__has_input_iterator_categoryIT_EE5valueES7_E4typeES7_NS_15iterator_traitsIS7_E15difference_typeE, symObjAddr: 0x32D88, symBinAddr: 0x100034A78, symSize: 0x44 }
  - { offsetInCU: 0x3D034, offset: 0x3D034, size: 0x8, addend: 0x0, symName: __ZNSt3__19__advanceB8ue170006INS_11__wrap_iterIPN3olc9LayerDescEEEEEvRT_NS_15iterator_traitsIS6_E15difference_typeENS_26random_access_iterator_tagE, symObjAddr: 0x32E2C, symBinAddr: 0x100034B1C, symSize: 0x2C }
  - { offsetInCU: 0x3D07D, offset: 0x3D07D, size: 0x8, addend: 0x0, symName: __ZNSt3__1eqB8ue170006IPN3olc13DecalInstanceEEEbRKNS_11__wrap_iterIT_EES8_, symObjAddr: 0x32F0C, symBinAddr: 0x100034BFC, symSize: 0x48 }
  - { offsetInCU: 0x3D0E7, offset: 0x3D0E7, size: 0x8, addend: 0x0, symName: __ZNSt3__112construct_atB8ue170006IN3olc11v2d_genericIiEEJS3_EPS3_EEPT_S6_DpOT0_, symObjAddr: 0x33314, symBinAddr: 0x100035004, symSize: 0x3C }
  - { offsetInCU: 0x3D159, offset: 0x3D159, size: 0x8, addend: 0x0, symName: __ZNSt3__119__allocate_at_leastB8ue170006INS_9allocatorIN3olc11v2d_genericIiEEEEEENS_19__allocation_resultINS_16allocator_traitsIT_E7pointerEEERS8_m, symObjAddr: 0x337B8, symBinAddr: 0x1000354A8, symSize: 0x40 }
  - { offsetInCU: 0x3D19C, offset: 0x3D19C, size: 0x8, addend: 0x0, symName: __ZNSt3__142__uninitialized_allocator_move_if_noexceptB8ue170006INS_9allocatorIN3olc11v2d_genericIiEEEENS_16reverse_iteratorIPS4_EES8_S8_EET2_RT_T0_T1_S9_, symObjAddr: 0x3396C, symBinAddr: 0x10003565C, symSize: 0x12C }
  - { offsetInCU: 0x3D23D, offset: 0x3D23D, size: 0x8, addend: 0x0, symName: __ZNSt3__14swapB8ue170006IPN3olc11v2d_genericIiEEEENS_9enable_ifIXaasr21is_move_constructibleIT_EE5valuesr18is_move_assignableIS6_EE5valueEvE4typeERS6_S9_, symObjAddr: 0x33AE4, symBinAddr: 0x1000357D4, symSize: 0x3C }
  - { offsetInCU: 0x3D28F, offset: 0x3D28F, size: 0x8, addend: 0x0, symName: __ZNSt3__122__make_exception_guardB8ue170006INS_29_AllocatorDestroyRangeReverseINS_9allocatorIN3olc11v2d_genericIiEEEENS_16reverse_iteratorIPS5_EEEEEENS_28__exception_guard_exceptionsIT_EESC_, symObjAddr: 0x33BCC, symBinAddr: 0x1000358BC, symSize: 0x4C }
  - { offsetInCU: 0x3D2C5, offset: 0x3D2C5, size: 0x8, addend: 0x0, symName: __ZNSt3__1neB8ue170006IPN3olc11v2d_genericIiEES4_EEbRKNS_16reverse_iteratorIT_EERKNS5_IT0_EE, symObjAddr: 0x33C5C, symBinAddr: 0x10003594C, symSize: 0x48 }
  - { offsetInCU: 0x3D311, offset: 0x3D311, size: 0x8, addend: 0x0, symName: __ZNSt3__112__to_addressB8ue170006INS_16reverse_iteratorIPN3olc11v2d_genericIiEEEEvEEu7__decayIDTclsr19__to_address_helperIT_EE6__callclsr3stdE7declvalIRKS7_EEEEES9_, symObjAddr: 0x33CD4, symBinAddr: 0x1000359C4, symSize: 0x24 }
  - { offsetInCU: 0x3D347, offset: 0x3D347, size: 0x8, addend: 0x0, symName: __ZNSt3__112construct_atB8ue170006IN3olc11v2d_genericIiEEJRKS3_EPS3_EEPT_S8_DpOT0_, symObjAddr: 0x33E24, symBinAddr: 0x100035B14, symSize: 0x3C }
  - { offsetInCU: 0x3D3E2, offset: 0x3D3E2, size: 0x8, addend: 0x0, symName: __ZNSt3__14prevB8ue170006IPN3olc11v2d_genericIiEEEENS_9enable_ifIXsr29__has_input_iterator_categoryIT_EE5valueES6_E4typeES6_NS_15iterator_traitsIS6_E15difference_typeE, symObjAddr: 0x33EC4, symBinAddr: 0x100035BB4, symSize: 0x3C }
  - { offsetInCU: 0x3D426, offset: 0x3D426, size: 0x8, addend: 0x0, symName: __ZNSt3__19__advanceB8ue170006IPN3olc11v2d_genericIiEEEEvRT_NS_15iterator_traitsIS5_E15difference_typeENS_26random_access_iterator_tagE, symObjAddr: 0x33F38, symBinAddr: 0x100035C28, symSize: 0x28 }
  - { offsetInCU: 0x3D46F, offset: 0x3D46F, size: 0x8, addend: 0x0, symName: __ZNSt3__119__allocator_destroyB8ue170006INS_9allocatorIN3olc11v2d_genericIiEEEENS_16reverse_iteratorINS6_IPS4_EEEES9_EEvRT_T0_T1_, symObjAddr: 0x34064, symBinAddr: 0x100035D54, symSize: 0x70 }
  - { offsetInCU: 0x3D4D4, offset: 0x3D4D4, size: 0x8, addend: 0x0, symName: __ZNSt3__1neB8ue170006INS_16reverse_iteratorIPN3olc11v2d_genericIiEEEES6_EEbRKNS1_IT_EERKNS1_IT0_EE, symObjAddr: 0x34110, symBinAddr: 0x100035E00, symSize: 0x60 }
  - { offsetInCU: 0x3D520, offset: 0x3D520, size: 0x8, addend: 0x0, symName: __ZNSt3__112__to_addressB8ue170006INS_16reverse_iteratorINS1_IPN3olc11v2d_genericIiEEEEEEvEEu7__decayIDTclsr19__to_address_helperIT_EE6__callclsr3stdE7declvalIRKS8_EEEEESA_, symObjAddr: 0x34170, symBinAddr: 0x100035E60, symSize: 0x24 }
  - { offsetInCU: 0x3D57F, offset: 0x3D57F, size: 0x8, addend: 0x0, symName: __ZNSt3__14prevB8ue170006INS_16reverse_iteratorIPN3olc11v2d_genericIiEEEEEENS_9enable_ifIXsr29__has_input_iterator_categoryIT_EE5valueES8_E4typeES8_NS_15iterator_traitsIS8_E15difference_typeE, symObjAddr: 0x3426C, symBinAddr: 0x100035F5C, symSize: 0x4C }
  - { offsetInCU: 0x3D5C3, offset: 0x3D5C3, size: 0x8, addend: 0x0, symName: __ZNSt3__19__advanceB8ue170006INS_16reverse_iteratorIPN3olc11v2d_genericIiEEEEEEvRT_NS_15iterator_traitsIS7_E15difference_typeENS_26random_access_iterator_tagE, symObjAddr: 0x342F0, symBinAddr: 0x100035FE0, symSize: 0x2C }
  - { offsetInCU: 0x3D646, offset: 0x3D646, size: 0x8, addend: 0x0, symName: __ZNSt3__18distanceB8ue170006IPKNS_5tupleIJN3olc3KeyENS_12basic_stringIcNS_11char_traitsIcEENS_9allocatorIcEEEES9_EEEEENS_15iterator_traitsIT_E15difference_typeESE_SE_, symObjAddr: 0x34A30, symBinAddr: 0x100036720, symSize: 0x2C }
  - { offsetInCU: 0x3D689, offset: 0x3D689, size: 0x8, addend: 0x0, symName: __ZNSt3__14nextB8ue170006IPKNS_5tupleIJN3olc3KeyENS_12basic_stringIcNS_11char_traitsIcEENS_9allocatorIcEEEES9_EEEEENS_9enable_ifIXsr29__has_input_iterator_categoryIT_EE5valueESE_E4typeESE_NS_15iterator_traitsISE_E15difference_typeE, symObjAddr: 0x34A5C, symBinAddr: 0x10003674C, symSize: 0x34 }
  - { offsetInCU: 0x3D6CC, offset: 0x3D6CC, size: 0x8, addend: 0x0, symName: __ZNSt3__14copyB8ue170006IPKNS_5tupleIJN3olc3KeyENS_12basic_stringIcNS_11char_traitsIcEENS_9allocatorIcEEEES9_EEEPSA_EET0_T_SF_SE_, symObjAddr: 0x34A90, symBinAddr: 0x100036780, symSize: 0x40 }
  - { offsetInCU: 0x3D726, offset: 0x3D726, size: 0x8, addend: 0x0, symName: __ZNSt3__16__copyB8ue170006INS_17_ClassicAlgPolicyEPKNS_5tupleIJN3olc3KeyENS_12basic_stringIcNS_11char_traitsIcEENS_9allocatorIcEEEESA_EEESD_PSB_EENS_4pairIT0_T2_EESG_T1_SH_, symObjAddr: 0x34B5C, symBinAddr: 0x10003684C, symSize: 0x44 }
  - { offsetInCU: 0x3D793, offset: 0x3D793, size: 0x8, addend: 0x0, symName: __ZNSt3__19__advanceB8ue170006IPKNS_5tupleIJN3olc3KeyENS_12basic_stringIcNS_11char_traitsIcEENS_9allocatorIcEEEES9_EEEEEvRT_NS_15iterator_traitsISD_E15difference_typeENS_26random_access_iterator_tagE, symObjAddr: 0x34E20, symBinAddr: 0x100036B10, symSize: 0x30 }
  - { offsetInCU: 0x3D7DC, offset: 0x3D7DC, size: 0x8, addend: 0x0, symName: __ZNSt3__130__uninitialized_allocator_copyB8ue170006INS_9allocatorINS_5tupleIJN3olc3KeyENS_12basic_stringIcNS_11char_traitsIcEENS1_IcEEEES9_EEEEEPKSA_SD_PSA_EET2_RT_T0_T1_SF_, symObjAddr: 0x34E8C, symBinAddr: 0x100036B7C, symSize: 0x80 }
  - { offsetInCU: 0x3D879, offset: 0x3D879, size: 0x8, addend: 0x0, symName: __ZNSt3__114__unwrap_rangeB8ue170006IPKNS_5tupleIJN3olc3KeyENS_12basic_stringIcNS_11char_traitsIcEENS_9allocatorIcEEEES9_EEESC_EEDaT_T0_, symObjAddr: 0x34F84, symBinAddr: 0x100036C74, symSize: 0x3C }
  - { offsetInCU: 0x3D8C5, offset: 0x3D8C5, size: 0x8, addend: 0x0, symName: __ZNSt3__135__uninitialized_allocator_copy_implB8ue170006INS_9allocatorINS_5tupleIJN3olc3KeyENS_12basic_stringIcNS_11char_traitsIcEENS1_IcEEEES9_EEEEEPKSA_SD_PSA_EET2_RT_T0_T1_SF_, symObjAddr: 0x34FC0, symBinAddr: 0x100036CB0, symSize: 0xF4 }
  - { offsetInCU: 0x3D963, offset: 0x3D963, size: 0x8, addend: 0x0, symName: __ZNSt3__113__unwrap_iterB8ue170006IPNS_5tupleIJN3olc3KeyENS_12basic_stringIcNS_11char_traitsIcEENS_9allocatorIcEEEES9_EEENS_18__unwrap_iter_implISB_Lb1EEELi0EEEDTclsrT0_8__unwrapclsr3stdE7declvalIT_EEEESF_, symObjAddr: 0x350B4, symBinAddr: 0x100036DA4, symSize: 0x24 }
  - { offsetInCU: 0x3D9A7, offset: 0x3D9A7, size: 0x8, addend: 0x0, symName: __ZNSt3__113__rewrap_iterB8ue170006IPNS_5tupleIJN3olc3KeyENS_12basic_stringIcNS_11char_traitsIcEENS_9allocatorIcEEEES9_EEESB_NS_18__unwrap_iter_implISB_Lb1EEEEET_SE_T0_, symObjAddr: 0x350D8, symBinAddr: 0x100036DC8, symSize: 0x3C }
  - { offsetInCU: 0x3DB18, offset: 0x3DB18, size: 0x8, addend: 0x0, symName: __ZNSt3__113__unwrap_iterB8ue170006IPKNS_5tupleIJN3olc3KeyENS_12basic_stringIcNS_11char_traitsIcEENS_9allocatorIcEEEES9_EEENS_18__unwrap_iter_implISC_Lb1EEELi0EEEDTclsrT0_8__unwrapclsr3stdE7declvalIT_EEEESG_, symObjAddr: 0x3516C, symBinAddr: 0x100036E5C, symSize: 0x24 }
  - { offsetInCU: 0x3DBB0, offset: 0x3DBB0, size: 0x8, addend: 0x0, symName: __ZNSt3__112__to_addressB8ue170006IKNS_5tupleIJN3olc3KeyENS_12basic_stringIcNS_11char_traitsIcEENS_9allocatorIcEEEES9_EEEEEPT_SD_, symObjAddr: 0x351F0, symBinAddr: 0x100036EE0, symSize: 0x14 }
  - { offsetInCU: 0x3DBE5, offset: 0x3DBE5, size: 0x8, addend: 0x0, symName: __ZNSt3__122__make_exception_guardB8ue170006INS_29_AllocatorDestroyRangeReverseINS_9allocatorINS_5tupleIJN3olc3KeyENS_12basic_stringIcNS_11char_traitsIcEENS2_IcEEEESA_EEEEEPSB_EEEENS_28__exception_guard_exceptionsIT_EESG_, symObjAddr: 0x35238, symBinAddr: 0x100036F28, symSize: 0x4C }
  - { offsetInCU: 0x3DC42, offset: 0x3DC42, size: 0x8, addend: 0x0, symName: __ZNSt3__112construct_atB8ue170006INS_5tupleIJN3olc3KeyENS_12basic_stringIcNS_11char_traitsIcEENS_9allocatorIcEEEES9_EEEJRKSA_EPSA_EEPT_SF_DpOT0_, symObjAddr: 0x353DC, symBinAddr: 0x1000370CC, symSize: 0x3C }
  - { offsetInCU: 0x3DCB4, offset: 0x3DCB4, size: 0x8, addend: 0x0, symName: __ZNSt3__119__allocator_destroyB8ue170006INS_9allocatorINS_5tupleIJN3olc3KeyENS_12basic_stringIcNS_11char_traitsIcEENS1_IcEEEES9_EEEEENS_16reverse_iteratorIPSA_EESE_EEvRT_T0_T1_, symObjAddr: 0x35658, symBinAddr: 0x100037348, symSize: 0x70 }
  - { offsetInCU: 0x3DD17, offset: 0x3DD17, size: 0x8, addend: 0x0, symName: __ZNSt3__1neB8ue170006IPNS_5tupleIJN3olc3KeyENS_12basic_stringIcNS_11char_traitsIcEENS_9allocatorIcEEEES9_EEESB_EEbRKNS_16reverse_iteratorIT_EERKNSC_IT0_EE, symObjAddr: 0x356FC, symBinAddr: 0x1000373EC, symSize: 0x48 }
  - { offsetInCU: 0x3DD63, offset: 0x3DD63, size: 0x8, addend: 0x0, symName: __ZNSt3__112__to_addressB8ue170006INS_16reverse_iteratorIPNS_5tupleIJN3olc3KeyENS_12basic_stringIcNS_11char_traitsIcEENS_9allocatorIcEEEESA_EEEEEvEEu7__decayIDTclsr19__to_address_helperIT_EE6__callclsr3stdE7declvalIRKSE_EEEEESG_, symObjAddr: 0x35744, symBinAddr: 0x100037434, symSize: 0x24 }
  - { offsetInCU: 0x3DDC2, offset: 0x3DDC2, size: 0x8, addend: 0x0, symName: __ZNSt3__14prevB8ue170006IPNS_5tupleIJN3olc3KeyENS_12basic_stringIcNS_11char_traitsIcEENS_9allocatorIcEEEES9_EEEEENS_9enable_ifIXsr29__has_input_iterator_categoryIT_EE5valueESD_E4typeESD_NS_15iterator_traitsISD_E15difference_typeE, symObjAddr: 0x35804, symBinAddr: 0x1000374F4, symSize: 0x3C }
  - { offsetInCU: 0x3DE06, offset: 0x3DE06, size: 0x8, addend: 0x0, symName: __ZNSt3__19__advanceB8ue170006IPNS_5tupleIJN3olc3KeyENS_12basic_stringIcNS_11char_traitsIcEENS_9allocatorIcEEEES9_EEEEEvRT_NS_15iterator_traitsISC_E15difference_typeENS_26random_access_iterator_tagE, symObjAddr: 0x35878, symBinAddr: 0x100037568, symSize: 0x30 }
  - { offsetInCU: 0x3DEA2, offset: 0x3DEA2, size: 0x8, addend: 0x0, symName: __ZNSt3__123__dispatch_copy_or_moveB8ue170006INS_17_ClassicAlgPolicyENS_11__copy_loopIS1_EENS_14__copy_trivialEPKNS_5tupleIJN3olc3KeyENS_12basic_stringIcNS_11char_traitsIcEENS_9allocatorIcEEEESD_EEESG_PSE_EENS_4pairIT2_T4_EESJ_T3_SK_, symObjAddr: 0x3596C, symBinAddr: 0x10003765C, symSize: 0x44 }
  - { offsetInCU: 0x3DF20, offset: 0x3DF20, size: 0x8, addend: 0x0, symName: __ZNSt3__121__unwrap_and_dispatchB8ue170006INS_10__overloadINS_11__copy_loopINS_17_ClassicAlgPolicyEEENS_14__copy_trivialEEEPKNS_5tupleIJN3olc3KeyENS_12basic_stringIcNS_11char_traitsIcEENS_9allocatorIcEEEESF_EEESI_PSG_Li0EEENS_4pairIT0_T2_EESL_T1_SM_, symObjAddr: 0x359B0, symBinAddr: 0x1000376A0, symSize: 0xB4 }
  - { offsetInCU: 0x3E084, offset: 0x3E084, size: 0x8, addend: 0x0, symName: __ZNSt3__19make_pairB8ue170006IPKNS_5tupleIJN3olc3KeyENS_12basic_stringIcNS_11char_traitsIcEENS_9allocatorIcEEEES9_EEEPSA_EENS_4pairINS_18__unwrap_ref_decayIT_E4typeENSF_IT0_E4typeEEEOSG_OSJ_, symObjAddr: 0x35AEC, symBinAddr: 0x1000377DC, symSize: 0x38 }
  - { offsetInCU: 0x3E0D3, offset: 0x3E0D3, size: 0x8, addend: 0x0, symName: __ZNSt3__114__rewrap_rangeB8ue170006IPKNS_5tupleIJN3olc3KeyENS_12basic_stringIcNS_11char_traitsIcEENS_9allocatorIcEEEES9_EEESC_SC_EET0_SD_T1_, symObjAddr: 0x35B24, symBinAddr: 0x100037814, symSize: 0x2C }
  - { offsetInCU: 0x3E128, offset: 0x3E128, size: 0x8, addend: 0x0, symName: __ZNSt3__124__memberwise_copy_assignB8ue170006INS_5tupleIJN3olc3KeyENS_12basic_stringIcNS_11char_traitsIcEENS_9allocatorIcEEEES9_EEESA_JLm0ELm1ELm2EEEEvRT_RKT0_NS_15__tuple_indicesIJXspT1_EEEE, symObjAddr: 0x35B84, symBinAddr: 0x100037874, symSize: 0xA4 }
  - { offsetInCU: 0x3E198, offset: 0x3E198, size: 0x8, addend: 0x0, symName: __ZNSt3__19__swallowB8ue170006IJiiiEEEvDpOT_, symObjAddr: 0x35C28, symBinAddr: 0x100037918, symSize: 0x18 }
  - { offsetInCU: 0x3E1EC, offset: 0x3E1EC, size: 0x8, addend: 0x0, symName: __ZNSt3__13getB8ue170006ILm0EJN3olc3KeyENS_12basic_stringIcNS_11char_traitsIcEENS_9allocatorIcEEEES8_EEERNS_13tuple_elementIXT_ENS_5tupleIJDpT0_EEEE4typeERSD_, symObjAddr: 0x35C40, symBinAddr: 0x100037930, symSize: 0x24 }
  - { offsetInCU: 0x3E239, offset: 0x3E239, size: 0x8, addend: 0x0, symName: __ZNSt3__13getB8ue170006ILm1EJN3olc3KeyENS_12basic_stringIcNS_11char_traitsIcEENS_9allocatorIcEEEES8_EEERNS_13tuple_elementIXT_ENS_5tupleIJDpT0_EEEE4typeERSD_, symObjAddr: 0x35C64, symBinAddr: 0x100037954, symSize: 0x28 }
  - { offsetInCU: 0x3E286, offset: 0x3E286, size: 0x8, addend: 0x0, symName: __ZNSt3__13getB8ue170006ILm2EJN3olc3KeyENS_12basic_stringIcNS_11char_traitsIcEENS_9allocatorIcEEEES8_EEERNS_13tuple_elementIXT_ENS_5tupleIJDpT0_EEEE4typeERSD_, symObjAddr: 0x35C8C, symBinAddr: 0x10003797C, symSize: 0x28 }
  - { offsetInCU: 0x3E2D3, offset: 0x3E2D3, size: 0x8, addend: 0x0, symName: __ZNSt3__113__rewrap_iterB8ue170006IPKNS_5tupleIJN3olc3KeyENS_12basic_stringIcNS_11char_traitsIcEENS_9allocatorIcEEEES9_EEESC_NS_18__unwrap_iter_implISC_Lb1EEEEET_SF_T0_, symObjAddr: 0x35D8C, symBinAddr: 0x100037A7C, symSize: 0x3C }
  - { offsetInCU: 0x3E328, offset: 0x3E328, size: 0x8, addend: 0x0, symName: __ZNSt3__119__allocate_at_leastB8ue170006INS_9allocatorINS_5tupleIJN3olc3KeyENS_12basic_stringIcNS_11char_traitsIcEENS1_IcEEEES9_EEEEEEENS_19__allocation_resultINS_16allocator_traitsIT_E7pointerEEERSE_m, symObjAddr: 0x36010, symBinAddr: 0x100037D00, symSize: 0x40 }
  - { offsetInCU: 0x3E36C, offset: 0x3E36C, size: 0x8, addend: 0x0, symName: __ZNSt3__110__distanceB8ue170006IPKNS_5tupleIJN3olc3KeyENS_12basic_stringIcNS_11char_traitsIcEENS_9allocatorIcEEEES9_EEEEENS_15iterator_traitsIT_E15difference_typeESE_SE_NS_26random_access_iterator_tagE, symObjAddr: 0x361FC, symBinAddr: 0x100037EEC, symSize: 0x28 }
  - { offsetInCU: 0x3E3B9, offset: 0x3E3B9, size: 0x8, addend: 0x0, symName: __ZNSt3__113__rewrap_iterB8ue170006INS_11__wrap_iterIPPN3olc4PGEXEEES5_NS_18__unwrap_iter_implIS6_Lb1EEEEET_S9_T0_, symObjAddr: 0x3623C, symBinAddr: 0x100037F2C, symSize: 0x4C }
  - { offsetInCU: 0x3E40E, offset: 0x3E40E, size: 0x8, addend: 0x0, symName: __ZNSt3__111__find_implB8ue170006IPPN3olc4PGEXES4_S3_NS_10__identityEEET_S6_T0_RKT1_RT2_, symObjAddr: 0x36288, symBinAddr: 0x100037F78, symSize: 0x88 }
  - { offsetInCU: 0x3E488, offset: 0x3E488, size: 0x8, addend: 0x0, symName: __ZNSt3__113__unwrap_iterB8ue170006INS_11__wrap_iterIPPN3olc4PGEXEEENS_18__unwrap_iter_implIS6_Lb1EEELi0EEEDTclsrT0_8__unwrapclsr3stdE7declvalIT_EEEESA_, symObjAddr: 0x36310, symBinAddr: 0x100038000, symSize: 0x2C }
  - { offsetInCU: 0x3E51F, offset: 0x3E51F, size: 0x8, addend: 0x0, symName: __ZNSt3__112__to_addressB8ue170006INS_11__wrap_iterIPPN3olc4PGEXEEEvEEu7__decayIDTclsr19__to_address_helperIT_EE6__callclsr3stdE7declvalIRKS7_EEEEES9_, symObjAddr: 0x363D4, symBinAddr: 0x1000380C4, symSize: 0x24 }
  - { offsetInCU: 0x3E5BC, offset: 0x3E5BC, size: 0x8, addend: 0x0, symName: __ZNSt3__18__invokeB8ue170006IRNS_10__identityEJRPN3olc4PGEXEEEEDTclclsr3stdE7declvalIT_EEspclsr3stdE7declvalIT0_EEEEOS7_DpOS8_, symObjAddr: 0x3647C, symBinAddr: 0x10003816C, symSize: 0x2C }
  - { offsetInCU: 0x3E662, offset: 0x3E662, size: 0x8, addend: 0x0, symName: __ZNSt3__112construct_atB8ue170006IPN3olc4PGEXEJRKS3_EPS3_EEPT_S8_DpOT0_, symObjAddr: 0x3678C, symBinAddr: 0x10003847C, symSize: 0x2C }
  - { offsetInCU: 0x3E6D4, offset: 0x3E6D4, size: 0x8, addend: 0x0, symName: __ZNSt3__119__allocate_at_leastB8ue170006INS_9allocatorIPN3olc4PGEXEEEEENS_19__allocation_resultINS_16allocator_traitsIT_E7pointerEEERS8_m, symObjAddr: 0x36C20, symBinAddr: 0x100038910, symSize: 0x40 }
  - { offsetInCU: 0x3E717, offset: 0x3E717, size: 0x8, addend: 0x0, symName: __ZNSt3__142__uninitialized_allocator_move_if_noexceptB8ue170006INS_9allocatorIPN3olc4PGEXEEENS_16reverse_iteratorIPS4_EES8_S4_vEET1_RT_T0_SC_S9_, symObjAddr: 0x36DD4, symBinAddr: 0x100038AC4, symSize: 0x78 }
  - { offsetInCU: 0x3E796, offset: 0x3E796, size: 0x8, addend: 0x0, symName: __ZNSt3__14swapB8ue170006IPPN3olc4PGEXEEENS_9enable_ifIXaasr21is_move_constructibleIT_EE5valuesr18is_move_assignableIS6_EE5valueEvE4typeERS6_S9_, symObjAddr: 0x36E98, symBinAddr: 0x100038B88, symSize: 0x3C }
  - { offsetInCU: 0x3E7E8, offset: 0x3E7E8, size: 0x8, addend: 0x0, symName: __ZNSt3__14moveB8ue170006INS_16reverse_iteratorIPPN3olc4PGEXEEES6_EET0_T_S8_S7_, symObjAddr: 0x36F80, symBinAddr: 0x100038C70, symSize: 0x78 }
  - { offsetInCU: 0x3E842, offset: 0x3E842, size: 0x8, addend: 0x0, symName: __ZNSt3__16__moveB8ue170006INS_17_ClassicAlgPolicyENS_16reverse_iteratorIPPN3olc4PGEXEEES7_S7_EENS_4pairIT0_T2_EES9_T1_SA_, symObjAddr: 0x36FF8, symBinAddr: 0x100038CE8, symSize: 0x64 }
  - { offsetInCU: 0x3E8AE, offset: 0x3E8AE, size: 0x8, addend: 0x0, symName: __ZNSt3__123__dispatch_copy_or_moveB8ue170006INS_17_ClassicAlgPolicyENS_11__move_loopIS1_EENS_14__move_trivialENS_16reverse_iteratorIPPN3olc4PGEXEEESA_SA_EENS_4pairIT2_T4_EESC_T3_SD_, symObjAddr: 0x3705C, symBinAddr: 0x100038D4C, symSize: 0x64 }
  - { offsetInCU: 0x3E92C, offset: 0x3E92C, size: 0x8, addend: 0x0, symName: __ZNSt3__121__unwrap_and_dispatchB8ue170006INS_10__overloadINS_11__move_loopINS_17_ClassicAlgPolicyEEENS_14__move_trivialEEENS_16reverse_iteratorIPPN3olc4PGEXEEESC_SC_Li0EEENS_4pairIT0_T2_EESE_T1_SF_, symObjAddr: 0x370C0, symBinAddr: 0x100038DB0, symSize: 0x12C }
  - { offsetInCU: 0x3E9BE, offset: 0x3E9BE, size: 0x8, addend: 0x0, symName: __ZNSt3__114__unwrap_rangeB8ue170006INS_16reverse_iteratorIPPN3olc4PGEXEEES6_EEDaT_T0_, symObjAddr: 0x371EC, symBinAddr: 0x100038EDC, symSize: 0x4C }
  - { offsetInCU: 0x3EADE, offset: 0x3EADE, size: 0x8, addend: 0x0, symName: __ZNSt3__113__unwrap_iterB8ue170006INS_16reverse_iteratorIPPN3olc4PGEXEEENS_18__unwrap_iter_implIS6_Lb0EEELi0EEEDTclsrT0_8__unwrapclsr3stdE7declvalIT_EEEESA_, symObjAddr: 0x372D8, symBinAddr: 0x100038FC8, symSize: 0x44 }
  - { offsetInCU: 0x3EB22, offset: 0x3EB22, size: 0x8, addend: 0x0, symName: __ZNSt3__19make_pairB8ue170006INS_16reverse_iteratorIPPN3olc4PGEXEEES6_EENS_4pairINS_18__unwrap_ref_decayIT_E4typeENS8_IT0_E4typeEEEOS9_OSC_, symObjAddr: 0x3731C, symBinAddr: 0x10003900C, symSize: 0x38 }
  - { offsetInCU: 0x3EB71, offset: 0x3EB71, size: 0x8, addend: 0x0, symName: __ZNSt3__114__rewrap_rangeB8ue170006INS_16reverse_iteratorIPPN3olc4PGEXEEES6_S6_EET0_S7_T1_, symObjAddr: 0x37354, symBinAddr: 0x100039044, symSize: 0x5C }
  - { offsetInCU: 0x3EBC6, offset: 0x3EBC6, size: 0x8, addend: 0x0, symName: __ZNSt3__113__rewrap_iterB8ue170006INS_16reverse_iteratorIPPN3olc4PGEXEEES6_NS_18__unwrap_iter_implIS6_Lb0EEEEET_S9_T0_, symObjAddr: 0x373B0, symBinAddr: 0x1000390A0, symSize: 0x74 }
  - { offsetInCU: 0x3EC6B, offset: 0x3EC6B, size: 0x8, addend: 0x0, symName: __ZNSt3__1neB8ue170006IPPN3olc4PGEXES4_EEbRKNS_16reverse_iteratorIT_EERKNS5_IT0_EE, symObjAddr: 0x37518, symBinAddr: 0x100039208, symSize: 0x48 }
  - { offsetInCU: 0x3ED57, offset: 0x3ED57, size: 0x8, addend: 0x0, symName: __ZNSt3__110destroy_atB8ue170006INS_4pairIKmhEELi0EEEvPT_, symObjAddr: 0x38A78, symBinAddr: 0x10003A768, symSize: 0x24 }
  - { offsetInCU: 0x3ED8F, offset: 0x3ED8F, size: 0x8, addend: 0x0, symName: __ZNSt3__112__destroy_atB8ue170006INS_4pairIKmhEELi0EEEvPT_, symObjAddr: 0x38A9C, symBinAddr: 0x10003A78C, symSize: 0x10 }
  - { offsetInCU: 0x3EDC6, offset: 0x3EDC6, size: 0x8, addend: 0x0, symName: __ZNSt3__17launderB8ue170006INS_4pairIKmhEEEEPT_S5_, symObjAddr: 0x38AD0, symBinAddr: 0x10003A7C0, symSize: 0x24 }
  - { offsetInCU: 0x3EDFE, offset: 0x3EDFE, size: 0x8, addend: 0x0, symName: __ZNSt3__19__launderB8ue170006INS_4pairIKmhEEEEPT_S5_, symObjAddr: 0x38AF4, symBinAddr: 0x10003A7E4, symSize: 0x14 }
  - { offsetInCU: 0x3EE36, offset: 0x3EE36, size: 0x8, addend: 0x0, symName: __ZNSt3__110destroy_atB8ue170006INS_4pairIKNS_12basic_stringIcNS_11char_traitsIcEENS_9allocatorIcEEEEN3olc12ResourcePack13sResourceFileEEELi0EEEvPT_, symObjAddr: 0x39580, symBinAddr: 0x10003B270, symSize: 0x24 }
  - { offsetInCU: 0x3EE6E, offset: 0x3EE6E, size: 0x8, addend: 0x0, symName: __ZNSt3__112__destroy_atB8ue170006INS_4pairIKNS_12basic_stringIcNS_11char_traitsIcEENS_9allocatorIcEEEEN3olc12ResourcePack13sResourceFileEEELi0EEEvPT_, symObjAddr: 0x395A4, symBinAddr: 0x10003B294, symSize: 0x24 }
  - { offsetInCU: 0x3EEA5, offset: 0x3EEA5, size: 0x8, addend: 0x0, symName: __ZNSt3__17launderB8ue170006INS_4pairIKNS_12basic_stringIcNS_11char_traitsIcEENS_9allocatorIcEEEEN3olc12ResourcePack13sResourceFileEEEEEPT_SE_, symObjAddr: 0x39644, symBinAddr: 0x10003B334, symSize: 0x24 }
  - { offsetInCU: 0x3EEDD, offset: 0x3EEDD, size: 0x8, addend: 0x0, symName: __ZNSt3__19__launderB8ue170006INS_4pairIKNS_12basic_stringIcNS_11char_traitsIcEENS_9allocatorIcEEEEN3olc12ResourcePack13sResourceFileEEEEEPT_SE_, symObjAddr: 0x39668, symBinAddr: 0x10003B358, symSize: 0x14 }
  - { offsetInCU: 0x3EF14, offset: 0x3EF14, size: 0x8, addend: 0x0, symName: __ZNSt3__18distanceB8ue170006IPKcEENS_15iterator_traitsIT_E15difference_typeES4_S4_, symObjAddr: 0x39AEC, symBinAddr: 0x10003B7DC, symSize: 0x2C }
  - { offsetInCU: 0x3EF58, offset: 0x3EF58, size: 0x8, addend: 0x0, symName: __ZNSt3__110__distanceB8ue170006IPKcEENS_15iterator_traitsIT_E15difference_typeES4_S4_NS_26random_access_iterator_tagE, symObjAddr: 0x39CE4, symBinAddr: 0x10003B9D4, symSize: 0x20 }
  - { offsetInCU: 0x3EFA5, offset: 0x3EFA5, size: 0x8, addend: 0x0, symName: __ZNSt3__121__is_pointer_in_rangeB8ue170006IccLi0EEEbPKT_S3_PKT0_, symObjAddr: 0x39D04, symBinAddr: 0x10003B9F4, symSize: 0x68 }
  - { offsetInCU: 0x3F03C, offset: 0x3F03C, size: 0x8, addend: 0x0, symName: __ZNSt3__116forward_as_tupleB8ue170006IJRKNS_12basic_stringIcNS_11char_traitsIcEENS_9allocatorIcEEEEEEENS_5tupleIJDpOT_EEESC_, symObjAddr: 0x3A3F0, symBinAddr: 0x10003C0E0, symSize: 0x2C }
  - { offsetInCU: 0x3F076, offset: 0x3F076, size: 0x8, addend: 0x0, symName: __ZNSt3__116forward_as_tupleB8ue170006IJEEENS_5tupleIJDpOT_EEES4_, symObjAddr: 0x3A41C, symBinAddr: 0x10003C10C, symSize: 0x4 }
  - { offsetInCU: 0x3F09B, offset: 0x3F09B, size: 0x8, addend: 0x0, symName: __ZNSt3__1ltB8ue170006ENS_15strong_orderingENS_20_CmpUnspecifiedParamE, symObjAddr: 0x3AA54, symBinAddr: 0x10003C744, symSize: 0x24 }
  - { offsetInCU: 0x3F0D5, offset: 0x3F0D5, size: 0x8, addend: 0x0, symName: __ZNSt3__1ssB8ue170006IcNS_11char_traitsIcEENS_9allocatorIcEEEEDaRKNS_12basic_stringIT_T0_T1_EESC_, symObjAddr: 0x3AA78, symBinAddr: 0x10003C768, symSize: 0x5C }
  - { offsetInCU: 0x3F149, offset: 0x3F149, size: 0x8, addend: 0x0, symName: __ZNSt3__1ssB8ue170006IcNS_11char_traitsIcEEEEDaNS_17basic_string_viewIT_T0_EES7_, symObjAddr: 0x3AB08, symBinAddr: 0x10003C7F8, symSize: 0x7C }
  - { offsetInCU: 0x3F198, offset: 0x3F198, size: 0x8, addend: 0x0, symName: __ZNSt3__17launderB8ue170006IKNS_4pairIKNS_12basic_stringIcNS_11char_traitsIcEENS_9allocatorIcEEEEN3olc12ResourcePack13sResourceFileEEEEEPT_SF_, symObjAddr: 0x3ADF4, symBinAddr: 0x10003CAE4, symSize: 0x24 }
  - { offsetInCU: 0x3F1D0, offset: 0x3F1D0, size: 0x8, addend: 0x0, symName: __ZNSt3__19__launderB8ue170006IKNS_4pairIKNS_12basic_stringIcNS_11char_traitsIcEENS_9allocatorIcEEEEN3olc12ResourcePack13sResourceFileEEEEEPT_SF_, symObjAddr: 0x3AE18, symBinAddr: 0x10003CB08, symSize: 0x14 }
  - { offsetInCU: 0x3F24C, offset: 0x3F24C, size: 0x8, addend: 0x0, symName: __ZNSt3__112construct_atB8ue170006INS_4pairIKNS_12basic_stringIcNS_11char_traitsIcEENS_9allocatorIcEEEEN3olc12ResourcePack13sResourceFileEEEJRKNS_21piecewise_construct_tENS_5tupleIJRS8_EEENSG_IJEEEEPSC_EEPT_SM_DpOT0_, symObjAddr: 0x3B134, symBinAddr: 0x10003CE24, symSize: 0x50 }
  - { offsetInCU: 0x3F2E4, offset: 0x3F2E4, size: 0x8, addend: 0x0, symName: __ZNSt3__13getB8ue170006ILm0EJRKNS_12basic_stringIcNS_11char_traitsIcEENS_9allocatorIcEEEEEEERNS_13tuple_elementIXT_ENS_5tupleIJDpT0_EEEE4typeERSD_, symObjAddr: 0x3B244, symBinAddr: 0x10003CF34, symSize: 0x24 }
  - { offsetInCU: 0x3F327, offset: 0x3F327, size: 0x8, addend: 0x0, symName: __ZNSt3__127__tree_balance_after_insertB8ue170006IPNS_16__tree_node_baseIPvEEEEvT_S5_, symObjAddr: 0x3B2F4, symBinAddr: 0x10003CFE4, symSize: 0x32C }
  - { offsetInCU: 0x3F3A6, offset: 0x3F3A6, size: 0x8, addend: 0x0, symName: __ZNSt3__120__tree_is_left_childB8ue170006IPNS_16__tree_node_baseIPvEEEEbT_, symObjAddr: 0x3B660, symBinAddr: 0x10003D350, symSize: 0x2C }
  - { offsetInCU: 0x3F3DB, offset: 0x3F3DB, size: 0x8, addend: 0x0, symName: __ZNSt3__118__tree_left_rotateB8ue170006IPNS_16__tree_node_baseIPvEEEEvT_, symObjAddr: 0x3B68C, symBinAddr: 0x10003D37C, symSize: 0xD8 }
  - { offsetInCU: 0x3F41D, offset: 0x3F41D, size: 0x8, addend: 0x0, symName: __ZNSt3__119__tree_right_rotateB8ue170006IPNS_16__tree_node_baseIPvEEEEvT_, symObjAddr: 0x3B764, symBinAddr: 0x10003D454, symSize: 0xCC }
  - { offsetInCU: 0x3F4A7, offset: 0x3F4A7, size: 0x8, addend: 0x0, symName: __ZNSt3__1neB8ue170006ERKNS_15__tree_iteratorINS_12__value_typeINS_12basic_stringIcNS_11char_traitsIcEENS_9allocatorIcEEEEN3olc12ResourcePack13sResourceFileEEEPNS_11__tree_nodeISB_PvEElEESI_, symObjAddr: 0x3BD84, symBinAddr: 0x10003DA74, symSize: 0x34 }
  - { offsetInCU: 0x3F4E5, offset: 0x3F4E5, size: 0x8, addend: 0x0, symName: __ZNSt3__1eqB8ue170006ERKNS_15__tree_iteratorINS_12__value_typeINS_12basic_stringIcNS_11char_traitsIcEENS_9allocatorIcEEEEN3olc12ResourcePack13sResourceFileEEEPNS_11__tree_nodeISB_PvEElEESI_, symObjAddr: 0x3BDB8, symBinAddr: 0x10003DAA8, symSize: 0x30 }
  - { offsetInCU: 0x3F522, offset: 0x3F522, size: 0x8, addend: 0x0, symName: __ZNSt3__116__tree_next_iterB8ue170006IPNS_15__tree_end_nodeIPNS_16__tree_node_baseIPvEEEES5_EET_T0_, symObjAddr: 0x3BE20, symBinAddr: 0x10003DB10, symSize: 0x80 }
  - { offsetInCU: 0x3F561, offset: 0x3F561, size: 0x8, addend: 0x0, symName: __ZNSt3__110__tree_minB8ue170006IPNS_16__tree_node_baseIPvEEEET_S5_, symObjAddr: 0x3BEA0, symBinAddr: 0x10003DB90, symSize: 0x40 }
  - { offsetInCU: 0x3F596, offset: 0x3F596, size: 0x8, addend: 0x0, symName: __ZNSt3__1eqB8ue170006I11__mbstate_tEEbRKNS_4fposIT_EES6_, symObjAddr: 0x3BFB0, symBinAddr: 0x10003DCA0, symSize: 0x48 }
  - { offsetInCU: 0x3F5DA, offset: 0x3F5DA, size: 0x8, addend: 0x0, symName: __ZNSt3__14swapB8ue170006IPNS_10__function6__baseIFvvEEEEENS_9enable_ifIXaasr21is_move_constructibleIT_EE5valuesr18is_move_assignableIS7_EE5valueEvE4typeERS7_SA_, symObjAddr: 0x3C904, symBinAddr: 0x10003E5F4, symSize: 0x3C }
  - { offsetInCU: 0x3F62D, offset: 0x3F62D, size: 0x8, addend: 0x0, symName: __ZNSt3__125__throw_bad_function_callB8ue170006Ev, symObjAddr: 0x3C9E8, symBinAddr: 0x10003E6D8, symSize: 0x38 }
  - { offsetInCU: 0x3F67E, offset: 0x3F67E, size: 0x8, addend: 0x0, symName: __ZNSt3__14swapB8ue170006IPNS_10__function6__baseIFN3olc5PixelEiiRKS4_S6_EEEEENS_9enable_ifIXaasr21is_move_constructibleIT_EE5valuesr18is_move_assignableISB_EE5valueEvE4typeERSB_SE_, symObjAddr: 0x3D000, symBinAddr: 0x10003ECF0, symSize: 0x3C }
  - { offsetInCU: 0x3F6D1, offset: 0x3F6D1, size: 0x8, addend: 0x0, symName: __ZNSt3__1eqB8ue170006ERKNS_15__list_iteratorINS_12basic_stringIcNS_11char_traitsIcEENS_9allocatorIcEEEEPvEESA_, symObjAddr: 0x3D108, symBinAddr: 0x10003EDF8, symSize: 0x30 }
  - { offsetInCU: 0x3F70E, offset: 0x3F70E, size: 0x8, addend: 0x0, symName: __ZNSt3__116__pad_and_outputB8ue170006IcNS_11char_traitsIcEEEENS_19ostreambuf_iteratorIT_T0_EES6_PKS4_S8_S8_RNS_8ios_baseES4_, symObjAddr: 0x3D3C8, symBinAddr: 0x10003F0B8, symSize: 0x240 }
  - { offsetInCU: 0x3F7DE, offset: 0x3F7DE, size: 0x8, addend: 0x0, symName: __ZNSt3__19use_facetB8ue170006INS_5ctypeIcEEEERKT_RKNS_6localeE, symObjAddr: 0x3D884, symBinAddr: 0x10003F574, symSize: 0x2C }
  - { offsetInCU: 0x3FCC9, offset: 0x3FCC9, size: 0x8, addend: 0x0, symName: __ZNSt3__112construct_atB8ue170006INS_12basic_stringIcNS_11char_traitsIcEENS_9allocatorIcEEEEJRKS6_EPS6_EEPT_SB_DpOT0_, symObjAddr: 0x3DD34, symBinAddr: 0x10003FA24, symSize: 0x3C }
  - { offsetInCU: 0x3FD3C, offset: 0x3FD3C, size: 0x8, addend: 0x0, symName: __ZNSt3__118__cxx_atomic_storeB8ue170006IbEEvPNS_22__cxx_atomic_base_implIT_EES2_NS_12memory_orderE, symObjAddr: 0x3DF38, symBinAddr: 0x10003FC28, symSize: 0x90 }
  - { offsetInCU: 0x3FD8E, offset: 0x3FD8E, size: 0x8, addend: 0x0, symName: __ZNSt3__112__to_addressB8ue170006IPvEEPT_S3_, symObjAddr: 0x40240, symBinAddr: 0x100041F30, symSize: 0x14 }
  - { offsetInCU: 0x3FDC4, offset: 0x3FDC4, size: 0x8, addend: 0x0, symName: __ZNSt3__110destroy_atB8ue170006IPvLi0EEEvPT_, symObjAddr: 0x40254, symBinAddr: 0x100041F44, symSize: 0x24 }
  - { offsetInCU: 0x3FDFC, offset: 0x3FDFC, size: 0x8, addend: 0x0, symName: __ZNSt3__112__destroy_atB8ue170006IPvLi0EEEvPT_, symObjAddr: 0x40278, symBinAddr: 0x100041F68, symSize: 0x10 }
  - { offsetInCU: 0x3FE33, offset: 0x3FE33, size: 0x8, addend: 0x0, symName: __ZNSt3__116forward_as_tupleB8ue170006IJmEEENS_5tupleIJDpOT_EEES4_, symObjAddr: 0x40874, symBinAddr: 0x100042564, symSize: 0x2C }
  - { offsetInCU: 0x3FE6C, offset: 0x3FE6C, size: 0x8, addend: 0x0, symName: __ZNSt3__17launderB8ue170006IKNS_4pairIKmhEEEEPT_S6_, symObjAddr: 0x40EB8, symBinAddr: 0x100042BA8, symSize: 0x24 }
  - { offsetInCU: 0x3FEA4, offset: 0x3FEA4, size: 0x8, addend: 0x0, symName: __ZNSt3__19__launderB8ue170006IKNS_4pairIKmhEEEEPT_S6_, symObjAddr: 0x40EDC, symBinAddr: 0x100042BCC, symSize: 0x14 }
  - { offsetInCU: 0x3FF20, offset: 0x3FF20, size: 0x8, addend: 0x0, symName: __ZNSt3__112construct_atB8ue170006INS_4pairIKmhEEJRKNS_21piecewise_construct_tENS_5tupleIJOmEEENS7_IJEEEEPS3_EEPT_SD_DpOT0_, symObjAddr: 0x411FC, symBinAddr: 0x100042EEC, symSize: 0x50 }
  - { offsetInCU: 0x3FFB8, offset: 0x3FFB8, size: 0x8, addend: 0x0, symName: __ZNSt3__13getB8ue170006ILm0EJOmEEERNS_13tuple_elementIXT_ENS_5tupleIJDpT0_EEEE4typeERS6_, symObjAddr: 0x41314, symBinAddr: 0x100043004, symSize: 0x24 }
  - { offsetInCU: 0x400F7, offset: 0x400F7, size: 0x8, addend: 0x0, symName: '__ZNSt3__116forward_as_tupleB8ue170006IJZN3olc15TransformedView10DrawStringERKNS1_11v2d_genericIfEERKNS_12basic_stringIcNS_11char_traitsIcEENS_9allocatorIcEEEENS1_5PixelES6_E4$_10EEENS_5tupleIJDpOT_EEESK_', symObjAddr: 0x438EC, symBinAddr: 0x1000455DC, symSize: 0x2C }
  - { offsetInCU: 0x40131, offset: 0x40131, size: 0x8, addend: 0x0, symName: '__ZNSt3__116forward_as_tupleB8ue170006IJNS_9allocatorIZN3olc15TransformedView10DrawStringERKNS2_11v2d_genericIfEERKNS_12basic_stringIcNS_11char_traitsIcEENS1_IcEEEENS2_5PixelES7_E4$_10EEEEENS_5tupleIJDpOT_EEESL_', symObjAddr: 0x43918, symBinAddr: 0x100045608, symSize: 0x2C }
  - { offsetInCU: 0x40195, offset: 0x40195, size: 0x8, addend: 0x0, symName: '__ZNSt3__13getB8ue170006ILm0EJOZN3olc15TransformedView10DrawStringERKNS1_11v2d_genericIfEERKNS_12basic_stringIcNS_11char_traitsIcEENS_9allocatorIcEEEENS1_5PixelES6_E4$_10EEERNS_13tuple_elementIXT_ENS_5tupleIJDpT0_EEEE4typeERSM_', symObjAddr: 0x43C30, symBinAddr: 0x100045920, symSize: 0x24 }
  - { offsetInCU: 0x401D8, offset: 0x401D8, size: 0x8, addend: 0x0, symName: '__ZNSt3__13getB8ue170006ILm0EJONS_9allocatorIZN3olc15TransformedView10DrawStringERKNS2_11v2d_genericIfEERKNS_12basic_stringIcNS_11char_traitsIcEENS1_IcEEEENS2_5PixelES7_E4$_10EEEEERNS_13tuple_elementIXT_ENS_5tupleIJDpT0_EEEE4typeERSN_', symObjAddr: 0x43C6C, symBinAddr: 0x10004595C, symSize: 0x24 }
  - { offsetInCU: 0x4071A, offset: 0x4071A, size: 0x8, addend: 0x0, symName: '__ZNSt3__116forward_as_tupleB8ue170006IJRKZN3olc15TransformedView10DrawStringERKNS1_11v2d_genericIfEERKNS_12basic_stringIcNS_11char_traitsIcEENS_9allocatorIcEEEENS1_5PixelES6_E4$_10EEENS_5tupleIJDpOT_EEESM_', symObjAddr: 0x441F0, symBinAddr: 0x100045EE0, symSize: 0x2C }
  - { offsetInCU: 0x40769, offset: 0x40769, size: 0x8, addend: 0x0, symName: '__ZNSt3__13getB8ue170006ILm0EJRKZN3olc15TransformedView10DrawStringERKNS1_11v2d_genericIfEERKNS_12basic_stringIcNS_11char_traitsIcEENS_9allocatorIcEEEENS1_5PixelES6_E4$_10EEERNS_13tuple_elementIXT_ENS_5tupleIJDpT0_EEEE4typeERSN_', symObjAddr: 0x443E0, symBinAddr: 0x1000460D0, symSize: 0x24 }
  - { offsetInCU: 0x407AC, offset: 0x407AC, size: 0x8, addend: 0x0, symName: '__ZNSt3__116forward_as_tupleB8ue170006IJRKNS_9allocatorIZN3olc15TransformedView10DrawStringERKNS2_11v2d_genericIfEERKNS_12basic_stringIcNS_11char_traitsIcEENS1_IcEEEENS2_5PixelES7_E4$_10EEEEENS_5tupleIJDpOT_EEESN_', symObjAddr: 0x4473C, symBinAddr: 0x10004642C, symSize: 0x2C }
  - { offsetInCU: 0x407FB, offset: 0x407FB, size: 0x8, addend: 0x0, symName: '__ZNSt3__13getB8ue170006ILm0EJRKNS_9allocatorIZN3olc15TransformedView10DrawStringERKNS2_11v2d_genericIfEERKNS_12basic_stringIcNS_11char_traitsIcEENS1_IcEEEENS2_5PixelES7_E4$_10EEEEERNS_13tuple_elementIXT_ENS_5tupleIJDpT0_EEEE4typeERSO_', symObjAddr: 0x44920, symBinAddr: 0x100046610, symSize: 0x24 }
  - { offsetInCU: 0x408A2, offset: 0x408A2, size: 0x8, addend: 0x0, symName: '__ZNSt3__18__invokeB8ue170006IRZN3olc15TransformedView10DrawStringERKNS1_11v2d_genericIfEERKNS_12basic_stringIcNS_11char_traitsIcEENS_9allocatorIcEEEENS1_5PixelES6_E4$_10JiiRKSF_SJ_EEEDTclclsr3stdE7declvalIT_EEspclsr3stdE7declvalIT0_EEEEOSK_DpOSL_', symObjAddr: 0x44A2C, symBinAddr: 0x10004671C, symSize: 0x54 }
  - { offsetInCU: 0x419B4, offset: 0x419B4, size: 0x8, addend: 0x0, symName: __ZSt28__throw_bad_array_new_lengthB8ue170006v, symObjAddr: 0x1C5AC, symBinAddr: 0x10001E29C, symSize: 0x34 }
  - { offsetInCU: 0x445AF, offset: 0x445AF, size: 0x8, addend: 0x0, symName: __ZN3olc15PixelGameEngine16ClipLineToScreenERNS_11v2d_genericIiEES3_, symObjAddr: 0x8024, symBinAddr: 0x100009D14, symSize: 0x324 }
  - { offsetInCU: 0x445D6, offset: 0x445D6, size: 0x8, addend: 0x0, symName: __ZZN3olc15PixelGameEngine16ClipLineToScreenERNS_11v2d_genericIiEES3_E5SEG_I, symObjAddr: 0x47848, symBinAddr: 0x100049A74, symSize: 0x0 }
  - { offsetInCU: 0x445ED, offset: 0x445ED, size: 0x8, addend: 0x0, symName: __ZZN3olc15PixelGameEngine16ClipLineToScreenERNS_11v2d_genericIiEES3_E5SEG_L, symObjAddr: 0x4784C, symBinAddr: 0x100049A78, symSize: 0x0 }
  - { offsetInCU: 0x44604, offset: 0x44604, size: 0x8, addend: 0x0, symName: __ZZN3olc15PixelGameEngine16ClipLineToScreenERNS_11v2d_genericIiEES3_E5SEG_R, symObjAddr: 0x47850, symBinAddr: 0x100049A7C, symSize: 0x0 }
  - { offsetInCU: 0x4461B, offset: 0x4461B, size: 0x8, addend: 0x0, symName: __ZZN3olc15PixelGameEngine16ClipLineToScreenERNS_11v2d_genericIiEES3_E5SEG_B, symObjAddr: 0x47854, symBinAddr: 0x100049A80, symSize: 0x0 }
  - { offsetInCU: 0x44632, offset: 0x44632, size: 0x8, addend: 0x0, symName: __ZZN3olc15PixelGameEngine16ClipLineToScreenERNS_11v2d_genericIiEES3_E5SEG_T, symObjAddr: 0x47858, symBinAddr: 0x100049A84, symSize: 0x0 }
  - { offsetInCU: 0x44756, offset: 0x44756, size: 0x8, addend: 0x0, symName: _money, symObjAddr: 0x1E7600, symBinAddr: 0x1000500D8, symSize: 0x0 }
  - { offsetInCU: 0x4476C, offset: 0x4476C, size: 0x8, addend: 0x0, symName: _population, symObjAddr: 0x1E7604, symBinAddr: 0x1000500DC, symSize: 0x0 }
  - { offsetInCU: 0x4479D, offset: 0x4479D, size: 0x8, addend: 0x0, symName: _fTargetFrameTimeMove, symObjAddr: 0x47BB0, symBinAddr: 0x100050000, symSize: 0x0 }
  - { offsetInCU: 0x447B3, offset: 0x447B3, size: 0x8, addend: 0x0, symName: _fTargetFrameTimeRender, symObjAddr: 0x47BB4, symBinAddr: 0x100050004, symSize: 0x0 }
  - { offsetInCU: 0x447C9, offset: 0x447C9, size: 0x8, addend: 0x0, symName: _fAccumulatedTimeMove, symObjAddr: 0x1E7608, symBinAddr: 0x1000500E0, symSize: 0x0 }
  - { offsetInCU: 0x447DF, offset: 0x447DF, size: 0x8, addend: 0x0, symName: _fAccumulatedTimeRender, symObjAddr: 0x1E760C, symBinAddr: 0x1000500E4, symSize: 0x0 }
  - { offsetInCU: 0x4480D, offset: 0x4480D, size: 0x8, addend: 0x0, symName: __ZN3olc13Platform_GLUT17scrollWheelUpdateEP11objc_objectP13objc_selectorS2_, symObjAddr: 0x403D0, symBinAddr: 0x1000420C0, symSize: 0x174 }
  - { offsetInCU: 0x4482E, offset: 0x4482E, size: 0x8, addend: 0x0, symName: __ZZN3olc13Platform_GLUT17scrollWheelUpdateEP11objc_objectP13objc_selectorS2_E9deltaYSel, symObjAddr: 0x47BB8, symBinAddr: 0x100050008, symSize: 0x0 }
  - { offsetInCU: 0x44890, offset: 0x44890, size: 0x8, addend: 0x0, symName: __ZN3olc13Platform_GLUT11ThreadFunctEv, symObjAddr: 0x40688, symBinAddr: 0x100042378, symSize: 0xD4 }
  - { offsetInCU: 0x448B1, offset: 0x448B1, size: 0x8, addend: 0x0, symName: __ZZN3olc13Platform_GLUT11ThreadFunctEvE15hasEnabledCocoa, symObjAddr: 0x47BC8, symBinAddr: 0x100050018, symSize: 0x0 }
  - { offsetInCU: 0x449BD, offset: 0x449BD, size: 0x8, addend: 0x0, symName: __ZNSt3__16vectorIN3olc5PixelENS_9allocatorIS2_EEE26__swap_out_circular_bufferERNS_14__split_bufferIS2_RS4_EE, symObjAddr: 0x1BD5C, symBinAddr: 0x10001DA4C, symSize: 0x110 }
  - { offsetInCU: 0x44A14, offset: 0x44A14, size: 0x8, addend: 0x0, symName: __ZNSt3__16vectorIcNS_9allocatorIcEEE26__swap_out_circular_bufferERNS_14__split_bufferIcRS2_EE, symObjAddr: 0x1DB90, symBinAddr: 0x10001F880, symSize: 0x110 }
  - { offsetInCU: 0x44BB9, offset: 0x44BB9, size: 0x8, addend: 0x0, symName: __ZNSt3__16vectorIN3olc9LayerDescENS_9allocatorIS2_EEE26__swap_out_circular_bufferERNS_14__split_bufferIS2_RS4_EE, symObjAddr: 0x24E1C, symBinAddr: 0x100026B0C, symSize: 0x110 }
  - { offsetInCU: 0x44CD3, offset: 0x44CD3, size: 0x8, addend: 0x0, symName: __ZNSt3__16vectorIN3olc13DecalInstanceENS_9allocatorIS2_EEE26__swap_out_circular_bufferERNS_14__split_bufferIS2_RS4_EE, symObjAddr: 0x2C804, symBinAddr: 0x10002E4F4, symSize: 0x110 }
  - { offsetInCU: 0x44D67, offset: 0x44D67, size: 0x8, addend: 0x0, symName: __ZNSt3__16vectorIN3olc11v2d_genericIfEENS_9allocatorIS3_EEE26__swap_out_circular_bufferERNS_14__split_bufferIS3_RS5_EE, symObjAddr: 0x2E04C, symBinAddr: 0x10002FD3C, symSize: 0x110 }
  - { offsetInCU: 0x44DE7, offset: 0x44DE7, size: 0x8, addend: 0x0, symName: __ZNSt3__16vectorIfNS_9allocatorIfEEE26__swap_out_circular_bufferERNS_14__split_bufferIfRS2_EE, symObjAddr: 0x2F0C4, symBinAddr: 0x100030DB4, symSize: 0x110 }
  - { offsetInCU: 0x44E3E, offset: 0x44E3E, size: 0x8, addend: 0x0, symName: __ZNSt3__16vectorINS_12basic_stringIcNS_11char_traitsIcEENS_9allocatorIcEEEENS4_IS6_EEE26__swap_out_circular_bufferERNS_14__split_bufferIS6_RS7_EE, symObjAddr: 0x30740, symBinAddr: 0x100032430, symSize: 0x110 }
  - { offsetInCU: 0x44F2D, offset: 0x44F2D, size: 0x8, addend: 0x0, symName: __ZNKSt3__16chrono15__duration_castINS0_8durationIxNS_5ratioILl1ELl1000000EEEEENS2_IfNS3_ILl1ELl1EEEEES4_Lb1ELb0EEclB8ue170006ERKS5_, symObjAddr: 0x32C54, symBinAddr: 0x100034944, symSize: 0x54 }
  - { offsetInCU: 0x44FA7, offset: 0x44FA7, size: 0x8, addend: 0x0, symName: __ZNSt3__16vectorIN3olc11v2d_genericIiEENS_9allocatorIS3_EEE26__swap_out_circular_bufferERNS_14__split_bufferIS3_RS5_EE, symObjAddr: 0x33468, symBinAddr: 0x100035158, symSize: 0x110 }
  - { offsetInCU: 0x45078, offset: 0x45078, size: 0x8, addend: 0x0, symName: __ZNSt3__16vectorIPN3olc4PGEXENS_9allocatorIS3_EEE26__swap_out_circular_bufferERNS_14__split_bufferIS3_RS5_EE, symObjAddr: 0x368D0, symBinAddr: 0x1000385C0, symSize: 0x110 }
  - { offsetInCU: 0x453FA, offset: 0x453FA, size: 0x8, addend: 0x0, symName: __ZN3olc15TransformedView10DrawStringERKNS_11v2d_genericIfEERKNSt3__112basic_stringIcNS5_11char_traitsIcEENS5_9allocatorIcEEEENS_5PixelES4_, symObjAddr: 0x1785C, symBinAddr: 0x10001954C, symSize: 0x27C }
  - { offsetInCU: 0x47808, offset: 0x47808, size: 0x8, addend: 0x0, symName: __ZN3olc5PixelC1Ehhhh, symObjAddr: 0x0, symBinAddr: 0x100001CF0, symSize: 0x4C }
  - { offsetInCU: 0x47870, offset: 0x47870, size: 0x8, addend: 0x0, symName: __ZNSt3__110unique_ptrIN3olc8RendererENS_14default_deleteIS2_EEED1B8ue170006Ev, symObjAddr: 0x4C, symBinAddr: 0x100001D3C, symSize: 0x2C }
  - { offsetInCU: 0x4789A, offset: 0x4789A, size: 0x8, addend: 0x0, symName: __ZNSt3__110unique_ptrIN3olc8PlatformENS_14default_deleteIS2_EEED1B8ue170006Ev, symObjAddr: 0x78, symBinAddr: 0x100001D68, symSize: 0x2C }
  - { offsetInCU: 0x478C4, offset: 0x478C4, size: 0x8, addend: 0x0, symName: __ZNSt3__13mapImhNS_4lessImEENS_9allocatorINS_4pairIKmhEEEEEC1B8ue170006Ev, symObjAddr: 0xA4, symBinAddr: 0x100001D94, symSize: 0x2C }
  - { offsetInCU: 0x478EE, offset: 0x478EE, size: 0x8, addend: 0x0, symName: __ZNSt3__13mapImhNS_4lessImEENS_9allocatorINS_4pairIKmhEEEEED1B8ue170006Ev, symObjAddr: 0xD0, symBinAddr: 0x100001DC0, symSize: 0x2C }
  - { offsetInCU: 0x47918, offset: 0x47918, size: 0x8, addend: 0x0, symName: __ZN3olc5PixelC2Ev, symObjAddr: 0xFC, symBinAddr: 0x100001DEC, symSize: 0x30 }
  - { offsetInCU: 0x47944, offset: 0x47944, size: 0x8, addend: 0x0, symName: __ZN3olc5PixelC1Ev, symObjAddr: 0x12C, symBinAddr: 0x100001E1C, symSize: 0x2C }
  - { offsetInCU: 0x47970, offset: 0x47970, size: 0x8, addend: 0x0, symName: __ZN3olc5PixelC2Ehhhh, symObjAddr: 0x158, symBinAddr: 0x100001E48, symSize: 0x4C }
  - { offsetInCU: 0x479D8, offset: 0x479D8, size: 0x8, addend: 0x0, symName: __ZN3olc5PixelC2Ej, symObjAddr: 0x1A4, symBinAddr: 0x100001E94, symSize: 0x28 }
  - { offsetInCU: 0x47A13, offset: 0x47A13, size: 0x8, addend: 0x0, symName: __ZN3olc5PixelC1Ej, symObjAddr: 0x1CC, symBinAddr: 0x100001EBC, symSize: 0x34 }
  - { offsetInCU: 0x47A4E, offset: 0x47A4E, size: 0x8, addend: 0x0, symName: __ZNK3olc5PixeleqERKS0_, symObjAddr: 0x200, symBinAddr: 0x100001EF0, symSize: 0x30 }
  - { offsetInCU: 0x47A85, offset: 0x47A85, size: 0x8, addend: 0x0, symName: __ZNK3olc5PixelneERKS0_, symObjAddr: 0x230, symBinAddr: 0x100001F20, symSize: 0x30 }
  - { offsetInCU: 0x47ABC, offset: 0x47ABC, size: 0x8, addend: 0x0, symName: __ZNK3olc5PixelmlEf, symObjAddr: 0x260, symBinAddr: 0x100001F50, symSize: 0x158 }
  - { offsetInCU: 0x47B20, offset: 0x47B20, size: 0x8, addend: 0x0, symName: __ZNK3olc5PixeldvEf, symObjAddr: 0x410, symBinAddr: 0x100002100, symSize: 0x158 }
  - { offsetInCU: 0x47B84, offset: 0x47B84, size: 0x8, addend: 0x0, symName: __ZN3olc5PixelmLEf, symObjAddr: 0x568, symBinAddr: 0x100002258, symSize: 0x134 }
  - { offsetInCU: 0x47BBB, offset: 0x47BBB, size: 0x8, addend: 0x0, symName: __ZN3olc5PixeldVEf, symObjAddr: 0x69C, symBinAddr: 0x10000238C, symSize: 0x134 }
  - { offsetInCU: 0x47BF2, offset: 0x47BF2, size: 0x8, addend: 0x0, symName: __ZNK3olc5PixelplERKS0_, symObjAddr: 0x7D0, symBinAddr: 0x1000024C0, symSize: 0x12C }
  - { offsetInCU: 0x47C56, offset: 0x47C56, size: 0x8, addend: 0x0, symName: __ZNK3olc5PixelmiERKS0_, symObjAddr: 0x954, symBinAddr: 0x100002644, symSize: 0x12C }
  - { offsetInCU: 0x47CBA, offset: 0x47CBA, size: 0x8, addend: 0x0, symName: __ZN3olc5PixelpLERKS0_, symObjAddr: 0xA80, symBinAddr: 0x100002770, symSize: 0x114 }
  - { offsetInCU: 0x47CF1, offset: 0x47CF1, size: 0x8, addend: 0x0, symName: __ZN3olc5PixelmIERKS0_, symObjAddr: 0xB94, symBinAddr: 0x100002884, symSize: 0x114 }
  - { offsetInCU: 0x47D28, offset: 0x47D28, size: 0x8, addend: 0x0, symName: __ZNK3olc5PixelmlERKS0_, symObjAddr: 0xCA8, symBinAddr: 0x100002998, symSize: 0x1CC }
  - { offsetInCU: 0x47D9C, offset: 0x47D9C, size: 0x8, addend: 0x0, symName: __ZN3olc5PixelmLERKS0_, symObjAddr: 0xE74, symBinAddr: 0x100002B64, symSize: 0x1B8 }
  - { offsetInCU: 0x47DD3, offset: 0x47DD3, size: 0x8, addend: 0x0, symName: __ZNK3olc5Pixel3invEv, symObjAddr: 0x102C, symBinAddr: 0x100002D1C, symSize: 0x110 }
  - { offsetInCU: 0x47E28, offset: 0x47E28, size: 0x8, addend: 0x0, symName: __ZN3olc6SpriteC2Ev, symObjAddr: 0x1224, symBinAddr: 0x100002F14, symSize: 0x44 }
  - { offsetInCU: 0x47E54, offset: 0x47E54, size: 0x8, addend: 0x0, symName: __ZNSt3__16vectorIN3olc5PixelENS_9allocatorIS2_EEEC1B8ue170006Ev, symObjAddr: 0x1268, symBinAddr: 0x100002F58, symSize: 0x2C }
  - { offsetInCU: 0x47E7E, offset: 0x47E7E, size: 0x8, addend: 0x0, symName: __ZN3olc6SpriteC1Ev, symObjAddr: 0x1294, symBinAddr: 0x100002F84, symSize: 0x2C }
  - { offsetInCU: 0x47EAA, offset: 0x47EAA, size: 0x8, addend: 0x0, symName: __ZN3olc6SpriteC2ERKNSt3__112basic_stringIcNS1_11char_traitsIcEENS1_9allocatorIcEEEEPNS_12ResourcePackE, symObjAddr: 0x12C0, symBinAddr: 0x100002FB0, symSize: 0x80 }
  - { offsetInCU: 0x47EF4, offset: 0x47EF4, size: 0x8, addend: 0x0, symName: __ZN3olc6Sprite12LoadFromFileERKNSt3__112basic_stringIcNS1_11char_traitsIcEENS1_9allocatorIcEEEEPNS_12ResourcePackE, symObjAddr: 0x1340, symBinAddr: 0x100003030, symSize: 0x50 }
  - { offsetInCU: 0x47F3A, offset: 0x47F3A, size: 0x8, addend: 0x0, symName: __ZNSt3__16vectorIN3olc5PixelENS_9allocatorIS2_EEED1B8ue170006Ev, symObjAddr: 0x1390, symBinAddr: 0x100003080, symSize: 0x2C }
  - { offsetInCU: 0x47F64, offset: 0x47F64, size: 0x8, addend: 0x0, symName: __ZN3olc6SpriteC1ERKNSt3__112basic_stringIcNS1_11char_traitsIcEENS1_9allocatorIcEEEEPNS_12ResourcePackE, symObjAddr: 0x13BC, symBinAddr: 0x1000030AC, symSize: 0x3C }
  - { offsetInCU: 0x47FAE, offset: 0x47FAE, size: 0x8, addend: 0x0, symName: __ZN3olc6SpriteC2Eii, symObjAddr: 0x13F8, symBinAddr: 0x1000030E8, symSize: 0xE8 }
  - { offsetInCU: 0x47FF8, offset: 0x47FF8, size: 0x8, addend: 0x0, symName: __ZNSt3__16vectorIN3olc5PixelENS_9allocatorIS2_EEE6resizeEm, symObjAddr: 0x14E0, symBinAddr: 0x1000031D0, symSize: 0x94 }
  - { offsetInCU: 0x4803E, offset: 0x4803E, size: 0x8, addend: 0x0, symName: __ZNSt3__16vectorIN3olc5PixelENS_9allocatorIS2_EEE6resizeEmRKS2_, symObjAddr: 0x1574, symBinAddr: 0x100003264, symSize: 0x9C }
  - { offsetInCU: 0x48093, offset: 0x48093, size: 0x8, addend: 0x0, symName: __ZN3olc6SpriteC1Eii, symObjAddr: 0x1610, symBinAddr: 0x100003300, symSize: 0x3C }
  - { offsetInCU: 0x480DD, offset: 0x480DD, size: 0x8, addend: 0x0, symName: __ZN3olc6SpriteD2Ev, symObjAddr: 0x164C, symBinAddr: 0x10000333C, symSize: 0x3C }
  - { offsetInCU: 0x48109, offset: 0x48109, size: 0x8, addend: 0x0, symName: __ZNSt3__16vectorIN3olc5PixelENS_9allocatorIS2_EEE5clearB8ue170006Ev, symObjAddr: 0x1688, symBinAddr: 0x100003378, symSize: 0x44 }
  - { offsetInCU: 0x4813E, offset: 0x4813E, size: 0x8, addend: 0x0, symName: __ZN3olc6SpriteD1Ev, symObjAddr: 0x16CC, symBinAddr: 0x1000033BC, symSize: 0x2C }
  - { offsetInCU: 0x4816A, offset: 0x4816A, size: 0x8, addend: 0x0, symName: __ZN3olc6Sprite13SetSampleModeENS0_4ModeE, symObjAddr: 0x16F8, symBinAddr: 0x1000033E8, symSize: 0x20 }
  - { offsetInCU: 0x481A1, offset: 0x481A1, size: 0x8, addend: 0x0, symName: __ZNK3olc6Sprite8GetPixelERKNS_11v2d_genericIiEE, symObjAddr: 0x1718, symBinAddr: 0x100003408, symSize: 0x40 }
  - { offsetInCU: 0x481D8, offset: 0x481D8, size: 0x8, addend: 0x0, symName: __ZNK3olc6Sprite8GetPixelEii, symObjAddr: 0x1758, symBinAddr: 0x100003448, symSize: 0x22C }
  - { offsetInCU: 0x4821E, offset: 0x4821E, size: 0x8, addend: 0x0, symName: __ZN3olc6Sprite8SetPixelERKNS_11v2d_genericIiEENS_5PixelE, symObjAddr: 0x1984, symBinAddr: 0x100003674, symSize: 0x54 }
  - { offsetInCU: 0x48264, offset: 0x48264, size: 0x8, addend: 0x0, symName: __ZN3olc6Sprite8SetPixelEiiNS_5PixelE, symObjAddr: 0x19D8, symBinAddr: 0x1000036C8, symSize: 0xF4 }
  - { offsetInCU: 0x482B9, offset: 0x482B9, size: 0x8, addend: 0x0, symName: __ZNKSt3__16vectorIN3olc5PixelENS_9allocatorIS2_EEEixB8ue170006Em, symObjAddr: 0x1ACC, symBinAddr: 0x1000037BC, symSize: 0x24 }
  - { offsetInCU: 0x482F0, offset: 0x482F0, size: 0x8, addend: 0x0, symName: __ZNSt3__16vectorIN3olc5PixelENS_9allocatorIS2_EEEixB8ue170006Em, symObjAddr: 0x1AF0, symBinAddr: 0x1000037E0, symSize: 0x24 }
  - { offsetInCU: 0x48327, offset: 0x48327, size: 0x8, addend: 0x0, symName: __ZNK3olc6Sprite6SampleEff, symObjAddr: 0x1B14, symBinAddr: 0x100003804, symSize: 0xBC }
  - { offsetInCU: 0x4838B, offset: 0x4838B, size: 0x8, addend: 0x0, symName: __ZNK3olc6Sprite6SampleERKNS_11v2d_genericIfEE, symObjAddr: 0x1BD0, symBinAddr: 0x1000038C0, symSize: 0x40 }
  - { offsetInCU: 0x483C2, offset: 0x483C2, size: 0x8, addend: 0x0, symName: __ZNK3olc6Sprite8SampleBLEff, symObjAddr: 0x1C10, symBinAddr: 0x100003900, symSize: 0x350 }
  - { offsetInCU: 0x484A0, offset: 0x484A0, size: 0x8, addend: 0x0, symName: __Z5floorB8ue170006f, symObjAddr: 0x1F60, symBinAddr: 0x100003C50, symSize: 0x18 }
  - { offsetInCU: 0x484CF, offset: 0x484CF, size: 0x8, addend: 0x0, symName: __ZNK3olc6Sprite8SampleBLERKNS_11v2d_genericIfEE, symObjAddr: 0x1F78, symBinAddr: 0x100003C68, symSize: 0x40 }
  - { offsetInCU: 0x48506, offset: 0x48506, size: 0x8, addend: 0x0, symName: __ZN3olc6Sprite7GetDataEv, symObjAddr: 0x1FB8, symBinAddr: 0x100003CA8, symSize: 0x28 }
  - { offsetInCU: 0x4852E, offset: 0x4852E, size: 0x8, addend: 0x0, symName: __ZNSt3__16vectorIN3olc5PixelENS_9allocatorIS2_EEE4dataB8ue170006Ev, symObjAddr: 0x1FE0, symBinAddr: 0x100003CD0, symSize: 0x28 }
  - { offsetInCU: 0x48554, offset: 0x48554, size: 0x8, addend: 0x0, symName: __ZNKSt3__110unique_ptrIN3olc11ImageLoaderENS_14default_deleteIS2_EEEptB8ue170006Ev, symObjAddr: 0x2008, symBinAddr: 0x100003CF8, symSize: 0x28 }
  - { offsetInCU: 0x4857A, offset: 0x4857A, size: 0x8, addend: 0x0, symName: __ZN3olc6Sprite9DuplicateEv, symObjAddr: 0x2030, symBinAddr: 0x100003D20, symSize: 0xC4 }
  - { offsetInCU: 0x485B1, offset: 0x485B1, size: 0x8, addend: 0x0, symName: __ZN3olc6Sprite9DuplicateERKNS_11v2d_genericIiEES4_, symObjAddr: 0x20F4, symBinAddr: 0x100003DE4, symSize: 0x150 }
  - { offsetInCU: 0x48632, offset: 0x48632, size: 0x8, addend: 0x0, symName: __ZNK3olc6Sprite4SizeEv, symObjAddr: 0x2244, symBinAddr: 0x100003F34, symSize: 0x40 }
  - { offsetInCU: 0x4865A, offset: 0x4865A, size: 0x8, addend: 0x0, symName: __ZN3olc11v2d_genericIiEC1Eii, symObjAddr: 0x2284, symBinAddr: 0x100003F74, symSize: 0x3C }
  - { offsetInCU: 0x486A2, offset: 0x486A2, size: 0x8, addend: 0x0, symName: __ZN3olc5DecalC2EPNS_6SpriteEbb, symObjAddr: 0x22C0, symBinAddr: 0x100003FB0, symSize: 0xF8 }
  - { offsetInCU: 0x486FB, offset: 0x486FB, size: 0x8, addend: 0x0, symName: __ZN3olc11v2d_genericIfEC1Eff, symObjAddr: 0x23B8, symBinAddr: 0x1000040A8, symSize: 0x3C }
  - { offsetInCU: 0x48743, offset: 0x48743, size: 0x8, addend: 0x0, symName: __ZNKSt3__110unique_ptrIN3olc8RendererENS_14default_deleteIS2_EEEptB8ue170006Ev, symObjAddr: 0x23F4, symBinAddr: 0x1000040E4, symSize: 0x28 }
  - { offsetInCU: 0x48769, offset: 0x48769, size: 0x8, addend: 0x0, symName: __ZN3olc5Decal6UpdateEv, symObjAddr: 0x241C, symBinAddr: 0x10000410C, symSize: 0xC0 }
  - { offsetInCU: 0x48791, offset: 0x48791, size: 0x8, addend: 0x0, symName: __ZN3olc5DecalC1EPNS_6SpriteEbb, symObjAddr: 0x24DC, symBinAddr: 0x1000041CC, symSize: 0x58 }
  - { offsetInCU: 0x487EA, offset: 0x487EA, size: 0x8, addend: 0x0, symName: __ZN3olc5DecalC2EjPNS_6SpriteE, symObjAddr: 0x2534, symBinAddr: 0x100004224, symSize: 0x8C }
  - { offsetInCU: 0x48834, offset: 0x48834, size: 0x8, addend: 0x0, symName: __ZN3olc5DecalC1EjPNS_6SpriteE, symObjAddr: 0x25C0, symBinAddr: 0x1000042B0, symSize: 0x3C }
  - { offsetInCU: 0x4887E, offset: 0x4887E, size: 0x8, addend: 0x0, symName: __ZN3olc5Decal12UpdateSpriteEv, symObjAddr: 0x25FC, symBinAddr: 0x1000042EC, symSize: 0x84 }
  - { offsetInCU: 0x488A6, offset: 0x488A6, size: 0x8, addend: 0x0, symName: __ZN3olc5DecalD2Ev, symObjAddr: 0x2680, symBinAddr: 0x100004370, symSize: 0x8C }
  - { offsetInCU: 0x488D2, offset: 0x488D2, size: 0x8, addend: 0x0, symName: __ZN3olc5DecalD1Ev, symObjAddr: 0x2718, symBinAddr: 0x100004408, symSize: 0x2C }
  - { offsetInCU: 0x488FE, offset: 0x488FE, size: 0x8, addend: 0x0, symName: __ZN3olc5DecalD0Ev, symObjAddr: 0x2744, symBinAddr: 0x100004434, symSize: 0x30 }
  - { offsetInCU: 0x4892A, offset: 0x4892A, size: 0x8, addend: 0x0, symName: __ZN3olc10Renderable6CreateEjjbb, symObjAddr: 0x2774, symBinAddr: 0x100004464, symSize: 0xB8 }
  - { offsetInCU: 0x4898E, offset: 0x4898E, size: 0x8, addend: 0x0, symName: __ZNSt3__110unique_ptrIN3olc6SpriteENS_14default_deleteIS2_EEEaSB8ue170006EOS5_, symObjAddr: 0x28A8, symBinAddr: 0x100004598, symSize: 0x50 }
  - { offsetInCU: 0x489C2, offset: 0x489C2, size: 0x8, addend: 0x0, symName: __ZNSt3__110unique_ptrIN3olc6SpriteENS_14default_deleteIS2_EEED1B8ue170006Ev, symObjAddr: 0x28F8, symBinAddr: 0x1000045E8, symSize: 0x2C }
  - { offsetInCU: 0x489EC, offset: 0x489EC, size: 0x8, addend: 0x0, symName: __ZNKSt3__110unique_ptrIN3olc6SpriteENS_14default_deleteIS2_EEE3getB8ue170006Ev, symObjAddr: 0x29B4, symBinAddr: 0x1000046A4, symSize: 0x28 }
  - { offsetInCU: 0x48A12, offset: 0x48A12, size: 0x8, addend: 0x0, symName: __ZNSt3__110unique_ptrIN3olc5DecalENS_14default_deleteIS2_EEEaSB8ue170006EOS5_, symObjAddr: 0x29DC, symBinAddr: 0x1000046CC, symSize: 0x50 }
  - { offsetInCU: 0x48A46, offset: 0x48A46, size: 0x8, addend: 0x0, symName: __ZNSt3__110unique_ptrIN3olc5DecalENS_14default_deleteIS2_EEED1B8ue170006Ev, symObjAddr: 0x2A2C, symBinAddr: 0x10000471C, symSize: 0x2C }
  - { offsetInCU: 0x48A70, offset: 0x48A70, size: 0x8, addend: 0x0, symName: __ZN3olc10Renderable4LoadERKNSt3__112basic_stringIcNS1_11char_traitsIcEENS1_9allocatorIcEEEEPNS_12ResourcePackEbb, symObjAddr: 0x2A58, symBinAddr: 0x100004748, symSize: 0xF4 }
  - { offsetInCU: 0x48AD4, offset: 0x48AD4, size: 0x8, addend: 0x0, symName: __ZNKSt3__110unique_ptrIN3olc6SpriteENS_14default_deleteIS2_EEEptB8ue170006Ev, symObjAddr: 0x2B88, symBinAddr: 0x100004878, symSize: 0x28 }
  - { offsetInCU: 0x48AFA, offset: 0x48AFA, size: 0x8, addend: 0x0, symName: __ZNSt3__110unique_ptrIN3olc6SpriteENS_14default_deleteIS2_EEE7releaseB8ue170006Ev, symObjAddr: 0x2BB0, symBinAddr: 0x1000048A0, symSize: 0x44 }
  - { offsetInCU: 0x48B2F, offset: 0x48B2F, size: 0x8, addend: 0x0, symName: __ZNSt3__110unique_ptrIN3olc6SpriteENS_14default_deleteIS2_EEEaSB8ue170006EDn, symObjAddr: 0x2BF4, symBinAddr: 0x1000048E4, symSize: 0x34 }
  - { offsetInCU: 0x48B61, offset: 0x48B61, size: 0x8, addend: 0x0, symName: __ZNK3olc10Renderable5DecalEv, symObjAddr: 0x2C28, symBinAddr: 0x100004918, symSize: 0x28 }
  - { offsetInCU: 0x48B89, offset: 0x48B89, size: 0x8, addend: 0x0, symName: __ZNKSt3__110unique_ptrIN3olc5DecalENS_14default_deleteIS2_EEE3getB8ue170006Ev, symObjAddr: 0x2C50, symBinAddr: 0x100004940, symSize: 0x28 }
  - { offsetInCU: 0x48BAF, offset: 0x48BAF, size: 0x8, addend: 0x0, symName: __ZNK3olc10Renderable6SpriteEv, symObjAddr: 0x2C78, symBinAddr: 0x100004968, symSize: 0x24 }
  - { offsetInCU: 0x48BD7, offset: 0x48BD7, size: 0x8, addend: 0x0, symName: __ZN3olc14ResourceBufferC2ERNSt3__114basic_ifstreamIcNS1_11char_traitsIcEEEEjj, symObjAddr: 0x2C9C, symBinAddr: 0x10000498C, symSize: 0x190 }
  - { offsetInCU: 0x48C34, offset: 0x48C34, size: 0x8, addend: 0x0, symName: __ZNSt3__16vectorIcNS_9allocatorIcEEEC1B8ue170006Ev, symObjAddr: 0x2E2C, symBinAddr: 0x100004B1C, symSize: 0x2C }
  - { offsetInCU: 0x48C5E, offset: 0x48C5E, size: 0x8, addend: 0x0, symName: __ZNSt3__16vectorIcNS_9allocatorIcEEE6resizeEm, symObjAddr: 0x2E58, symBinAddr: 0x100004B48, symSize: 0x94 }
  - { offsetInCU: 0x48CA4, offset: 0x48CA4, size: 0x8, addend: 0x0, symName: __ZNSt3__14fposI11__mbstate_tEC1B8ue170006Ex, symObjAddr: 0x2EEC, symBinAddr: 0x100004BDC, symSize: 0x34 }
  - { offsetInCU: 0x48CDC, offset: 0x48CDC, size: 0x8, addend: 0x0, symName: __ZNSt3__16vectorIcNS_9allocatorIcEEE4dataB8ue170006Ev, symObjAddr: 0x2F20, symBinAddr: 0x100004C10, symSize: 0x28 }
  - { offsetInCU: 0x48D02, offset: 0x48D02, size: 0x8, addend: 0x0, symName: __ZNKSt3__16vectorIcNS_9allocatorIcEEE4sizeB8ue170006Ev, symObjAddr: 0x2F48, symBinAddr: 0x100004C38, symSize: 0x20 }
  - { offsetInCU: 0x48D28, offset: 0x48D28, size: 0x8, addend: 0x0, symName: __ZNSt3__115basic_streambufIcNS_11char_traitsIcEEE4setgB8ue170006EPcS4_S4_, symObjAddr: 0x2F68, symBinAddr: 0x100004C58, symSize: 0x38 }
  - { offsetInCU: 0x48D78, offset: 0x48D78, size: 0x8, addend: 0x0, symName: __ZNSt3__16vectorIcNS_9allocatorIcEEED1B8ue170006Ev, symObjAddr: 0x2FA0, symBinAddr: 0x100004C90, symSize: 0x2C }
  - { offsetInCU: 0x48DA2, offset: 0x48DA2, size: 0x8, addend: 0x0, symName: __ZN3olc14ResourceBufferC1ERNSt3__114basic_ifstreamIcNS1_11char_traitsIcEEEEjj, symObjAddr: 0x2FCC, symBinAddr: 0x100004CBC, symSize: 0x44 }
  - { offsetInCU: 0x48DFB, offset: 0x48DFB, size: 0x8, addend: 0x0, symName: __ZN3olc12ResourcePackC2Ev, symObjAddr: 0x3010, symBinAddr: 0x100004D00, symSize: 0x90 }
  - { offsetInCU: 0x48E27, offset: 0x48E27, size: 0x8, addend: 0x0, symName: __ZNSt3__13mapINS_12basic_stringIcNS_11char_traitsIcEENS_9allocatorIcEEEEN3olc12ResourcePack13sResourceFileENS_4lessIS6_EENS4_INS_4pairIKS6_S9_EEEEEC1B8ue170006Ev, symObjAddr: 0x30A0, symBinAddr: 0x100004D90, symSize: 0x2C }
  - { offsetInCU: 0x48E51, offset: 0x48E51, size: 0x8, addend: 0x0, symName: __ZNSt3__114basic_ifstreamIcNS_11char_traitsIcEEEC1Ev, symObjAddr: 0x30CC, symBinAddr: 0x100004DBC, symSize: 0xE8 }
  - { offsetInCU: 0x48E7D, offset: 0x48E7D, size: 0x8, addend: 0x0, symName: __ZNSt3__13mapINS_12basic_stringIcNS_11char_traitsIcEENS_9allocatorIcEEEEN3olc12ResourcePack13sResourceFileENS_4lessIS6_EENS4_INS_4pairIKS6_S9_EEEEED1B8ue170006Ev, symObjAddr: 0x31B4, symBinAddr: 0x100004EA4, symSize: 0x2C }
  - { offsetInCU: 0x48EA7, offset: 0x48EA7, size: 0x8, addend: 0x0, symName: __ZN3olc12ResourcePackC1Ev, symObjAddr: 0x31E0, symBinAddr: 0x100004ED0, symSize: 0x2C }
  - { offsetInCU: 0x48ED3, offset: 0x48ED3, size: 0x8, addend: 0x0, symName: __ZN3olc12ResourcePackD2Ev, symObjAddr: 0x320C, symBinAddr: 0x100004EFC, symSize: 0x68 }
  - { offsetInCU: 0x48EFF, offset: 0x48EFF, size: 0x8, addend: 0x0, symName: __ZNSt3__114basic_ifstreamIcNS_11char_traitsIcEEE5closeEv, symObjAddr: 0x3274, symBinAddr: 0x100004F64, symSize: 0x58 }
  - { offsetInCU: 0x48F2C, offset: 0x48F2C, size: 0x8, addend: 0x0, symName: __ZNSt3__114basic_ifstreamIcNS_11char_traitsIcEEED1Ev, symObjAddr: 0x32CC, symBinAddr: 0x100004FBC, symSize: 0x40 }
  - { offsetInCU: 0x48F59, offset: 0x48F59, size: 0x8, addend: 0x0, symName: __ZN3olc12ResourcePackD1Ev, symObjAddr: 0x330C, symBinAddr: 0x100004FFC, symSize: 0x2C }
  - { offsetInCU: 0x48F85, offset: 0x48F85, size: 0x8, addend: 0x0, symName: __ZN3olc12ResourcePackD0Ev, symObjAddr: 0x3338, symBinAddr: 0x100005028, symSize: 0x30 }
  - { offsetInCU: 0x48FB1, offset: 0x48FB1, size: 0x8, addend: 0x0, symName: __ZN3olc12ResourcePack7AddFileERKNSt3__112basic_stringIcNS1_11char_traitsIcEENS1_9allocatorIcEEEE, symObjAddr: 0x3368, symBinAddr: 0x100005058, symSize: 0x168 }
  - { offsetInCU: 0x4900E, offset: 0x4900E, size: 0x8, addend: 0x0, symName: __ZN3olc12ResourcePack9makeposixERKNSt3__112basic_stringIcNS1_11char_traitsIcEENS1_9allocatorIcEEEE, symObjAddr: 0x34D0, symBinAddr: 0x1000051C0, symSize: 0x160 }
  - { offsetInCU: 0x490A1, offset: 0x490A1, size: 0x8, addend: 0x0, symName: __ZNSt3__14__fs10filesystem4pathC1B8ue170006INS_12basic_stringIcNS_11char_traitsIcEENS_9allocatorIcEEEEvEERKT_NS2_6formatE, symObjAddr: 0x3680, symBinAddr: 0x100005370, symSize: 0x3C }
  - { offsetInCU: 0x490F0, offset: 0x490F0, size: 0x8, addend: 0x0, symName: __ZNSt3__14__fs10filesystem4pathD1B8ue170006Ev, symObjAddr: 0x36BC, symBinAddr: 0x1000053AC, symSize: 0x2C }
  - { offsetInCU: 0x4911A, offset: 0x4911A, size: 0x8, addend: 0x0, symName: __ZNSt3__13mapINS_12basic_stringIcNS_11char_traitsIcEENS_9allocatorIcEEEEN3olc12ResourcePack13sResourceFileENS_4lessIS6_EENS4_INS_4pairIKS6_S9_EEEEEixERSD_, symObjAddr: 0x3710, symBinAddr: 0x100005400, symSize: 0x80 }
  - { offsetInCU: 0x49151, offset: 0x49151, size: 0x8, addend: 0x0, symName: __ZN3olc12ResourcePack8LoadPackERKNSt3__112basic_stringIcNS1_11char_traitsIcEENS1_9allocatorIcEEEES9_, symObjAddr: 0x3790, symBinAddr: 0x100005480, symSize: 0x2E8 }
  - { offsetInCU: 0x492EB, offset: 0x492EB, size: 0x8, addend: 0x0, symName: __ZNKSt3__114basic_ifstreamIcNS_11char_traitsIcEEE7is_openEv, symObjAddr: 0x3A78, symBinAddr: 0x100005768, symSize: 0x2C }
  - { offsetInCU: 0x49313, offset: 0x49313, size: 0x8, addend: 0x0, symName: __ZNSt3__16vectorIcNS_9allocatorIcEEEC1Em, symObjAddr: 0x3AA4, symBinAddr: 0x100005794, symSize: 0x34 }
  - { offsetInCU: 0x4934E, offset: 0x4934E, size: 0x8, addend: 0x0, symName: __ZNSt3__16vectorIcNS_9allocatorIcEEEixB8ue170006Em, symObjAddr: 0x3AD8, symBinAddr: 0x1000057C8, symSize: 0x24 }
  - { offsetInCU: 0x49385, offset: 0x49385, size: 0x8, addend: 0x0, symName: __ZN3olc12ResourcePack8scrambleERKNSt3__16vectorIcNS1_9allocatorIcEEEERKNS1_12basic_stringIcNS1_11char_traitsIcEES4_EE, symObjAddr: 0x3AFC, symBinAddr: 0x1000057EC, symSize: 0x178 }
  - { offsetInCU: 0x49446, offset: 0x49446, size: 0x8, addend: 0x0, symName: '__ZZN3olc12ResourcePack8LoadPackERKNSt3__112basic_stringIcNS1_11char_traitsIcEENS1_9allocatorIcEEEES9_ENK3$_1clEPcm', symObjAddr: 0x3C74, symBinAddr: 0x100005964, symSize: 0x74 }
  - { offsetInCU: 0x4948E, offset: 0x4948E, size: 0x8, addend: 0x0, symName: __ZNSt3__112basic_stringIcNS_11char_traitsIcEENS_9allocatorIcEEEC1B8ue170006Emc, symObjAddr: 0x3CE8, symBinAddr: 0x1000059D8, symSize: 0x3C }
  - { offsetInCU: 0x494E5, offset: 0x494E5, size: 0x8, addend: 0x0, symName: '__ZZN3olc12ResourcePack8LoadPackERKNSt3__112basic_stringIcNS1_11char_traitsIcEENS1_9allocatorIcEEEES9_ENK3$_2clEv', symObjAddr: 0x3D24, symBinAddr: 0x100005A14, symSize: 0x34 }
  - { offsetInCU: 0x4951E, offset: 0x4951E, size: 0x8, addend: 0x0, symName: __ZNSt3__112basic_stringIcNS_11char_traitsIcEENS_9allocatorIcEEEixB8ue170006Em, symObjAddr: 0x3D58, symBinAddr: 0x100005A48, symSize: 0x30 }
  - { offsetInCU: 0x49553, offset: 0x49553, size: 0x8, addend: 0x0, symName: __ZN3olc12ResourcePack8SavePackERKNSt3__112basic_stringIcNS1_11char_traitsIcEENS1_9allocatorIcEEEES9_, symObjAddr: 0x3D88, symBinAddr: 0x100005A78, symSize: 0x5DC }
  - { offsetInCU: 0x497C9, offset: 0x497C9, size: 0x8, addend: 0x0, symName: __ZNSt3__114basic_ofstreamIcNS_11char_traitsIcEEEC1ERKNS_12basic_stringIcS2_NS_9allocatorIcEEEEj, symObjAddr: 0x4364, symBinAddr: 0x100006054, symSize: 0x16C }
  - { offsetInCU: 0x49813, offset: 0x49813, size: 0x8, addend: 0x0, symName: __ZNKSt3__114basic_ofstreamIcNS_11char_traitsIcEEE7is_openEv, symObjAddr: 0x44D0, symBinAddr: 0x1000061C0, symSize: 0x2C }
  - { offsetInCU: 0x4983B, offset: 0x4983B, size: 0x8, addend: 0x0, symName: __ZNKSt3__13mapINS_12basic_stringIcNS_11char_traitsIcEENS_9allocatorIcEEEEN3olc12ResourcePack13sResourceFileENS_4lessIS6_EENS4_INS_4pairIKS6_S9_EEEEE4sizeB8ue170006Ev, symObjAddr: 0x44FC, symBinAddr: 0x1000061EC, symSize: 0x28 }
  - { offsetInCU: 0x49861, offset: 0x49861, size: 0x8, addend: 0x0, symName: __ZNSt3__13mapINS_12basic_stringIcNS_11char_traitsIcEENS_9allocatorIcEEEEN3olc12ResourcePack13sResourceFileENS_4lessIS6_EENS4_INS_4pairIKS6_S9_EEEEE5beginB8ue170006Ev, symObjAddr: 0x4524, symBinAddr: 0x100006214, symSize: 0x38 }
  - { offsetInCU: 0x49887, offset: 0x49887, size: 0x8, addend: 0x0, symName: __ZNSt3__13mapINS_12basic_stringIcNS_11char_traitsIcEENS_9allocatorIcEEEEN3olc12ResourcePack13sResourceFileENS_4lessIS6_EENS4_INS_4pairIKS6_S9_EEEEE3endB8ue170006Ev, symObjAddr: 0x455C, symBinAddr: 0x10000624C, symSize: 0x38 }
  - { offsetInCU: 0x498AD, offset: 0x498AD, size: 0x8, addend: 0x0, symName: __ZNKSt3__114__map_iteratorINS_15__tree_iteratorINS_12__value_typeINS_12basic_stringIcNS_11char_traitsIcEENS_9allocatorIcEEEEN3olc12ResourcePack13sResourceFileEEEPNS_11__tree_nodeISC_PvEElEEEdeB8ue170006Ev, symObjAddr: 0x45C4, symBinAddr: 0x1000062B4, symSize: 0x28 }
  - { offsetInCU: 0x498D3, offset: 0x498D3, size: 0x8, addend: 0x0, symName: __ZNKSt3__112basic_stringIcNS_11char_traitsIcEENS_9allocatorIcEEE4sizeB8ue170006Ev, symObjAddr: 0x45EC, symBinAddr: 0x1000062DC, symSize: 0x54 }
  - { offsetInCU: 0x498F9, offset: 0x498F9, size: 0x8, addend: 0x0, symName: __ZNKSt3__112basic_stringIcNS_11char_traitsIcEENS_9allocatorIcEEE5c_strB8ue170006Ev, symObjAddr: 0x4640, symBinAddr: 0x100006330, symSize: 0x24 }
  - { offsetInCU: 0x4991F, offset: 0x4991F, size: 0x8, addend: 0x0, symName: __ZNSt3__114__map_iteratorINS_15__tree_iteratorINS_12__value_typeINS_12basic_stringIcNS_11char_traitsIcEENS_9allocatorIcEEEEN3olc12ResourcePack13sResourceFileEEEPNS_11__tree_nodeISC_PvEElEEEppB8ue170006Ev, symObjAddr: 0x4664, symBinAddr: 0x100006354, symSize: 0x2C }
  - { offsetInCU: 0x49945, offset: 0x49945, size: 0x8, addend: 0x0, symName: __ZNSt3__113basic_ostreamIcNS_11char_traitsIcEEE5tellpEv, symObjAddr: 0x4690, symBinAddr: 0x100006380, symSize: 0x7C }
  - { offsetInCU: 0x4996D, offset: 0x4996D, size: 0x8, addend: 0x0, symName: __ZNKSt3__14fposI11__mbstate_tEcvxB8ue170006Ev, symObjAddr: 0x470C, symBinAddr: 0x1000063FC, symSize: 0x18 }
  - { offsetInCU: 0x49993, offset: 0x49993, size: 0x8, addend: 0x0, symName: __ZNSt3__16vectorIhNS_9allocatorIhEEEC1Em, symObjAddr: 0x4724, symBinAddr: 0x100006414, symSize: 0x34 }
  - { offsetInCU: 0x499CE, offset: 0x499CE, size: 0x8, addend: 0x0, symName: __ZNSt3__114basic_ifstreamIcNS_11char_traitsIcEEEC1ERKNS_12basic_stringIcS2_NS_9allocatorIcEEEEj, symObjAddr: 0x4758, symBinAddr: 0x100006448, symSize: 0x16C }
  - { offsetInCU: 0x49A18, offset: 0x49A18, size: 0x8, addend: 0x0, symName: __ZNSt3__16vectorIhNS_9allocatorIhEEE4dataB8ue170006Ev, symObjAddr: 0x48C4, symBinAddr: 0x1000065B4, symSize: 0x28 }
  - { offsetInCU: 0x49A3E, offset: 0x49A3E, size: 0x8, addend: 0x0, symName: __ZNSt3__14fposI11__mbstate_tEpLB8ue170006Ex, symObjAddr: 0x48EC, symBinAddr: 0x1000065DC, symSize: 0x28 }
  - { offsetInCU: 0x49A72, offset: 0x49A72, size: 0x8, addend: 0x0, symName: __ZNSt3__16vectorIhNS_9allocatorIhEEED1B8ue170006Ev, symObjAddr: 0x4914, symBinAddr: 0x100006604, symSize: 0x2C }
  - { offsetInCU: 0x49AA6, offset: 0x49AA6, size: 0x8, addend: 0x0, symName: '__ZZN3olc12ResourcePack8SavePackERKNSt3__112basic_stringIcNS1_11char_traitsIcEENS1_9allocatorIcEEEES9_ENK3$_3clEPKcm', symObjAddr: 0x4940, symBinAddr: 0x100006630, symSize: 0x70 }
  - { offsetInCU: 0x49AFD, offset: 0x49AFD, size: 0x8, addend: 0x0, symName: __ZNSt3__113basic_ostreamIcNS_11char_traitsIcEEE5seekpExNS_8ios_base7seekdirE, symObjAddr: 0x49B0, symBinAddr: 0x1000066A0, symSize: 0x150 }
  - { offsetInCU: 0x49B55, offset: 0x49B55, size: 0x8, addend: 0x0, symName: __ZNSt3__114basic_ofstreamIcNS_11char_traitsIcEEE5closeEv, symObjAddr: 0x4B00, symBinAddr: 0x1000067F0, symSize: 0x58 }
  - { offsetInCU: 0x49B82, offset: 0x49B82, size: 0x8, addend: 0x0, symName: __ZNSt3__114basic_ofstreamIcNS_11char_traitsIcEEED1Ev, symObjAddr: 0x4B58, symBinAddr: 0x100006848, symSize: 0x40 }
  - { offsetInCU: 0x49BAF, offset: 0x49BAF, size: 0x8, addend: 0x0, symName: __ZN3olc12ResourcePack13GetFileBufferERKNSt3__112basic_stringIcNS1_11char_traitsIcEENS1_9allocatorIcEEEE, symObjAddr: 0x4B98, symBinAddr: 0x100006888, symSize: 0x70 }
  - { offsetInCU: 0x49BE6, offset: 0x49BE6, size: 0x8, addend: 0x0, symName: __ZN3olc12ResourcePack6LoadedEv, symObjAddr: 0x4C08, symBinAddr: 0x1000068F8, symSize: 0x2C }
  - { offsetInCU: 0x49C0E, offset: 0x49C0E, size: 0x8, addend: 0x0, symName: __ZNKSt3__112basic_stringIcNS_11char_traitsIcEENS_9allocatorIcEEE5emptyB8ue170006Ev, symObjAddr: 0x4C34, symBinAddr: 0x100006924, symSize: 0x30 }
  - { offsetInCU: 0x49C34, offset: 0x49C34, size: 0x8, addend: 0x0, symName: __ZNSt3__16vectorIcNS_9allocatorIcEEEC1ERKS3_, symObjAddr: 0x4C64, symBinAddr: 0x100006954, symSize: 0x34 }
  - { offsetInCU: 0x49C6F, offset: 0x49C6F, size: 0x8, addend: 0x0, symName: __ZNKSt3__16vectorIcNS_9allocatorIcEEE5beginB8ue170006Ev, symObjAddr: 0x4C98, symBinAddr: 0x100006988, symSize: 0x30 }
  - { offsetInCU: 0x49C97, offset: 0x49C97, size: 0x8, addend: 0x0, symName: __ZNKSt3__16vectorIcNS_9allocatorIcEEE3endB8ue170006Ev, symObjAddr: 0x4CC8, symBinAddr: 0x1000069B8, symSize: 0x30 }
  - { offsetInCU: 0x49CBF, offset: 0x49CBF, size: 0x8, addend: 0x0, symName: __ZNKSt3__111__wrap_iterIPKcEdeB8ue170006Ev, symObjAddr: 0x4D2C, symBinAddr: 0x100006A1C, symSize: 0x18 }
  - { offsetInCU: 0x49CE5, offset: 0x49CE5, size: 0x8, addend: 0x0, symName: __ZNSt3__16vectorIcNS_9allocatorIcEEE9push_backB8ue170006EOc, symObjAddr: 0x4D44, symBinAddr: 0x100006A34, symSize: 0x6C }
  - { offsetInCU: 0x49D1C, offset: 0x49D1C, size: 0x8, addend: 0x0, symName: __ZNKSt3__112basic_stringIcNS_11char_traitsIcEENS_9allocatorIcEEEixB8ue170006Em, symObjAddr: 0x4DB0, symBinAddr: 0x100006AA0, symSize: 0x30 }
  - { offsetInCU: 0x49D51, offset: 0x49D51, size: 0x8, addend: 0x0, symName: __ZNSt3__111__wrap_iterIPKcEppB8ue170006Ev, symObjAddr: 0x4DE0, symBinAddr: 0x100006AD0, symSize: 0x20 }
  - { offsetInCU: 0x49D77, offset: 0x49D77, size: 0x8, addend: 0x0, symName: __ZNSt3__112basic_stringIcNS_11char_traitsIcEENS_9allocatorIcEEEC1B8ue170006Ev, symObjAddr: 0x4E00, symBinAddr: 0x100006AF0, symSize: 0x2C }
  - { offsetInCU: 0x49DA1, offset: 0x49DA1, size: 0x8, addend: 0x0, symName: __ZNKSt3__112basic_stringIcNS_11char_traitsIcEENS_9allocatorIcEEE5beginB8ue170006Ev, symObjAddr: 0x4E2C, symBinAddr: 0x100006B1C, symSize: 0x4C }
  - { offsetInCU: 0x49DC7, offset: 0x49DC7, size: 0x8, addend: 0x0, symName: __ZNKSt3__112basic_stringIcNS_11char_traitsIcEENS_9allocatorIcEEE3endB8ue170006Ev, symObjAddr: 0x4E78, symBinAddr: 0x100006B68, symSize: 0x54 }
  - { offsetInCU: 0x49DED, offset: 0x49DED, size: 0x8, addend: 0x0, symName: __ZNSt3__112basic_stringIcNS_11char_traitsIcEENS_9allocatorIcEEEpLB8ue170006ERKS5_, symObjAddr: 0x4ECC, symBinAddr: 0x100006BBC, symSize: 0x2C }
  - { offsetInCU: 0x49E22, offset: 0x49E22, size: 0x8, addend: 0x0, symName: __ZN3olc15PixelGameEngineC2Ev, symObjAddr: 0x4EF8, symBinAddr: 0x100006BE8, symSize: 0x5F8 }
  - { offsetInCU: 0x49E4E, offset: 0x49E4E, size: 0x8, addend: 0x0, symName: __ZN3olc10RenderableC1Ev, symObjAddr: 0x54F0, symBinAddr: 0x1000071E0, symSize: 0x2C }
  - { offsetInCU: 0x49E78, offset: 0x49E78, size: 0x8, addend: 0x0, symName: __ZNSt3__16vectorIN3olc9LayerDescENS_9allocatorIS2_EEEC1B8ue170006Ev, symObjAddr: 0x551C, symBinAddr: 0x10000720C, symSize: 0x2C }
  - { offsetInCU: 0x49EA2, offset: 0x49EA2, size: 0x8, addend: 0x0, symName: __ZNSt3__18functionIFN3olc5PixelEiiRKS2_S4_EEC1B8ue170006Ev, symObjAddr: 0x5548, symBinAddr: 0x100007238, symSize: 0x2C }
  - { offsetInCU: 0x49ECC, offset: 0x49ECC, size: 0x8, addend: 0x0, symName: __ZNSt3__16chrono10time_pointINS0_12system_clockENS0_8durationIxNS_5ratioILl1ELl1000000EEEEEEC1B8ue170006Ev, symObjAddr: 0x5574, symBinAddr: 0x100007264, symSize: 0x2C }
  - { offsetInCU: 0x49EF6, offset: 0x49EF6, size: 0x8, addend: 0x0, symName: __ZNSt3__16vectorIN3olc11v2d_genericIiEENS_9allocatorIS3_EEEC1B8ue170006Ev, symObjAddr: 0x55A0, symBinAddr: 0x100007290, symSize: 0x2C }
  - { offsetInCU: 0x49F20, offset: 0x49F20, size: 0x8, addend: 0x0, symName: __ZNSt3__16vectorINS_12basic_stringIcNS_11char_traitsIcEENS_9allocatorIcEEEENS4_IS6_EEEC1B8ue170006Ev, symObjAddr: 0x55CC, symBinAddr: 0x1000072BC, symSize: 0x2C }
  - { offsetInCU: 0x49F4A, offset: 0x49F4A, size: 0x8, addend: 0x0, symName: __ZN3olc11v2d_genericIiEC1Ev, symObjAddr: 0x55F8, symBinAddr: 0x1000072E8, symSize: 0x2C }
  - { offsetInCU: 0x49F74, offset: 0x49F74, size: 0x8, addend: 0x0, symName: __ZNSt3__118basic_stringstreamIcNS_11char_traitsIcEENS_9allocatorIcEEEC1B8ue170006Ev, symObjAddr: 0x5624, symBinAddr: 0x100007314, symSize: 0x104 }
  - { offsetInCU: 0x49F9E, offset: 0x49F9E, size: 0x8, addend: 0x0, symName: __ZNSt3__14listINS_12basic_stringIcNS_11char_traitsIcEENS_9allocatorIcEEEENS4_IS6_EEEC1B8ue170006Ev, symObjAddr: 0x5728, symBinAddr: 0x100007418, symSize: 0x2C }
  - { offsetInCU: 0x49FC8, offset: 0x49FC8, size: 0x8, addend: 0x0, symName: __ZNSt3__115__list_iteratorINS_12basic_stringIcNS_11char_traitsIcEENS_9allocatorIcEEEEPvEC1B8ue170006Ev, symObjAddr: 0x5754, symBinAddr: 0x100007444, symSize: 0x2C }
  - { offsetInCU: 0x49FF7, offset: 0x49FF7, size: 0x8, addend: 0x0, symName: __ZNSt3__112basic_stringIcNS_11char_traitsIcEENS_9allocatorIcEEEC1B8ue170006ILi0EEEPKc, symObjAddr: 0x5780, symBinAddr: 0x100007470, symSize: 0x34 }
  - { offsetInCU: 0x4A036, offset: 0x4A036, size: 0x8, addend: 0x0, symName: __ZNSt3__16vectorINS_5tupleIJN3olc3KeyENS_12basic_stringIcNS_11char_traitsIcEENS_9allocatorIcEEEES9_EEENS7_ISA_EEEC1B8ue170006Ev, symObjAddr: 0x57B4, symBinAddr: 0x1000074A4, symSize: 0x2C }
  - { offsetInCU: 0x4A060, offset: 0x4A060, size: 0x8, addend: 0x0, symName: __ZNSt3__16vectorIPN3olc4PGEXENS_9allocatorIS3_EEEC1B8ue170006Ev, symObjAddr: 0x57E0, symBinAddr: 0x1000074D0, symSize: 0x2C }
  - { offsetInCU: 0x4A08A, offset: 0x4A08A, size: 0x8, addend: 0x0, symName: __ZNSt3__112basic_stringIcNS_11char_traitsIcEENS_9allocatorIcEEEaSB8ue170006EPKc, symObjAddr: 0x580C, symBinAddr: 0x1000074FC, symSize: 0x2C }
  - { offsetInCU: 0x4A0BF, offset: 0x4A0BF, size: 0x8, addend: 0x0, symName: __ZNSt3__16vectorIPN3olc4PGEXENS_9allocatorIS3_EEED1B8ue170006Ev, symObjAddr: 0x5838, symBinAddr: 0x100007528, symSize: 0x2C }
  - { offsetInCU: 0x4A0E9, offset: 0x4A0E9, size: 0x8, addend: 0x0, symName: __ZNSt3__16vectorINS_5tupleIJN3olc3KeyENS_12basic_stringIcNS_11char_traitsIcEENS_9allocatorIcEEEES9_EEENS7_ISA_EEED1B8ue170006Ev, symObjAddr: 0x5864, symBinAddr: 0x100007554, symSize: 0x2C }
  - { offsetInCU: 0x4A113, offset: 0x4A113, size: 0x8, addend: 0x0, symName: __ZNSt3__14listINS_12basic_stringIcNS_11char_traitsIcEENS_9allocatorIcEEEENS4_IS6_EEED1Ev, symObjAddr: 0x5890, symBinAddr: 0x100007580, symSize: 0x2C }
  - { offsetInCU: 0x4A140, offset: 0x4A140, size: 0x8, addend: 0x0, symName: __ZNSt3__16vectorINS_12basic_stringIcNS_11char_traitsIcEENS_9allocatorIcEEEENS4_IS6_EEED1B8ue170006Ev, symObjAddr: 0x58BC, symBinAddr: 0x1000075AC, symSize: 0x2C }
  - { offsetInCU: 0x4A16F, offset: 0x4A16F, size: 0x8, addend: 0x0, symName: __ZNSt3__118basic_stringstreamIcNS_11char_traitsIcEENS_9allocatorIcEEED1Ev, symObjAddr: 0x58E8, symBinAddr: 0x1000075D8, symSize: 0x40 }
  - { offsetInCU: 0x4A19C, offset: 0x4A19C, size: 0x8, addend: 0x0, symName: __ZNSt3__16vectorIN3olc11v2d_genericIiEENS_9allocatorIS3_EEED1B8ue170006Ev, symObjAddr: 0x5928, symBinAddr: 0x100007618, symSize: 0x2C }
  - { offsetInCU: 0x4A1C6, offset: 0x4A1C6, size: 0x8, addend: 0x0, symName: __ZNSt3__18functionIFN3olc5PixelEiiRKS2_S4_EED1Ev, symObjAddr: 0x5954, symBinAddr: 0x100007644, symSize: 0x2C }
  - { offsetInCU: 0x4A1F2, offset: 0x4A1F2, size: 0x8, addend: 0x0, symName: __ZNSt3__16vectorIN3olc9LayerDescENS_9allocatorIS2_EEED1B8ue170006Ev, symObjAddr: 0x5980, symBinAddr: 0x100007670, symSize: 0x2C }
  - { offsetInCU: 0x4A21C, offset: 0x4A21C, size: 0x8, addend: 0x0, symName: __ZN3olc10RenderableD1Ev, symObjAddr: 0x59AC, symBinAddr: 0x10000769C, symSize: 0x2C }
  - { offsetInCU: 0x4A249, offset: 0x4A249, size: 0x8, addend: 0x0, symName: __ZN3olc15PixelGameEngineC1Ev, symObjAddr: 0x59D8, symBinAddr: 0x1000076C8, symSize: 0x2C }
  - { offsetInCU: 0x4A275, offset: 0x4A275, size: 0x8, addend: 0x0, symName: __ZN3olc15PixelGameEngineD2Ev, symObjAddr: 0x5A04, symBinAddr: 0x1000076F4, symSize: 0xD0 }
  - { offsetInCU: 0x4A2A1, offset: 0x4A2A1, size: 0x8, addend: 0x0, symName: __ZN3olc15PixelGameEngineD1Ev, symObjAddr: 0x5AD4, symBinAddr: 0x1000077C4, symSize: 0x2C }
  - { offsetInCU: 0x4A2CD, offset: 0x4A2CD, size: 0x8, addend: 0x0, symName: __ZN3olc15PixelGameEngineD0Ev, symObjAddr: 0x5B00, symBinAddr: 0x1000077F0, symSize: 0x30 }
  - { offsetInCU: 0x4A2F9, offset: 0x4A2F9, size: 0x8, addend: 0x0, symName: __ZN3olc15PixelGameEngine9ConstructEiiiibbb, symObjAddr: 0x5B30, symBinAddr: 0x100007820, symSize: 0x1A8 }
  - { offsetInCU: 0x4A38A, offset: 0x4A38A, size: 0x8, addend: 0x0, symName: __ZNK3olc11v2d_genericIiEmlERKS1_, symObjAddr: 0x5CD8, symBinAddr: 0x1000079C8, symSize: 0x5C }
  - { offsetInCU: 0x4A3BF, offset: 0x4A3BF, size: 0x8, addend: 0x0, symName: __ZNK3olc11v2d_genericIiEcvNS0_IfEEEv, symObjAddr: 0x5DA4, symBinAddr: 0x100007A94, symSize: 0x48 }
  - { offsetInCU: 0x4A3E5, offset: 0x4A3E5, size: 0x8, addend: 0x0, symName: __ZN3olc15PixelGameEngine13SetScreenSizeEii, symObjAddr: 0x5DEC, symBinAddr: 0x100007ADC, symSize: 0x1B0 }
  - { offsetInCU: 0x4A47F, offset: 0x4A47F, size: 0x8, addend: 0x0, symName: __ZNSt3__16vectorIN3olc9LayerDescENS_9allocatorIS2_EEE5beginB8ue170006Ev, symObjAddr: 0x5F9C, symBinAddr: 0x100007C8C, symSize: 0x30 }
  - { offsetInCU: 0x4A4A7, offset: 0x4A4A7, size: 0x8, addend: 0x0, symName: __ZNSt3__16vectorIN3olc9LayerDescENS_9allocatorIS2_EEE3endB8ue170006Ev, symObjAddr: 0x5FCC, symBinAddr: 0x100007CBC, symSize: 0x30 }
  - { offsetInCU: 0x4A4CF, offset: 0x4A4CF, size: 0x8, addend: 0x0, symName: __ZNKSt3__111__wrap_iterIPN3olc9LayerDescEEdeB8ue170006Ev, symObjAddr: 0x6030, symBinAddr: 0x100007D20, symSize: 0x18 }
  - { offsetInCU: 0x4A4F5, offset: 0x4A4F5, size: 0x8, addend: 0x0, symName: __ZNSt3__111__wrap_iterIPN3olc9LayerDescEEppB8ue170006Ev, symObjAddr: 0x6048, symBinAddr: 0x100007D38, symSize: 0x20 }
  - { offsetInCU: 0x4A51B, offset: 0x4A51B, size: 0x8, addend: 0x0, symName: __ZN3olc15PixelGameEngine13SetDrawTargetEPNS_6SpriteE, symObjAddr: 0x6068, symBinAddr: 0x100007D58, symSize: 0x74 }
  - { offsetInCU: 0x4A552, offset: 0x4A552, size: 0x8, addend: 0x0, symName: __ZNSt3__16vectorIN3olc9LayerDescENS_9allocatorIS2_EEEixB8ue170006Em, symObjAddr: 0x60DC, symBinAddr: 0x100007DCC, symSize: 0x2C }
  - { offsetInCU: 0x4A589, offset: 0x4A589, size: 0x8, addend: 0x0, symName: __ZN3olc15PixelGameEngine13SetDrawTargetEhb, symObjAddr: 0x6108, symBinAddr: 0x100007DF8, symSize: 0xB0 }
  - { offsetInCU: 0x4A5CF, offset: 0x4A5CF, size: 0x8, addend: 0x0, symName: __ZNKSt3__16vectorIN3olc9LayerDescENS_9allocatorIS2_EEE4sizeB8ue170006Ev, symObjAddr: 0x61B8, symBinAddr: 0x100007EA8, symSize: 0x28 }
  - { offsetInCU: 0x4A5F5, offset: 0x4A5F5, size: 0x8, addend: 0x0, symName: __ZN3olc15PixelGameEngine11EnableLayerEhb, symObjAddr: 0x61E0, symBinAddr: 0x100007ED0, symSize: 0x84 }
  - { offsetInCU: 0x4A63B, offset: 0x4A63B, size: 0x8, addend: 0x0, symName: __ZN3olc15PixelGameEngine14SetLayerOffsetEhRKNS_11v2d_genericIfEE, symObjAddr: 0x6264, symBinAddr: 0x100007F54, symSize: 0x40 }
  - { offsetInCU: 0x4A681, offset: 0x4A681, size: 0x8, addend: 0x0, symName: __ZN3olc15PixelGameEngine14SetLayerOffsetEhff, symObjAddr: 0x62A4, symBinAddr: 0x100007F94, symSize: 0x84 }
  - { offsetInCU: 0x4A6D6, offset: 0x4A6D6, size: 0x8, addend: 0x0, symName: __ZN3olc15PixelGameEngine13SetLayerScaleEhRKNS_11v2d_genericIfEE, symObjAddr: 0x6328, symBinAddr: 0x100008018, symSize: 0x40 }
  - { offsetInCU: 0x4A71C, offset: 0x4A71C, size: 0x8, addend: 0x0, symName: __ZN3olc15PixelGameEngine13SetLayerScaleEhff, symObjAddr: 0x6368, symBinAddr: 0x100008058, symSize: 0x84 }
  - { offsetInCU: 0x4A771, offset: 0x4A771, size: 0x8, addend: 0x0, symName: __ZN3olc15PixelGameEngine12SetLayerTintEhRKNS_5PixelE, symObjAddr: 0x63EC, symBinAddr: 0x1000080DC, symSize: 0x7C }
  - { offsetInCU: 0x4A7B7, offset: 0x4A7B7, size: 0x8, addend: 0x0, symName: __ZN3olc15PixelGameEngine28SetLayerCustomRenderFunctionEhNSt3__18functionIFvvEEE, symObjAddr: 0x6468, symBinAddr: 0x100008158, symSize: 0x78 }
  - { offsetInCU: 0x4A7FE, offset: 0x4A7FE, size: 0x8, addend: 0x0, symName: __ZNSt3__18functionIFvvEEaSERKS2_, symObjAddr: 0x64E0, symBinAddr: 0x1000081D0, symSize: 0x84 }
  - { offsetInCU: 0x4A835, offset: 0x4A835, size: 0x8, addend: 0x0, symName: __ZN3olc15PixelGameEngine9GetLayersEv, symObjAddr: 0x6564, symBinAddr: 0x100008254, symSize: 0x18 }
  - { offsetInCU: 0x4A85D, offset: 0x4A85D, size: 0x8, addend: 0x0, symName: __ZN3olc15PixelGameEngine11CreateLayerEv, symObjAddr: 0x657C, symBinAddr: 0x10000826C, symSize: 0xE8 }
  - { offsetInCU: 0x4A899, offset: 0x4A899, size: 0x8, addend: 0x0, symName: __ZN3olc9LayerDescC1Ev, symObjAddr: 0x6664, symBinAddr: 0x100008354, symSize: 0x2C }
  - { offsetInCU: 0x4A8C6, offset: 0x4A8C6, size: 0x8, addend: 0x0, symName: __ZNSt3__16vectorIN3olc9LayerDescENS_9allocatorIS2_EEE9push_backB8ue170006EOS2_, symObjAddr: 0x6690, symBinAddr: 0x100008380, symSize: 0x6C }
  - { offsetInCU: 0x4A8FD, offset: 0x4A8FD, size: 0x8, addend: 0x0, symName: __ZN3olc9LayerDescD1Ev, symObjAddr: 0x66FC, symBinAddr: 0x1000083EC, symSize: 0x2C }
  - { offsetInCU: 0x4A92A, offset: 0x4A92A, size: 0x8, addend: 0x0, symName: __ZNK3olc15PixelGameEngine13GetDrawTargetEv, symObjAddr: 0x6728, symBinAddr: 0x100008418, symSize: 0x18 }
  - { offsetInCU: 0x4A952, offset: 0x4A952, size: 0x8, addend: 0x0, symName: __ZNK3olc15PixelGameEngine18GetDrawTargetWidthEv, symObjAddr: 0x6740, symBinAddr: 0x100008430, symSize: 0x4C }
  - { offsetInCU: 0x4A97A, offset: 0x4A97A, size: 0x8, addend: 0x0, symName: __ZNK3olc15PixelGameEngine19GetDrawTargetHeightEv, symObjAddr: 0x678C, symBinAddr: 0x10000847C, symSize: 0x4C }
  - { offsetInCU: 0x4A9A2, offset: 0x4A9A2, size: 0x8, addend: 0x0, symName: __ZNK3olc15PixelGameEngine6GetFPSEv, symObjAddr: 0x67D8, symBinAddr: 0x1000084C8, symSize: 0x18 }
  - { offsetInCU: 0x4A9CA, offset: 0x4A9CA, size: 0x8, addend: 0x0, symName: __ZNK3olc15PixelGameEngine9IsFocusedEv, symObjAddr: 0x67F0, symBinAddr: 0x1000084E0, symSize: 0x1C }
  - { offsetInCU: 0x4A9F2, offset: 0x4A9F2, size: 0x8, addend: 0x0, symName: __ZNK3olc15PixelGameEngine6GetKeyENS_3KeyE, symObjAddr: 0x680C, symBinAddr: 0x1000084FC, symSize: 0x58 }
  - { offsetInCU: 0x4AA29, offset: 0x4AA29, size: 0x8, addend: 0x0, symName: __ZNK3olc15PixelGameEngine8GetMouseEj, symObjAddr: 0x6864, symBinAddr: 0x100008554, symSize: 0x58 }
  - { offsetInCU: 0x4AA60, offset: 0x4AA60, size: 0x8, addend: 0x0, symName: __ZNK3olc15PixelGameEngine9GetMouseXEv, symObjAddr: 0x68BC, symBinAddr: 0x1000085AC, symSize: 0x18 }
  - { offsetInCU: 0x4AA88, offset: 0x4AA88, size: 0x8, addend: 0x0, symName: __ZNK3olc15PixelGameEngine9GetMouseYEv, symObjAddr: 0x68D4, symBinAddr: 0x1000085C4, symSize: 0x18 }
  - { offsetInCU: 0x4AAB0, offset: 0x4AAB0, size: 0x8, addend: 0x0, symName: __ZNK3olc15PixelGameEngine11GetMousePosEv, symObjAddr: 0x68EC, symBinAddr: 0x1000085DC, symSize: 0x18 }
  - { offsetInCU: 0x4AAD8, offset: 0x4AAD8, size: 0x8, addend: 0x0, symName: __ZNK3olc15PixelGameEngine13GetMouseWheelEv, symObjAddr: 0x6904, symBinAddr: 0x1000085F4, symSize: 0x18 }
  - { offsetInCU: 0x4AB00, offset: 0x4AB00, size: 0x8, addend: 0x0, symName: __ZNK3olc15PixelGameEngine11ScreenWidthEv, symObjAddr: 0x691C, symBinAddr: 0x10000860C, symSize: 0x18 }
  - { offsetInCU: 0x4AB28, offset: 0x4AB28, size: 0x8, addend: 0x0, symName: __ZNK3olc15PixelGameEngine12ScreenHeightEv, symObjAddr: 0x6934, symBinAddr: 0x100008624, symSize: 0x18 }
  - { offsetInCU: 0x4AB50, offset: 0x4AB50, size: 0x8, addend: 0x0, symName: __ZNK3olc15PixelGameEngine14GetElapsedTimeEv, symObjAddr: 0x694C, symBinAddr: 0x10000863C, symSize: 0x18 }
  - { offsetInCU: 0x4AB78, offset: 0x4AB78, size: 0x8, addend: 0x0, symName: __ZNK3olc15PixelGameEngine13GetWindowSizeEv, symObjAddr: 0x6964, symBinAddr: 0x100008654, symSize: 0x18 }
  - { offsetInCU: 0x4ABA0, offset: 0x4ABA0, size: 0x8, addend: 0x0, symName: __ZNK3olc15PixelGameEngine12GetPixelSizeEv, symObjAddr: 0x697C, symBinAddr: 0x10000866C, symSize: 0x18 }
  - { offsetInCU: 0x4ABC8, offset: 0x4ABC8, size: 0x8, addend: 0x0, symName: __ZNK3olc15PixelGameEngine18GetScreenPixelSizeEv, symObjAddr: 0x6994, symBinAddr: 0x100008684, symSize: 0x18 }
  - { offsetInCU: 0x4ABF0, offset: 0x4ABF0, size: 0x8, addend: 0x0, symName: __ZNK3olc15PixelGameEngine13GetScreenSizeEv, symObjAddr: 0x69AC, symBinAddr: 0x10000869C, symSize: 0x18 }
  - { offsetInCU: 0x4AC18, offset: 0x4AC18, size: 0x8, addend: 0x0, symName: __ZNK3olc15PixelGameEngine14GetWindowMouseEv, symObjAddr: 0x69C4, symBinAddr: 0x1000086B4, symSize: 0x18 }
  - { offsetInCU: 0x4AC40, offset: 0x4AC40, size: 0x8, addend: 0x0, symName: __ZN3olc15PixelGameEngine4DrawERKNS_11v2d_genericIiEENS_5PixelE, symObjAddr: 0x69DC, symBinAddr: 0x1000086CC, symSize: 0x5C }
  - { offsetInCU: 0x4AC86, offset: 0x4AC86, size: 0x8, addend: 0x0, symName: __ZN3olc15PixelGameEngine4DrawEiiNS_5PixelE, symObjAddr: 0x6A38, symBinAddr: 0x100008728, symSize: 0x314 }
  - { offsetInCU: 0x4AD44, offset: 0x4AD44, size: 0x8, addend: 0x0, symName: __ZNKSt3__18functionIFN3olc5PixelEiiRKS2_S4_EEclEiiS4_S4_, symObjAddr: 0x6D4C, symBinAddr: 0x100008A3C, symSize: 0x54 }
  - { offsetInCU: 0x4ADA8, offset: 0x4ADA8, size: 0x8, addend: 0x0, symName: __ZN3olc15PixelGameEngine8DrawLineERKNS_11v2d_genericIiEES4_NS_5PixelEj, symObjAddr: 0x6DA0, symBinAddr: 0x100008A90, symSize: 0x6C }
  - { offsetInCU: 0x4AE0C, offset: 0x4AE0C, size: 0x8, addend: 0x0, symName: __ZN3olc15PixelGameEngine8DrawLineEiiiiNS_5PixelEj, symObjAddr: 0x6E0C, symBinAddr: 0x100008AFC, symSize: 0x614 }
  - { offsetInCU: 0x4AF8C, offset: 0x4AF8C, size: 0x8, addend: 0x0, symName: '__ZZN3olc15PixelGameEngine8DrawLineEiiiiNS_5PixelEjENK3$_4clEv', symObjAddr: 0x745C, symBinAddr: 0x10000914C, symSize: 0x40 }
  - { offsetInCU: 0x4AFB6, offset: 0x4AFB6, size: 0x8, addend: 0x0, symName: __ZN3olc15PixelGameEngine10DrawCircleERKNS_11v2d_genericIiEEiNS_5PixelEh, symObjAddr: 0x749C, symBinAddr: 0x10000918C, symSize: 0x60 }
  - { offsetInCU: 0x4B01A, offset: 0x4B01A, size: 0x8, addend: 0x0, symName: __ZN3olc15PixelGameEngine10DrawCircleEiiiNS_5PixelEh, symObjAddr: 0x74FC, symBinAddr: 0x1000091EC, symSize: 0x498 }
  - { offsetInCU: 0x4B0C9, offset: 0x4B0C9, size: 0x8, addend: 0x0, symName: __ZN3olc15PixelGameEngine10FillCircleERKNS_11v2d_genericIiEEiNS_5PixelE, symObjAddr: 0x7994, symBinAddr: 0x100009684, symSize: 0x58 }
  - { offsetInCU: 0x4B11E, offset: 0x4B11E, size: 0x8, addend: 0x0, symName: __ZN3olc15PixelGameEngine10FillCircleEiiiNS_5PixelE, symObjAddr: 0x79EC, symBinAddr: 0x1000096DC, symSize: 0x2DC }
  - { offsetInCU: 0x4B217, offset: 0x4B217, size: 0x8, addend: 0x0, symName: '__ZZN3olc15PixelGameEngine10FillCircleEiiiNS_5PixelEENK3$_5clEiii', symObjAddr: 0x7CC8, symBinAddr: 0x1000099B8, symSize: 0xA0 }
  - { offsetInCU: 0x4B28C, offset: 0x4B28C, size: 0x8, addend: 0x0, symName: __ZN3olc15PixelGameEngine8DrawRectERKNS_11v2d_genericIiEES4_NS_5PixelE, symObjAddr: 0x7D68, symBinAddr: 0x100009A58, symSize: 0x64 }
  - { offsetInCU: 0x4B2E1, offset: 0x4B2E1, size: 0x8, addend: 0x0, symName: __ZN3olc15PixelGameEngine8DrawRectEiiiiNS_5PixelE, symObjAddr: 0x7DCC, symBinAddr: 0x100009ABC, symSize: 0x12C }
  - { offsetInCU: 0x4B354, offset: 0x4B354, size: 0x8, addend: 0x0, symName: __ZN3olc15PixelGameEngine5ClearENS_5PixelE, symObjAddr: 0x7EF8, symBinAddr: 0x100009BE8, symSize: 0xA4 }
  - { offsetInCU: 0x4B3C7, offset: 0x4B3C7, size: 0x8, addend: 0x0, symName: __ZN3olc15PixelGameEngine11ClearBufferENS_5PixelEb, symObjAddr: 0x7F9C, symBinAddr: 0x100009C8C, symSize: 0x60 }
  - { offsetInCU: 0x4B40D, offset: 0x4B40D, size: 0x8, addend: 0x0, symName: __ZN3olc15PixelGameEngine13GetFontSpriteEv, symObjAddr: 0x7FFC, symBinAddr: 0x100009CEC, symSize: 0x28 }
  - { offsetInCU: 0x4B43F, offset: 0x4B43F, size: 0x8, addend: 0x0, symName: '__ZZN3olc15PixelGameEngine16ClipLineToScreenERNS_11v2d_genericIiEES3_ENK3$_6clERKS2_', symObjAddr: 0x8348, symBinAddr: 0x10000A038, symSize: 0xE4 }
  - { offsetInCU: 0x4B487, offset: 0x4B487, size: 0x8, addend: 0x0, symName: __ZN3olc15PixelGameEngine19EnablePixelTransferEb, symObjAddr: 0x842C, symBinAddr: 0x10000A11C, symSize: 0x30 }
  - { offsetInCU: 0x4B4BE, offset: 0x4B4BE, size: 0x8, addend: 0x0, symName: __ZN3olc15PixelGameEngine8FillRectERKNS_11v2d_genericIiEES4_NS_5PixelE, symObjAddr: 0x845C, symBinAddr: 0x10000A14C, symSize: 0x64 }
  - { offsetInCU: 0x4B513, offset: 0x4B513, size: 0x8, addend: 0x0, symName: __ZN3olc15PixelGameEngine8FillRectEiiiiNS_5PixelE, symObjAddr: 0x84C0, symBinAddr: 0x10000A1B0, symSize: 0x234 }
  - { offsetInCU: 0x4B5E0, offset: 0x4B5E0, size: 0x8, addend: 0x0, symName: __ZN3olc15PixelGameEngine12DrawTriangleERKNS_11v2d_genericIiEES4_S4_NS_5PixelE, symObjAddr: 0x86F4, symBinAddr: 0x10000A3E4, symSize: 0x78 }
  - { offsetInCU: 0x4B644, offset: 0x4B644, size: 0x8, addend: 0x0, symName: __ZN3olc15PixelGameEngine12DrawTriangleEiiiiiiNS_5PixelE, symObjAddr: 0x876C, symBinAddr: 0x10000A45C, symSize: 0xC8 }
  - { offsetInCU: 0x4B6D5, offset: 0x4B6D5, size: 0x8, addend: 0x0, symName: __ZN3olc15PixelGameEngine12FillTriangleERKNS_11v2d_genericIiEES4_S4_NS_5PixelE, symObjAddr: 0x8834, symBinAddr: 0x10000A524, symSize: 0x78 }
  - { offsetInCU: 0x4B739, offset: 0x4B739, size: 0x8, addend: 0x0, symName: __ZN3olc15PixelGameEngine12FillTriangleEiiiiiiNS_5PixelE, symObjAddr: 0x88AC, symBinAddr: 0x10000A59C, symSize: 0x8E4 }
  - { offsetInCU: 0x4B9B4, offset: 0x4B9B4, size: 0x8, addend: 0x0, symName: '__ZZN3olc15PixelGameEngine12FillTriangleEiiiiiiNS_5PixelEENK3$_7clEiii', symObjAddr: 0x9190, symBinAddr: 0x10000AE80, symSize: 0xA0 }
  - { offsetInCU: 0x4BA29, offset: 0x4BA29, size: 0x8, addend: 0x0, symName: __ZN3olc15PixelGameEngine20FillTexturedTriangleERKNSt3__16vectorINS_11v2d_genericIfEENS1_9allocatorIS4_EEEES7_NS2_INS_5PixelENS5_ISA_EEEEPNS_6SpriteE, symObjAddr: 0x9230, symBinAddr: 0x10000AF20, symSize: 0xF1C }
  - { offsetInCU: 0x4BD79, offset: 0x4BD79, size: 0x8, addend: 0x0, symName: __ZNKSt3__16vectorIN3olc11v2d_genericIfEENS_9allocatorIS3_EEEixB8ue170006Em, symObjAddr: 0xA14C, symBinAddr: 0x10000BE3C, symSize: 0x24 }
  - { offsetInCU: 0x4BDB0, offset: 0x4BDB0, size: 0x8, addend: 0x0, symName: __ZNK3olc11v2d_genericIfEcvNS0_IiEEEv, symObjAddr: 0xA170, symBinAddr: 0x10000BE60, symSize: 0x48 }
  - { offsetInCU: 0x4BDD6, offset: 0x4BDD6, size: 0x8, addend: 0x0, symName: __ZNSt3__16vectorIN3olc11v2d_genericIfEENS_9allocatorIS3_EEEixB8ue170006Em, symObjAddr: 0xA1F4, symBinAddr: 0x10000BEE4, symSize: 0x24 }
  - { offsetInCU: 0x4BE0D, offset: 0x4BE0D, size: 0x8, addend: 0x0, symName: __ZNK3olc11v2d_genericIiEmiERKS1_, symObjAddr: 0xA254, symBinAddr: 0x10000BF44, symSize: 0x5C }
  - { offsetInCU: 0x4BE42, offset: 0x4BE42, size: 0x8, addend: 0x0, symName: __ZNK3olc11v2d_genericIfEmiERKS1_, symObjAddr: 0xA2B0, symBinAddr: 0x10000BFA0, symSize: 0x5C }
  - { offsetInCU: 0x4BE77, offset: 0x4BE77, size: 0x8, addend: 0x0, symName: __ZN3olc11v2d_genericIfEC1Ev, symObjAddr: 0xA30C, symBinAddr: 0x10000BFFC, symSize: 0x2C }
  - { offsetInCU: 0x4BEA1, offset: 0x4BEA1, size: 0x8, addend: 0x0, symName: __ZNK3olc11v2d_genericIfEdvERKf, symObjAddr: 0xA338, symBinAddr: 0x10000C028, symSize: 0x5C }
  - { offsetInCU: 0x4BED6, offset: 0x4BED6, size: 0x8, addend: 0x0, symName: __ZN3olc11v2d_genericIfE4lerpERKS1_d, symObjAddr: 0xA3DC, symBinAddr: 0x10000C0CC, symSize: 0x84 }
  - { offsetInCU: 0x4BF1A, offset: 0x4BF1A, size: 0x8, addend: 0x0, symName: __ZN3olc15PixelGameEngine19FillTexturedPolygonERKNSt3__16vectorINS_11v2d_genericIfEENS1_9allocatorIS4_EEEES9_RKNS2_INS_5PixelENS5_ISA_EEEEPNS_6SpriteENS_14DecalStructureE, symObjAddr: 0xA460, symBinAddr: 0x10000C150, symSize: 0xA5C }
  - { offsetInCU: 0x4C08D, offset: 0x4C08D, size: 0x8, addend: 0x0, symName: __ZNKSt3__16vectorIN3olc11v2d_genericIfEENS_9allocatorIS3_EEE4sizeB8ue170006Ev, symObjAddr: 0xAEBC, symBinAddr: 0x10000CBAC, symSize: 0x28 }
  - { offsetInCU: 0x4C0B3, offset: 0x4C0B3, size: 0x8, addend: 0x0, symName: __ZNKSt3__16vectorIN3olc5PixelENS_9allocatorIS2_EEE4sizeB8ue170006Ev, symObjAddr: 0xAEE4, symBinAddr: 0x10000CBD4, symSize: 0x28 }
  - { offsetInCU: 0x4C0D9, offset: 0x4C0D9, size: 0x8, addend: 0x0, symName: __ZN3olc11v2d_genericIfEC1ERKS1_, symObjAddr: 0xAF0C, symBinAddr: 0x10000CBFC, symSize: 0x34 }
  - { offsetInCU: 0x4C112, offset: 0x4C112, size: 0x8, addend: 0x0, symName: __ZNSt3__16vectorIN3olc11v2d_genericIfEENS_9allocatorIS3_EEEC1B8ue170006ESt16initializer_listIS3_E, symObjAddr: 0xAF40, symBinAddr: 0x10000CC30, symSize: 0x3C }
  - { offsetInCU: 0x4C14D, offset: 0x4C14D, size: 0x8, addend: 0x0, symName: __ZNSt3__16vectorIN3olc5PixelENS_9allocatorIS2_EEEC1B8ue170006ESt16initializer_listIS2_E, symObjAddr: 0xAF7C, symBinAddr: 0x10000CC6C, symSize: 0x3C }
  - { offsetInCU: 0x4C188, offset: 0x4C188, size: 0x8, addend: 0x0, symName: __ZNSt3__16vectorIN3olc11v2d_genericIfEENS_9allocatorIS3_EEEC1ERKS6_, symObjAddr: 0xAFB8, symBinAddr: 0x10000CCA8, symSize: 0x34 }
  - { offsetInCU: 0x4C1C3, offset: 0x4C1C3, size: 0x8, addend: 0x0, symName: __ZNSt3__16vectorIN3olc5PixelENS_9allocatorIS2_EEEC1ERKS5_, symObjAddr: 0xAFEC, symBinAddr: 0x10000CCDC, symSize: 0x34 }
  - { offsetInCU: 0x4C1FE, offset: 0x4C1FE, size: 0x8, addend: 0x0, symName: __ZNSt3__16vectorIN3olc11v2d_genericIfEENS_9allocatorIS3_EEED1B8ue170006Ev, symObjAddr: 0xB020, symBinAddr: 0x10000CD10, symSize: 0x2C }
  - { offsetInCU: 0x4C228, offset: 0x4C228, size: 0x8, addend: 0x0, symName: __ZN3olc15PixelGameEngine10DrawSpriteERKNS_11v2d_genericIiEEPNS_6SpriteEjh, symObjAddr: 0xB04C, symBinAddr: 0x10000CD3C, symSize: 0x50 }
  - { offsetInCU: 0x4C28C, offset: 0x4C28C, size: 0x8, addend: 0x0, symName: __ZN3olc15PixelGameEngine10DrawSpriteEiiPNS_6SpriteEjh, symObjAddr: 0xB09C, symBinAddr: 0x10000CD8C, symSize: 0x360 }
  - { offsetInCU: 0x4C40D, offset: 0x4C40D, size: 0x8, addend: 0x0, symName: __ZN3olc15PixelGameEngine17DrawPartialSpriteERKNS_11v2d_genericIiEEPNS_6SpriteES4_S4_jh, symObjAddr: 0xB3FC, symBinAddr: 0x10000D0EC, symSize: 0x84 }
  - { offsetInCU: 0x4C48F, offset: 0x4C48F, size: 0x8, addend: 0x0, symName: __ZN3olc15PixelGameEngine17DrawPartialSpriteEiiPNS_6SpriteEiiiijh, symObjAddr: 0xB480, symBinAddr: 0x10000D170, symSize: 0x380 }
  - { offsetInCU: 0x4C64D, offset: 0x4C64D, size: 0x8, addend: 0x0, symName: __ZN3olc15PixelGameEngine12SetDecalModeERKNS_9DecalModeE, symObjAddr: 0xB800, symBinAddr: 0x10000D4F0, symSize: 0x24 }
  - { offsetInCU: 0x4C684, offset: 0x4C684, size: 0x8, addend: 0x0, symName: __ZN3olc15PixelGameEngine17SetDecalStructureERKNS_14DecalStructureE, symObjAddr: 0xB824, symBinAddr: 0x10000D514, symSize: 0x24 }
  - { offsetInCU: 0x4C6BB, offset: 0x4C6BB, size: 0x8, addend: 0x0, symName: __ZN3olc15PixelGameEngine16DrawPartialDecalERKNS_11v2d_genericIfEEPNS_5DecalES4_S4_S4_RKNS_5PixelE, symObjAddr: 0xB848, symBinAddr: 0x10000D538, symSize: 0x4BC }
  - { offsetInCU: 0x4C7C4, offset: 0x4C7C4, size: 0x8, addend: 0x0, symName: __ZNK3olc11v2d_genericIfEmlERKS1_, symObjAddr: 0xBD04, symBinAddr: 0x10000D9F4, symSize: 0x5C }
  - { offsetInCU: 0x4C7F9, offset: 0x4C7F9, size: 0x8, addend: 0x0, symName: __ZNK3olc11v2d_genericIfEplERKS1_, symObjAddr: 0xBD60, symBinAddr: 0x10000DA50, symSize: 0x5C }
  - { offsetInCU: 0x4C82E, offset: 0x4C82E, size: 0x8, addend: 0x0, symName: __ZNK3olc11v2d_genericIfE5floorEv, symObjAddr: 0xBDBC, symBinAddr: 0x10000DAAC, symSize: 0x54 }
  - { offsetInCU: 0x4C854, offset: 0x4C854, size: 0x8, addend: 0x0, symName: __ZNK3olc11v2d_genericIfEdvERKS1_, symObjAddr: 0xBE10, symBinAddr: 0x10000DB00, symSize: 0x5C }
  - { offsetInCU: 0x4C889, offset: 0x4C889, size: 0x8, addend: 0x0, symName: __ZNK3olc11v2d_genericIfE4ceilEv, symObjAddr: 0xBE6C, symBinAddr: 0x10000DB5C, symSize: 0x54 }
  - { offsetInCU: 0x4C8B4, offset: 0x4C8B4, size: 0x8, addend: 0x0, symName: __ZN3olc13DecalInstanceC1Ev, symObjAddr: 0xBEC0, symBinAddr: 0x10000DBB0, symSize: 0x2C }
  - { offsetInCU: 0x4C8E1, offset: 0x4C8E1, size: 0x8, addend: 0x0, symName: __ZNSt3__16vectorIN3olc5PixelENS_9allocatorIS2_EEEaSB8ue170006ESt16initializer_listIS2_E, symObjAddr: 0xBEEC, symBinAddr: 0x10000DBDC, symSize: 0x60 }
  - { offsetInCU: 0x4C916, offset: 0x4C916, size: 0x8, addend: 0x0, symName: __ZNSt3__16vectorIN3olc11v2d_genericIfEENS_9allocatorIS3_EEEaSB8ue170006ESt16initializer_listIS3_E, symObjAddr: 0xBF4C, symBinAddr: 0x10000DC3C, symSize: 0x60 }
  - { offsetInCU: 0x4C94B, offset: 0x4C94B, size: 0x8, addend: 0x0, symName: __ZNSt3__16vectorIfNS_9allocatorIfEEEaSB8ue170006ESt16initializer_listIfE, symObjAddr: 0xBFAC, symBinAddr: 0x10000DC9C, symSize: 0x60 }
  - { offsetInCU: 0x4C980, offset: 0x4C980, size: 0x8, addend: 0x0, symName: __ZNSt3__16vectorIN3olc13DecalInstanceENS_9allocatorIS2_EEE9push_backB8ue170006ERKS2_, symObjAddr: 0xC00C, symBinAddr: 0x10000DCFC, symSize: 0x6C }
  - { offsetInCU: 0x4C9B7, offset: 0x4C9B7, size: 0x8, addend: 0x0, symName: __ZN3olc13DecalInstanceD1Ev, symObjAddr: 0xC078, symBinAddr: 0x10000DD68, symSize: 0x2C }
  - { offsetInCU: 0x4C9E4, offset: 0x4C9E4, size: 0x8, addend: 0x0, symName: __ZN3olc15PixelGameEngine16DrawPartialDecalERKNS_11v2d_genericIfEES4_PNS_5DecalES4_S4_RKNS_5PixelE, symObjAddr: 0xC0A4, symBinAddr: 0x10000DD94, symSize: 0x358 }
  - { offsetInCU: 0x4CABD, offset: 0x4CABD, size: 0x8, addend: 0x0, symName: __ZN3olc15PixelGameEngine9DrawDecalERKNS_11v2d_genericIfEEPNS_5DecalES4_RKNS_5PixelE, symObjAddr: 0xC3FC, symBinAddr: 0x10000E0EC, symSize: 0x334 }
  - { offsetInCU: 0x4CB56, offset: 0x4CB56, size: 0x8, addend: 0x0, symName: __ZN3olc15PixelGameEngine17DrawExplicitDecalEPNS_5DecalEPKNS_11v2d_genericIfEES6_PKNS_5PixelEj, symObjAddr: 0xC730, symBinAddr: 0x10000E420, symSize: 0x24C }
  - { offsetInCU: 0x4CBF8, offset: 0x4CBF8, size: 0x8, addend: 0x0, symName: __ZNSt3__16vectorIN3olc11v2d_genericIfEENS_9allocatorIS3_EEE6resizeEm, symObjAddr: 0xC97C, symBinAddr: 0x10000E66C, symSize: 0x94 }
  - { offsetInCU: 0x4CC3E, offset: 0x4CC3E, size: 0x8, addend: 0x0, symName: __ZNSt3__16vectorIfNS_9allocatorIfEEE6resizeEm, symObjAddr: 0xCA10, symBinAddr: 0x10000E700, symSize: 0x94 }
  - { offsetInCU: 0x4CC84, offset: 0x4CC84, size: 0x8, addend: 0x0, symName: __ZNSt3__16vectorIfNS_9allocatorIfEEEixB8ue170006Em, symObjAddr: 0xCAA4, symBinAddr: 0x10000E794, symSize: 0x24 }
  - { offsetInCU: 0x4CCBB, offset: 0x4CCBB, size: 0x8, addend: 0x0, symName: __ZN3olc15PixelGameEngine16DrawPolygonDecalEPNS_5DecalERKNSt3__16vectorINS_11v2d_genericIfEENS3_9allocatorIS6_EEEESB_NS_5PixelE, symObjAddr: 0xCAC8, symBinAddr: 0x10000E7B8, symSize: 0x260 }
  - { offsetInCU: 0x4CD4E, offset: 0x4CD4E, size: 0x8, addend: 0x0, symName: __ZN3olc15PixelGameEngine16DrawPolygonDecalEPNS_5DecalERKNSt3__16vectorINS_11v2d_genericIfEENS3_9allocatorIS6_EEEESB_RKNS4_INS_5PixelENS7_ISC_EEEE, symObjAddr: 0xCD28, symBinAddr: 0x10000EA18, symSize: 0x274 }
  - { offsetInCU: 0x4CDE1, offset: 0x4CDE1, size: 0x8, addend: 0x0, symName: __ZN3olc15PixelGameEngine16DrawPolygonDecalEPNS_5DecalERKNSt3__16vectorINS_11v2d_genericIfEENS3_9allocatorIS6_EEEESB_RKNS4_INS_5PixelENS7_ISC_EEEESC_, symObjAddr: 0xCF9C, symBinAddr: 0x10000EC8C, symSize: 0xFC }
  - { offsetInCU: 0x4CE92, offset: 0x4CE92, size: 0x8, addend: 0x0, symName: __ZNSt3__16vectorIN3olc5PixelENS_9allocatorIS2_EEEC1EmRKS2_, symObjAddr: 0xD098, symBinAddr: 0x10000ED88, symSize: 0x3C }
  - { offsetInCU: 0x4CEDC, offset: 0x4CEDC, size: 0x8, addend: 0x0, symName: __ZNKSt3__16vectorIN3olc5PixelENS_9allocatorIS2_EEE5beginB8ue170006Ev, symObjAddr: 0xD16C, symBinAddr: 0x10000EE5C, symSize: 0x30 }
  - { offsetInCU: 0x4CF04, offset: 0x4CF04, size: 0x8, addend: 0x0, symName: __ZNKSt3__16vectorIN3olc5PixelENS_9allocatorIS2_EEE3endB8ue170006Ev, symObjAddr: 0xD19C, symBinAddr: 0x10000EE8C, symSize: 0x30 }
  - { offsetInCU: 0x4CF2C, offset: 0x4CF2C, size: 0x8, addend: 0x0, symName: __ZNSt3__16vectorIN3olc5PixelENS_9allocatorIS2_EEE5beginB8ue170006Ev, symObjAddr: 0xD1CC, symBinAddr: 0x10000EEBC, symSize: 0x30 }
  - { offsetInCU: 0x4CF54, offset: 0x4CF54, size: 0x8, addend: 0x0, symName: __ZN3olc15PixelGameEngine16DrawPolygonDecalEPNS_5DecalERKNSt3__16vectorINS_11v2d_genericIfEENS3_9allocatorIS6_EEEERKNS4_IfNS7_IfEEEESB_NS_5PixelE, symObjAddr: 0xD1FC, symBinAddr: 0x10000EEEC, symSize: 0x264 }
  - { offsetInCU: 0x4CFF6, offset: 0x4CFF6, size: 0x8, addend: 0x0, symName: __ZN3olc15PixelGameEngine13DrawLineDecalERKNS_11v2d_genericIfEES4_NS_5PixelE, symObjAddr: 0xD460, symBinAddr: 0x10000F150, symSize: 0x188 }
  - { offsetInCU: 0x4D05C, offset: 0x4D05C, size: 0x8, addend: 0x0, symName: __ZN3olc15PixelGameEngine13DrawRectDecalERKNS_11v2d_genericIfEES4_NS_5PixelE, symObjAddr: 0xD5E8, symBinAddr: 0x10000F2D8, symSize: 0x19C }
  - { offsetInCU: 0x4D0FF, offset: 0x4D0FF, size: 0x8, addend: 0x0, symName: __ZNSt3__15arrayIN3olc11v2d_genericIfEELm4EE4dataB8ue170006Ev, symObjAddr: 0xD784, symBinAddr: 0x10000F474, symSize: 0x14 }
  - { offsetInCU: 0x4D160, offset: 0x4D160, size: 0x8, addend: 0x0, symName: __ZNSt3__15arrayIN3olc5PixelELm4EE4dataB8ue170006Ev, symObjAddr: 0xD798, symBinAddr: 0x10000F488, symSize: 0x14 }
  - { offsetInCU: 0x4D186, offset: 0x4D186, size: 0x8, addend: 0x0, symName: __ZN3olc15PixelGameEngine13FillRectDecalERKNS_11v2d_genericIfEES4_NS_5PixelE, symObjAddr: 0xD7AC, symBinAddr: 0x10000F49C, symSize: 0x170 }
  - { offsetInCU: 0x4D21A, offset: 0x4D21A, size: 0x8, addend: 0x0, symName: __ZN3olc15PixelGameEngine21GradientFillRectDecalERKNS_11v2d_genericIfEES4_NS_5PixelES5_S5_S5_, symObjAddr: 0xD91C, symBinAddr: 0x10000F60C, symSize: 0x180 }
  - { offsetInCU: 0x4D2CB, offset: 0x4D2CB, size: 0x8, addend: 0x0, symName: __ZN3olc15PixelGameEngine16DrawRotatedDecalERKNS_11v2d_genericIfEEPNS_5DecalEfS4_S4_RKNS_5PixelE, symObjAddr: 0xDA9C, symBinAddr: 0x10000F78C, symSize: 0x588 }
  - { offsetInCU: 0x4D3A2, offset: 0x4D3A2, size: 0x8, addend: 0x0, symName: __Z3cosB8ue170006f, symObjAddr: 0xE024, symBinAddr: 0x10000FD14, symSize: 0x24 }
  - { offsetInCU: 0x4D3D0, offset: 0x4D3D0, size: 0x8, addend: 0x0, symName: __Z3sinB8ue170006f, symObjAddr: 0xE048, symBinAddr: 0x10000FD38, symSize: 0x24 }
  - { offsetInCU: 0x4D3FF, offset: 0x4D3FF, size: 0x8, addend: 0x0, symName: __ZNK3olc11v2d_genericIfEmlERKf, symObjAddr: 0xE06C, symBinAddr: 0x10000FD5C, symSize: 0x5C }
  - { offsetInCU: 0x4D434, offset: 0x4D434, size: 0x8, addend: 0x0, symName: __ZN3olc15PixelGameEngine23DrawPartialRotatedDecalERKNS_11v2d_genericIfEEPNS_5DecalEfS4_S4_S4_S4_RKNS_5PixelE, symObjAddr: 0xE0C8, symBinAddr: 0x10000FDB8, symSize: 0x59C }
  - { offsetInCU: 0x4D54C, offset: 0x4D54C, size: 0x8, addend: 0x0, symName: __ZN3olc15PixelGameEngine22DrawPartialWarpedDecalEPNS_5DecalEPKNS_11v2d_genericIfEERS5_S7_RKNS_5PixelE, symObjAddr: 0xE664, symBinAddr: 0x100010354, symSize: 0x6E0 }
  - { offsetInCU: 0x4D6A9, offset: 0x4D6A9, size: 0x8, addend: 0x0, symName: __ZNK3olc11v2d_genericIfE3magEv, symObjAddr: 0xEDA4, symBinAddr: 0x100010A94, symSize: 0x3C }
  - { offsetInCU: 0x4D6CF, offset: 0x4D6CF, size: 0x8, addend: 0x0, symName: __ZN3olc11v2d_genericIfEmLERKf, symObjAddr: 0xEDE0, symBinAddr: 0x100010AD0, symSize: 0x40 }
  - { offsetInCU: 0x4D704, offset: 0x4D704, size: 0x8, addend: 0x0, symName: __ZN3olc15PixelGameEngine15DrawWarpedDecalEPNS_5DecalEPKNS_11v2d_genericIfEERKNS_5PixelE, symObjAddr: 0xEE20, symBinAddr: 0x100010B10, symSize: 0x5DC }
  - { offsetInCU: 0x4D821, offset: 0x4D821, size: 0x8, addend: 0x0, symName: __ZN3olc15PixelGameEngine15DrawWarpedDecalEPNS_5DecalERKNSt3__15arrayINS_11v2d_genericIfEELm4EEERKNS_5PixelE, symObjAddr: 0xF3FC, symBinAddr: 0x1000110EC, symSize: 0x54 }
  - { offsetInCU: 0x4D876, offset: 0x4D876, size: 0x8, addend: 0x0, symName: __ZNKSt3__15arrayIN3olc11v2d_genericIfEELm4EE4dataB8ue170006Ev, symObjAddr: 0xF450, symBinAddr: 0x100011140, symSize: 0x14 }
  - { offsetInCU: 0x4D89C, offset: 0x4D89C, size: 0x8, addend: 0x0, symName: __ZN3olc15PixelGameEngine15DrawWarpedDecalEPNS_5DecalERA4_KNS_11v2d_genericIfEERKNS_5PixelE, symObjAddr: 0xF464, symBinAddr: 0x100011154, symSize: 0x3C }
  - { offsetInCU: 0x4D8F1, offset: 0x4D8F1, size: 0x8, addend: 0x0, symName: __ZN3olc15PixelGameEngine22DrawPartialWarpedDecalEPNS_5DecalERKNSt3__15arrayINS_11v2d_genericIfEELm4EEERKS6_SB_RKNS_5PixelE, symObjAddr: 0xF4A0, symBinAddr: 0x100011190, symSize: 0x64 }
  - { offsetInCU: 0x4D964, offset: 0x4D964, size: 0x8, addend: 0x0, symName: __ZN3olc15PixelGameEngine22DrawPartialWarpedDecalEPNS_5DecalERA4_KNS_11v2d_genericIfEERS5_S8_RKNS_5PixelE, symObjAddr: 0xF504, symBinAddr: 0x1000111F4, symSize: 0x4C }
  - { offsetInCU: 0x4D9D7, offset: 0x4D9D7, size: 0x8, addend: 0x0, symName: __ZN3olc15PixelGameEngine15DrawStringDecalERKNS_11v2d_genericIfEERKNSt3__112basic_stringIcNS5_11char_traitsIcEENS5_9allocatorIcEEEENS_5PixelES4_, symObjAddr: 0xF550, symBinAddr: 0x100011240, symSize: 0x1D8 }
  - { offsetInCU: 0x4DACF, offset: 0x4DACF, size: 0x8, addend: 0x0, symName: __ZN3olc15PixelGameEngine19DrawStringPropDecalERKNS_11v2d_genericIfEERKNSt3__112basic_stringIcNS5_11char_traitsIcEENS5_9allocatorIcEEEENS_5PixelES4_, symObjAddr: 0xF728, symBinAddr: 0x100011418, symSize: 0x244 }
  - { offsetInCU: 0x4DBC7, offset: 0x4DBC7, size: 0x8, addend: 0x0, symName: __ZNSt3__16vectorIN3olc11v2d_genericIiEENS_9allocatorIS3_EEEixB8ue170006Em, symObjAddr: 0xF96C, symBinAddr: 0x10001165C, symSize: 0x24 }
  - { offsetInCU: 0x4DBFE, offset: 0x4DBFE, size: 0x8, addend: 0x0, symName: __ZN3olc15PixelGameEngine22DrawRotatedStringDecalERKNS_11v2d_genericIfEERKNSt3__112basic_stringIcNS5_11char_traitsIcEENS5_9allocatorIcEEEEfS4_NS_5PixelES4_, symObjAddr: 0xF990, symBinAddr: 0x100011680, symSize: 0x1D4 }
  - { offsetInCU: 0x4DD16, offset: 0x4DD16, size: 0x8, addend: 0x0, symName: __ZN3olc15PixelGameEngine26DrawRotatedStringPropDecalERKNS_11v2d_genericIfEERKNSt3__112basic_stringIcNS5_11char_traitsIcEENS5_9allocatorIcEEEEfS4_NS_5PixelES4_, symObjAddr: 0xFB64, symBinAddr: 0x100011854, symSize: 0x240 }
  - { offsetInCU: 0x4DE2E, offset: 0x4DE2E, size: 0x8, addend: 0x0, symName: __ZN3olc15PixelGameEngine11GetTextSizeERKNSt3__112basic_stringIcNS1_11char_traitsIcEENS1_9allocatorIcEEEE, symObjAddr: 0xFDA4, symBinAddr: 0x100011A94, symSize: 0x158 }
  - { offsetInCU: 0x4DED7, offset: 0x4DED7, size: 0x8, addend: 0x0, symName: __ZNK3olc11v2d_genericIiEmlERKi, symObjAddr: 0xFEFC, symBinAddr: 0x100011BEC, symSize: 0x5C }
  - { offsetInCU: 0x4DF0C, offset: 0x4DF0C, size: 0x8, addend: 0x0, symName: __ZN3olc15PixelGameEngine10DrawStringERKNS_11v2d_genericIiEERKNSt3__112basic_stringIcNS5_11char_traitsIcEENS5_9allocatorIcEEEENS_5PixelEj, symObjAddr: 0xFF58, symBinAddr: 0x100011C48, symSize: 0x60 }
  - { offsetInCU: 0x4DF70, offset: 0x4DF70, size: 0x8, addend: 0x0, symName: __ZN3olc15PixelGameEngine10DrawStringEiiRKNSt3__112basic_stringIcNS1_11char_traitsIcEENS1_9allocatorIcEEEENS_5PixelEj, symObjAddr: 0xFFB8, symBinAddr: 0x100011CA8, symSize: 0x428 }
  - { offsetInCU: 0x4E148, offset: 0x4E148, size: 0x8, addend: 0x0, symName: __ZN3olc15PixelGameEngine12SetPixelModeENS_5Pixel4ModeE, symObjAddr: 0x103E0, symBinAddr: 0x1000120D0, symSize: 0x20 }
  - { offsetInCU: 0x4E17F, offset: 0x4E17F, size: 0x8, addend: 0x0, symName: __ZN3olc15PixelGameEngine15GetTextSizePropERKNSt3__112basic_stringIcNS1_11char_traitsIcEENS1_9allocatorIcEEEE, symObjAddr: 0x10400, symBinAddr: 0x1000120F0, symSize: 0x180 }
  - { offsetInCU: 0x4E229, offset: 0x4E229, size: 0x8, addend: 0x0, symName: __ZN3olc15PixelGameEngine14DrawStringPropERKNS_11v2d_genericIiEERKNSt3__112basic_stringIcNS5_11char_traitsIcEENS5_9allocatorIcEEEENS_5PixelEj, symObjAddr: 0x10580, symBinAddr: 0x100012270, symSize: 0x60 }
  - { offsetInCU: 0x4E28D, offset: 0x4E28D, size: 0x8, addend: 0x0, symName: __ZN3olc15PixelGameEngine14DrawStringPropEiiRKNSt3__112basic_stringIcNS1_11char_traitsIcEENS1_9allocatorIcEEEENS_5PixelEj, symObjAddr: 0x105E0, symBinAddr: 0x1000122D0, symSize: 0x504 }
  - { offsetInCU: 0x4E46B, offset: 0x4E46B, size: 0x8, addend: 0x0, symName: __ZN3olc15PixelGameEngine12GetPixelModeEv, symObjAddr: 0x10AE4, symBinAddr: 0x1000127D4, symSize: 0x18 }
  - { offsetInCU: 0x4E493, offset: 0x4E493, size: 0x8, addend: 0x0, symName: __ZN3olc15PixelGameEngine12SetPixelModeENSt3__18functionIFNS_5PixelEiiRKS3_S5_EEE, symObjAddr: 0x10AFC, symBinAddr: 0x1000127EC, symSize: 0x40 }
  - { offsetInCU: 0x4E4CB, offset: 0x4E4CB, size: 0x8, addend: 0x0, symName: __ZNSt3__18functionIFN3olc5PixelEiiRKS2_S4_EEaSERKS6_, symObjAddr: 0x10B3C, symBinAddr: 0x10001282C, symSize: 0x84 }
  - { offsetInCU: 0x4E502, offset: 0x4E502, size: 0x8, addend: 0x0, symName: __ZN3olc15PixelGameEngine13SetPixelBlendEf, symObjAddr: 0x10BC0, symBinAddr: 0x1000128B0, symSize: 0x74 }
  - { offsetInCU: 0x4E539, offset: 0x4E539, size: 0x8, addend: 0x0, symName: __ZN3olc15PixelGameEngine10ConsoleOutEv, symObjAddr: 0x10C34, symBinAddr: 0x100012924, symSize: 0x18 }
  - { offsetInCU: 0x4E561, offset: 0x4E561, size: 0x8, addend: 0x0, symName: __ZNK3olc15PixelGameEngine16IsConsoleShowingEv, symObjAddr: 0x10C4C, symBinAddr: 0x10001293C, symSize: 0x1C }
  - { offsetInCU: 0x4E589, offset: 0x4E589, size: 0x8, addend: 0x0, symName: __ZN3olc15PixelGameEngine11ConsoleShowERKNS_3KeyEb, symObjAddr: 0x10C68, symBinAddr: 0x100012958, symSize: 0x114 }
  - { offsetInCU: 0x4E5CF, offset: 0x4E5CF, size: 0x8, addend: 0x0, symName: __ZN3olc15PixelGameEngine15TextEntryEnableEbRKNSt3__112basic_stringIcNS1_11char_traitsIcEENS1_9allocatorIcEEEE, symObjAddr: 0x10D7C, symBinAddr: 0x100012A6C, symSize: 0x7C }
  - { offsetInCU: 0x4E615, offset: 0x4E615, size: 0x8, addend: 0x0, symName: __ZN3olc15PixelGameEngine12ConsoleClearEv, symObjAddr: 0x10DF8, symBinAddr: 0x100012AE8, symSize: 0x28 }
  - { offsetInCU: 0x4E63D, offset: 0x4E63D, size: 0x8, addend: 0x0, symName: __ZNSt3__16vectorINS_12basic_stringIcNS_11char_traitsIcEENS_9allocatorIcEEEENS4_IS6_EEE5clearB8ue170006Ev, symObjAddr: 0x10E20, symBinAddr: 0x100012B10, symSize: 0x44 }
  - { offsetInCU: 0x4E672, offset: 0x4E672, size: 0x8, addend: 0x0, symName: __ZN3olc15PixelGameEngine20ConsoleCaptureStdOutEb, symObjAddr: 0x10E64, symBinAddr: 0x100012B54, symSize: 0xA0 }
  - { offsetInCU: 0x4E6A9, offset: 0x4E6A9, size: 0x8, addend: 0x0, symName: __ZNSt3__19basic_iosIcNS_11char_traitsIcEEE5rdbufB8ue170006EPNS_15basic_streambufIcS2_EE, symObjAddr: 0x10F04, symBinAddr: 0x100012BF4, symSize: 0x44 }
  - { offsetInCU: 0x4E6EF, offset: 0x4E6EF, size: 0x8, addend: 0x0, symName: __ZNKSt3__118basic_stringstreamIcNS_11char_traitsIcEENS_9allocatorIcEEE5rdbufB8ue170006Ev, symObjAddr: 0x10F48, symBinAddr: 0x100012C38, symSize: 0x18 }
  - { offsetInCU: 0x4E715, offset: 0x4E715, size: 0x8, addend: 0x0, symName: __ZN3olc15PixelGameEngine13UpdateConsoleEv, symObjAddr: 0x10F60, symBinAddr: 0x100012C50, symSize: 0x5C4 }
  - { offsetInCU: 0x4E7B4, offset: 0x4E7B4, size: 0x8, addend: 0x0, symName: __ZNK3olc11v2d_genericIiEdvERKS1_, symObjAddr: 0x11524, symBinAddr: 0x100013214, symSize: 0x5C }
  - { offsetInCU: 0x4E7E9, offset: 0x4E7E9, size: 0x8, addend: 0x0, symName: __ZNKSt3__16vectorINS_12basic_stringIcNS_11char_traitsIcEENS_9allocatorIcEEEENS4_IS6_EEE4sizeB8ue170006Ev, symObjAddr: 0x11580, symBinAddr: 0x100013270, symSize: 0x28 }
  - { offsetInCU: 0x4E80F, offset: 0x4E80F, size: 0x8, addend: 0x0, symName: __ZNSt3__16vectorINS_12basic_stringIcNS_11char_traitsIcEENS_9allocatorIcEEEENS4_IS6_EEE6resizeEm, symObjAddr: 0x115A8, symBinAddr: 0x100013298, symSize: 0x9C }
  - { offsetInCU: 0x4E855, offset: 0x4E855, size: 0x8, addend: 0x0, symName: __ZNSt3__115basic_streambufIcNS_11char_traitsIcEEE5sgetcB8ue170006Ev, symObjAddr: 0x11644, symBinAddr: 0x100013334, symSize: 0x70 }
  - { offsetInCU: 0x4E87B, offset: 0x4E87B, size: 0x8, addend: 0x0, symName: __ZNSt3__115basic_streambufIcNS_11char_traitsIcEEE6sbumpcB8ue170006Ev, symObjAddr: 0x116B4, symBinAddr: 0x1000133A4, symSize: 0x78 }
  - { offsetInCU: 0x4E8AB, offset: 0x4E8AB, size: 0x8, addend: 0x0, symName: '__ZZN3olc15PixelGameEngine13UpdateConsoleEvENK3$_8clEc', symObjAddr: 0x1172C, symBinAddr: 0x10001341C, symSize: 0x17C }
  - { offsetInCU: 0x4E902, offset: 0x4E902, size: 0x8, addend: 0x0, symName: __ZNSt3__16vectorINS_12basic_stringIcNS_11char_traitsIcEENS_9allocatorIcEEEENS4_IS6_EEEixB8ue170006Em, symObjAddr: 0x118A8, symBinAddr: 0x100013598, symSize: 0x2C }
  - { offsetInCU: 0x4E939, offset: 0x4E939, size: 0x8, addend: 0x0, symName: __ZNK3olc15PixelGameEngine18TextEntryGetCursorEv, symObjAddr: 0x118D4, symBinAddr: 0x1000135C4, symSize: 0x18 }
  - { offsetInCU: 0x4E961, offset: 0x4E961, size: 0x8, addend: 0x0, symName: __ZNK3olc15PixelGameEngine18TextEntryGetStringEv, symObjAddr: 0x1192C, symBinAddr: 0x10001361C, symSize: 0x3C }
  - { offsetInCU: 0x4E989, offset: 0x4E989, size: 0x8, addend: 0x0, symName: __ZNK3olc15PixelGameEngine15GetDroppedFilesEv, symObjAddr: 0x11968, symBinAddr: 0x100013658, symSize: 0x18 }
  - { offsetInCU: 0x4E9B1, offset: 0x4E9B1, size: 0x8, addend: 0x0, symName: __ZNK3olc15PixelGameEngine20GetDroppedFilesPointEv, symObjAddr: 0x11980, symBinAddr: 0x100013670, symSize: 0x18 }
  - { offsetInCU: 0x4E9D9, offset: 0x4E9D9, size: 0x8, addend: 0x0, symName: __ZNK3olc15PixelGameEngine18IsTextEntryEnabledEv, symObjAddr: 0x11998, symBinAddr: 0x100013688, symSize: 0x1C }
  - { offsetInCU: 0x4EA01, offset: 0x4EA01, size: 0x8, addend: 0x0, symName: __ZN3olc15PixelGameEngine15UpdateTextEntryEv, symObjAddr: 0x119B4, symBinAddr: 0x1000136A4, symSize: 0x6E4 }
  - { offsetInCU: 0x4EA7D, offset: 0x4EA7D, size: 0x8, addend: 0x0, symName: __ZNSt3__16vectorINS_5tupleIJN3olc3KeyENS_12basic_stringIcNS_11char_traitsIcEENS_9allocatorIcEEEES9_EEENS7_ISA_EEE5beginB8ue170006Ev, symObjAddr: 0x12098, symBinAddr: 0x100013D88, symSize: 0x30 }
  - { offsetInCU: 0x4EAA5, offset: 0x4EAA5, size: 0x8, addend: 0x0, symName: __ZNSt3__16vectorINS_5tupleIJN3olc3KeyENS_12basic_stringIcNS_11char_traitsIcEENS_9allocatorIcEEEES9_EEENS7_ISA_EEE3endB8ue170006Ev, symObjAddr: 0x120C8, symBinAddr: 0x100013DB8, symSize: 0x30 }
  - { offsetInCU: 0x4EACD, offset: 0x4EACD, size: 0x8, addend: 0x0, symName: __ZNKSt3__111__wrap_iterIPNS_5tupleIJN3olc3KeyENS_12basic_stringIcNS_11char_traitsIcEENS_9allocatorIcEEEES9_EEEEdeB8ue170006Ev, symObjAddr: 0x1212C, symBinAddr: 0x100013E1C, symSize: 0x18 }
  - { offsetInCU: 0x4EAF3, offset: 0x4EAF3, size: 0x8, addend: 0x0, symName: __ZNSt3__112basic_stringIcNS_11char_traitsIcEENS_9allocatorIcEEE6insertB8ue170006EmRKS5_, symObjAddr: 0x12168, symBinAddr: 0x100013E58, symSize: 0x5C }
  - { offsetInCU: 0x4EB37, offset: 0x4EB37, size: 0x8, addend: 0x0, symName: __ZNSt3__111__wrap_iterIPNS_5tupleIJN3olc3KeyENS_12basic_stringIcNS_11char_traitsIcEENS_9allocatorIcEEEES9_EEEEppB8ue170006Ev, symObjAddr: 0x12214, symBinAddr: 0x100013F04, symSize: 0x20 }
  - { offsetInCU: 0x4EB5D, offset: 0x4EB5D, size: 0x8, addend: 0x0, symName: __ZNKSt3__14listINS_12basic_stringIcNS_11char_traitsIcEENS_9allocatorIcEEEENS4_IS6_EEE5emptyB8ue170006Ev, symObjAddr: 0x12234, symBinAddr: 0x100013F24, symSize: 0x28 }
  - { offsetInCU: 0x4EB83, offset: 0x4EB83, size: 0x8, addend: 0x0, symName: __ZNSt3__14listINS_12basic_stringIcNS_11char_traitsIcEENS_9allocatorIcEEEENS4_IS6_EEE5beginB8ue170006Ev, symObjAddr: 0x12290, symBinAddr: 0x100013F80, symSize: 0x2C }
  - { offsetInCU: 0x4EBA9, offset: 0x4EBA9, size: 0x8, addend: 0x0, symName: __ZNSt3__115__list_iteratorINS_12basic_stringIcNS_11char_traitsIcEENS_9allocatorIcEEEEPvEmmB8ue170006Ei, symObjAddr: 0x122BC, symBinAddr: 0x100013FAC, symSize: 0x34 }
  - { offsetInCU: 0x4EBEA, offset: 0x4EBEA, size: 0x8, addend: 0x0, symName: __ZNKSt3__115__list_iteratorINS_12basic_stringIcNS_11char_traitsIcEENS_9allocatorIcEEEEPvEptB8ue170006Ev, symObjAddr: 0x122F0, symBinAddr: 0x100013FE0, symSize: 0x30 }
  - { offsetInCU: 0x4EC10, offset: 0x4EC10, size: 0x8, addend: 0x0, symName: __ZNKSt3__115__list_iteratorINS_12basic_stringIcNS_11char_traitsIcEENS_9allocatorIcEEEEPvEdeB8ue170006Ev, symObjAddr: 0x12320, symBinAddr: 0x100014010, symSize: 0x2C }
  - { offsetInCU: 0x4EC36, offset: 0x4EC36, size: 0x8, addend: 0x0, symName: __ZNSt3__14listINS_12basic_stringIcNS_11char_traitsIcEENS_9allocatorIcEEEENS4_IS6_EEE3endB8ue170006Ev, symObjAddr: 0x1234C, symBinAddr: 0x10001403C, symSize: 0x2C }
  - { offsetInCU: 0x4EC5C, offset: 0x4EC5C, size: 0x8, addend: 0x0, symName: __ZNSt3__115__list_iteratorINS_12basic_stringIcNS_11char_traitsIcEENS_9allocatorIcEEEEPvEppB8ue170006Ei, symObjAddr: 0x12378, symBinAddr: 0x100014068, symSize: 0x34 }
  - { offsetInCU: 0x4EC9D, offset: 0x4EC9D, size: 0x8, addend: 0x0, symName: __ZNSt3__14listINS_12basic_stringIcNS_11char_traitsIcEENS_9allocatorIcEEEENS4_IS6_EEE9push_backERKS6_, symObjAddr: 0x12438, symBinAddr: 0x100014128, symSize: 0xF4 }
  - { offsetInCU: 0x4ECF2, offset: 0x4ECF2, size: 0x8, addend: 0x0, symName: __ZNSt3__112basic_stringIcNS_11char_traitsIcEENS_9allocatorIcEEE5clearB8ue170006Ev, symObjAddr: 0x1252C, symBinAddr: 0x10001421C, symSize: 0x78 }
  - { offsetInCU: 0x4ED1A, offset: 0x4ED1A, size: 0x8, addend: 0x0, symName: __ZN3olc15PixelGameEngine12OnUserCreateEv, symObjAddr: 0x125A4, symBinAddr: 0x100014294, symSize: 0x18 }
  - { offsetInCU: 0x4ED42, offset: 0x4ED42, size: 0x8, addend: 0x0, symName: __ZN3olc15PixelGameEngine12OnUserUpdateEf, symObjAddr: 0x125BC, symBinAddr: 0x1000142AC, symSize: 0x1C }
  - { offsetInCU: 0x4ED79, offset: 0x4ED79, size: 0x8, addend: 0x0, symName: __ZN3olc15PixelGameEngine13OnUserDestroyEv, symObjAddr: 0x125D8, symBinAddr: 0x1000142C8, symSize: 0x18 }
  - { offsetInCU: 0x4EDA1, offset: 0x4EDA1, size: 0x8, addend: 0x0, symName: __ZN3olc15PixelGameEngine19OnTextEntryCompleteERKNSt3__112basic_stringIcNS1_11char_traitsIcEENS1_9allocatorIcEEEE, symObjAddr: 0x125F0, symBinAddr: 0x1000142E0, symSize: 0x14 }
  - { offsetInCU: 0x4EDD8, offset: 0x4EDD8, size: 0x8, addend: 0x0, symName: __ZN3olc15PixelGameEngine16OnConsoleCommandERKNSt3__112basic_stringIcNS1_11char_traitsIcEENS1_9allocatorIcEEEE, symObjAddr: 0x12604, symBinAddr: 0x1000142F4, symSize: 0x1C }
  - { offsetInCU: 0x4EE0F, offset: 0x4EE0F, size: 0x8, addend: 0x0, symName: __ZN3olc15PixelGameEngine18olc_UpdateViewportEv, symObjAddr: 0x12620, symBinAddr: 0x100014310, symSize: 0x164 }
  - { offsetInCU: 0x4EE64, offset: 0x4EE64, size: 0x8, addend: 0x0, symName: __ZNK3olc11v2d_genericIiEdvERKi, symObjAddr: 0x12784, symBinAddr: 0x100014474, symSize: 0x5C }
  - { offsetInCU: 0x4EE99, offset: 0x4EE99, size: 0x8, addend: 0x0, symName: __ZN3olc15PixelGameEngine20olc_UpdateWindowSizeEii, symObjAddr: 0x127E0, symBinAddr: 0x1000144D0, symSize: 0x4C }
  - { offsetInCU: 0x4EEDF, offset: 0x4EEDF, size: 0x8, addend: 0x0, symName: __ZN3olc15PixelGameEngine20olc_UpdateMouseWheelEi, symObjAddr: 0x1282C, symBinAddr: 0x10001451C, symSize: 0x28 }
  - { offsetInCU: 0x4EF16, offset: 0x4EF16, size: 0x8, addend: 0x0, symName: __ZN3olc15PixelGameEngine15olc_UpdateMouseEii, symObjAddr: 0x12854, symBinAddr: 0x100014544, symSize: 0x174 }
  - { offsetInCU: 0x4EF5C, offset: 0x4EF5C, size: 0x8, addend: 0x0, symName: __ZN3olc15PixelGameEngine20olc_UpdateMouseStateEib, symObjAddr: 0x129C8, symBinAddr: 0x1000146B8, symSize: 0x38 }
  - { offsetInCU: 0x4EFA2, offset: 0x4EFA2, size: 0x8, addend: 0x0, symName: __ZN3olc15PixelGameEngine18olc_UpdateKeyStateEib, symObjAddr: 0x12A00, symBinAddr: 0x1000146F0, symSize: 0x38 }
  - { offsetInCU: 0x4EFE8, offset: 0x4EFE8, size: 0x8, addend: 0x0, symName: __ZN3olc15PixelGameEngine20olc_UpdateMouseFocusEb, symObjAddr: 0x12A38, symBinAddr: 0x100014728, symSize: 0x2C }
  - { offsetInCU: 0x4F01F, offset: 0x4F01F, size: 0x8, addend: 0x0, symName: __ZN3olc15PixelGameEngine18olc_UpdateKeyFocusEb, symObjAddr: 0x12A64, symBinAddr: 0x100014754, symSize: 0x2C }
  - { offsetInCU: 0x4F056, offset: 0x4F056, size: 0x8, addend: 0x0, symName: __ZN3olc15PixelGameEngine13olc_DropFilesEiiRKNSt3__16vectorINS1_12basic_stringIcNS1_11char_traitsIcEENS1_9allocatorIcEEEENS6_IS8_EEEE, symObjAddr: 0x12A90, symBinAddr: 0x100014780, symSize: 0x164 }
  - { offsetInCU: 0x4F0AB, offset: 0x4F0AB, size: 0x8, addend: 0x0, symName: __ZNSt3__16vectorINS_12basic_stringIcNS_11char_traitsIcEENS_9allocatorIcEEEENS4_IS6_EEEaSB8ue170006ERKS8_, symObjAddr: 0x12BF4, symBinAddr: 0x1000148E4, symSize: 0x68 }
  - { offsetInCU: 0x4F0E2, offset: 0x4F0E2, size: 0x8, addend: 0x0, symName: __ZN3olc15PixelGameEngine13olc_ReanimateEv, symObjAddr: 0x12C5C, symBinAddr: 0x10001494C, symSize: 0x30 }
  - { offsetInCU: 0x4F10A, offset: 0x4F10A, size: 0x8, addend: 0x0, symName: __ZNSt3__16atomicIbEaSB8ue170006Eb, symObjAddr: 0x12C8C, symBinAddr: 0x10001497C, symSize: 0x44 }
  - { offsetInCU: 0x4F13E, offset: 0x4F13E, size: 0x8, addend: 0x0, symName: __ZN3olc15PixelGameEngine13olc_IsRunningEv, symObjAddr: 0x12CD0, symBinAddr: 0x1000149C0, symSize: 0x2C }
  - { offsetInCU: 0x4F166, offset: 0x4F166, size: 0x8, addend: 0x0, symName: __ZNKSt3__113__atomic_baseIbLb0EEcvbB8ue170006Ev, symObjAddr: 0x12CFC, symBinAddr: 0x1000149EC, symSize: 0x2C }
  - { offsetInCU: 0x4F18C, offset: 0x4F18C, size: 0x8, addend: 0x0, symName: __ZN3olc15PixelGameEngine13olc_TerminateEv, symObjAddr: 0x12D28, symBinAddr: 0x100014A18, symSize: 0x30 }
  - { offsetInCU: 0x4F1B4, offset: 0x4F1B4, size: 0x8, addend: 0x0, symName: __ZN3olc15PixelGameEngine12EngineThreadEv, symObjAddr: 0x12D58, symBinAddr: 0x100014A48, symSize: 0x1EC }
  - { offsetInCU: 0x4F284, offset: 0x4F284, size: 0x8, addend: 0x0, symName: __ZNKSt3__110unique_ptrIN3olc8PlatformENS_14default_deleteIS2_EEEptB8ue170006Ev, symObjAddr: 0x12F44, symBinAddr: 0x100014C34, symSize: 0x28 }
  - { offsetInCU: 0x4F2AA, offset: 0x4F2AA, size: 0x8, addend: 0x0, symName: __ZN3olc15PixelGameEngine17olc_PrepareEngineEv, symObjAddr: 0x12F6C, symBinAddr: 0x100014C5C, symSize: 0xF0 }
  - { offsetInCU: 0x4F2D2, offset: 0x4F2D2, size: 0x8, addend: 0x0, symName: __ZNSt3__16vectorIPN3olc4PGEXENS_9allocatorIS3_EEE5beginB8ue170006Ev, symObjAddr: 0x1305C, symBinAddr: 0x100014D4C, symSize: 0x30 }
  - { offsetInCU: 0x4F2FA, offset: 0x4F2FA, size: 0x8, addend: 0x0, symName: __ZNSt3__16vectorIPN3olc4PGEXENS_9allocatorIS3_EEE3endB8ue170006Ev, symObjAddr: 0x1308C, symBinAddr: 0x100014D7C, symSize: 0x30 }
  - { offsetInCU: 0x4F322, offset: 0x4F322, size: 0x8, addend: 0x0, symName: __ZNKSt3__111__wrap_iterIPPN3olc4PGEXEEdeB8ue170006Ev, symObjAddr: 0x130F0, symBinAddr: 0x100014DE0, symSize: 0x18 }
  - { offsetInCU: 0x4F348, offset: 0x4F348, size: 0x8, addend: 0x0, symName: __ZNSt3__111__wrap_iterIPPN3olc4PGEXEEppB8ue170006Ev, symObjAddr: 0x13108, symBinAddr: 0x100014DF8, symSize: 0x20 }
  - { offsetInCU: 0x4F36E, offset: 0x4F36E, size: 0x8, addend: 0x0, symName: __ZN3olc15PixelGameEngine14olc_CoreUpdateEv, symObjAddr: 0x13128, symBinAddr: 0x100014E18, symSize: 0x714 }
  - { offsetInCU: 0x4F53A, offset: 0x4F53A, size: 0x8, addend: 0x0, symName: __ZN3olc15PixelGameEngine22olc_ConstructFontSheetEv, symObjAddr: 0x1383C, symBinAddr: 0x10001552C, symSize: 0x1380 }
  - { offsetInCU: 0x4F69C, offset: 0x4F69C, size: 0x8, addend: 0x0, symName: __ZNSt3__16chrono8durationIfNS_5ratioILl1ELl1EEEEC1B8ue170006IxNS2_ILl1ELl1000000EEEEERKNS1_IT_T0_EEPNS_9enable_ifIXaasr13__no_overflowIS8_S3_EE5valueooL_ZNS_17integral_constantIbLb1EE5valueEEaaeqsr13__no_overflowIS8_S3_E4typeE3denLi1Entsr23treat_as_floating_pointIS7_EE5valueEvE4typeE, symObjAddr: 0x14C14, symBinAddr: 0x100016904, symSize: 0x3C }
  - { offsetInCU: 0x4F6F3, offset: 0x4F6F3, size: 0x8, addend: 0x0, symName: __ZNKSt3__16chrono8durationIfNS_5ratioILl1ELl1EEEE5countB8ue170006Ev, symObjAddr: 0x14C50, symBinAddr: 0x100016940, symSize: 0x18 }
  - { offsetInCU: 0x4F72D, offset: 0x4F72D, size: 0x8, addend: 0x0, symName: '__ZZN3olc15PixelGameEngine14olc_CoreUpdateEvENK3$_9clEPNS_8HWButtonEPbS4_j', symObjAddr: 0x14C68, symBinAddr: 0x100016958, symSize: 0x178 }
  - { offsetInCU: 0x4F7B1, offset: 0x4F7B1, size: 0x8, addend: 0x0, symName: __ZNSt3__16vectorIN3olc9LayerDescENS_9allocatorIS2_EEE6rbeginB8ue170006Ev, symObjAddr: 0x14DE0, symBinAddr: 0x100016AD0, symSize: 0x44 }
  - { offsetInCU: 0x4F7D7, offset: 0x4F7D7, size: 0x8, addend: 0x0, symName: __ZNSt3__16vectorIN3olc9LayerDescENS_9allocatorIS2_EEE4rendB8ue170006Ev, symObjAddr: 0x14E78, symBinAddr: 0x100016B68, symSize: 0x44 }
  - { offsetInCU: 0x4F7FD, offset: 0x4F7FD, size: 0x8, addend: 0x0, symName: __ZNKSt3__116reverse_iteratorINS_11__wrap_iterIPN3olc9LayerDescEEEEptB8ue170006Ev, symObjAddr: 0x14EBC, symBinAddr: 0x100016BAC, symSize: 0x44 }
  - { offsetInCU: 0x4F823, offset: 0x4F823, size: 0x8, addend: 0x0, symName: __ZNSt3__16vectorIN3olc13DecalInstanceENS_9allocatorIS2_EEE5beginB8ue170006Ev, symObjAddr: 0x14F30, symBinAddr: 0x100016C20, symSize: 0x30 }
  - { offsetInCU: 0x4F84B, offset: 0x4F84B, size: 0x8, addend: 0x0, symName: __ZNSt3__16vectorIN3olc13DecalInstanceENS_9allocatorIS2_EEE3endB8ue170006Ev, symObjAddr: 0x14F60, symBinAddr: 0x100016C50, symSize: 0x30 }
  - { offsetInCU: 0x4F873, offset: 0x4F873, size: 0x8, addend: 0x0, symName: __ZNKSt3__111__wrap_iterIPN3olc13DecalInstanceEEdeB8ue170006Ev, symObjAddr: 0x14FC4, symBinAddr: 0x100016CB4, symSize: 0x18 }
  - { offsetInCU: 0x4F899, offset: 0x4F899, size: 0x8, addend: 0x0, symName: __ZNSt3__111__wrap_iterIPN3olc13DecalInstanceEEppB8ue170006Ev, symObjAddr: 0x14FDC, symBinAddr: 0x100016CCC, symSize: 0x20 }
  - { offsetInCU: 0x4F8BF, offset: 0x4F8BF, size: 0x8, addend: 0x0, symName: __ZNSt3__16vectorIN3olc13DecalInstanceENS_9allocatorIS2_EEE5clearB8ue170006Ev, symObjAddr: 0x14FFC, symBinAddr: 0x100016CEC, symSize: 0x44 }
  - { offsetInCU: 0x4F8F4, offset: 0x4F8F4, size: 0x8, addend: 0x0, symName: __ZNKSt3__18functionIFvvEEclEv, symObjAddr: 0x15040, symBinAddr: 0x100016D30, symSize: 0x24 }
  - { offsetInCU: 0x4F91C, offset: 0x4F91C, size: 0x8, addend: 0x0, symName: __ZNSt3__116reverse_iteratorINS_11__wrap_iterIPN3olc9LayerDescEEEEppB8ue170006Ev, symObjAddr: 0x15064, symBinAddr: 0x100016D54, symSize: 0x30 }
  - { offsetInCU: 0x4F942, offset: 0x4F942, size: 0x8, addend: 0x0, symName: __ZNSt3__112basic_stringIcNS_11char_traitsIcEENS_9allocatorIcEEEpLB8ue170006EPKc, symObjAddr: 0x15094, symBinAddr: 0x100016D84, symSize: 0x2C }
  - { offsetInCU: 0x4F977, offset: 0x4F977, size: 0x8, addend: 0x0, symName: __ZNKSt3__15arrayIhLm96EE5beginB8ue170006Ev, symObjAddr: 0x150C0, symBinAddr: 0x100016DB0, symSize: 0x24 }
  - { offsetInCU: 0x4F99D, offset: 0x4F99D, size: 0x8, addend: 0x0, symName: __ZNKSt3__15arrayIhLm96EE3endB8ue170006Ev, symObjAddr: 0x150E4, symBinAddr: 0x100016DD4, symSize: 0x28 }
  - { offsetInCU: 0x4F9C3, offset: 0x4F9C3, size: 0x8, addend: 0x0, symName: __ZNSt3__16vectorIN3olc11v2d_genericIiEENS_9allocatorIS3_EEE9push_backB8ue170006EOS3_, symObjAddr: 0x1510C, symBinAddr: 0x100016DFC, symSize: 0x6C }
  - { offsetInCU: 0x4FA18, offset: 0x4FA18, size: 0x8, addend: 0x0, symName: __ZNSt3__15tupleIJN3olc3KeyENS_12basic_stringIcNS_11char_traitsIcEENS_9allocatorIcEEEES8_EEC1B8ue170006IJS2_RA2_KcSD_ELi0EEEDpOT_, symObjAddr: 0x15178, symBinAddr: 0x100016E68, symSize: 0x44 }
  - { offsetInCU: 0x4FA8A, offset: 0x4FA8A, size: 0x8, addend: 0x0, symName: __ZNSt3__15tupleIJN3olc3KeyENS_12basic_stringIcNS_11char_traitsIcEENS_9allocatorIcEEEES8_EED1Ev, symObjAddr: 0x151BC, symBinAddr: 0x100016EAC, symSize: 0x2C }
  - { offsetInCU: 0x4FAB7, offset: 0x4FAB7, size: 0x8, addend: 0x0, symName: __ZNSt3__16vectorINS_5tupleIJN3olc3KeyENS_12basic_stringIcNS_11char_traitsIcEENS_9allocatorIcEEEES9_EEENS7_ISA_EEEaSB8ue170006ESt16initializer_listISA_E, symObjAddr: 0x151E8, symBinAddr: 0x100016ED8, symSize: 0x60 }
  - { offsetInCU: 0x4FAEC, offset: 0x4FAEC, size: 0x8, addend: 0x0, symName: __ZN3olc15PixelGameEngine13pgex_RegisterEPNS_4PGEXE, symObjAddr: 0x15248, symBinAddr: 0x100016F38, symSize: 0xA4 }
  - { offsetInCU: 0x4FB23, offset: 0x4FB23, size: 0x8, addend: 0x0, symName: __ZNSt3__16vectorIPN3olc4PGEXENS_9allocatorIS3_EEE9push_backB8ue170006ERKS3_, symObjAddr: 0x153AC, symBinAddr: 0x10001709C, symSize: 0x6C }
  - { offsetInCU: 0x4FB5A, offset: 0x4FB5A, size: 0x8, addend: 0x0, symName: __ZN3olc4PGEXC2Eb, symObjAddr: 0x15418, symBinAddr: 0x100017108, symSize: 0x6C }
  - { offsetInCU: 0x4FB95, offset: 0x4FB95, size: 0x8, addend: 0x0, symName: __ZN3olc4PGEXC1Eb, symObjAddr: 0x15484, symBinAddr: 0x100017174, symSize: 0x40 }
  - { offsetInCU: 0x4FBD0, offset: 0x4FBD0, size: 0x8, addend: 0x0, symName: __ZN3olc4PGEX18OnBeforeUserCreateEv, symObjAddr: 0x154C4, symBinAddr: 0x1000171B4, symSize: 0x10 }
  - { offsetInCU: 0x4FBF8, offset: 0x4FBF8, size: 0x8, addend: 0x0, symName: __ZN3olc4PGEX17OnAfterUserCreateEv, symObjAddr: 0x154D4, symBinAddr: 0x1000171C4, symSize: 0x10 }
  - { offsetInCU: 0x4FC20, offset: 0x4FC20, size: 0x8, addend: 0x0, symName: __ZN3olc4PGEX18OnBeforeUserUpdateERf, symObjAddr: 0x154E4, symBinAddr: 0x1000171D4, symSize: 0x1C }
  - { offsetInCU: 0x4FC57, offset: 0x4FC57, size: 0x8, addend: 0x0, symName: __ZN3olc4PGEX17OnAfterUserUpdateEf, symObjAddr: 0x15500, symBinAddr: 0x1000171F0, symSize: 0x14 }
  - { offsetInCU: 0x4FC8E, offset: 0x4FC8E, size: 0x8, addend: 0x0, symName: __ZNSt3__110unique_ptrIN3olc11ImageLoaderENS_14default_deleteIS2_EEED1B8ue170006Ev, symObjAddr: 0x15514, symBinAddr: 0x100017204, symSize: 0x2C }
  - { offsetInCU: 0x4FCB8, offset: 0x4FCB8, size: 0x8, addend: 0x0, symName: __ZN3olc15PixelGameEngine5StartEv, symObjAddr: 0x15580, symBinAddr: 0x100017270, symSize: 0x1A4 }
  - { offsetInCU: 0x4FCE0, offset: 0x4FCE0, size: 0x8, addend: 0x0, symName: __ZN3olc13Platform_GLUT12ExitMainLoopEv, symObjAddr: 0x15724, symBinAddr: 0x100017414, symSize: 0x80 }
  - { offsetInCU: 0x4FCF4, offset: 0x4FCF4, size: 0x8, addend: 0x0, symName: __ZN3olc15PixelGameEngine19olc_ConfigureSystemEv, symObjAddr: 0x157A4, symBinAddr: 0x100017494, symSize: 0xD0 }
  - { offsetInCU: 0x4FD1C, offset: 0x4FD1C, size: 0x8, addend: 0x0, symName: __ZNSt3__110unique_ptrIN3olc11ImageLoaderENS_14default_deleteIS2_EEEaSB8ue170006EDn, symObjAddr: 0x15874, symBinAddr: 0x100017564, symSize: 0x34 }
  - { offsetInCU: 0x4FD4E, offset: 0x4FD4E, size: 0x8, addend: 0x0, symName: __ZNSt3__110unique_ptrIN3olc11ImageLoaderENS_14default_deleteIS2_EEEaSB8ue170006INS1_18ImageLoader_LibPNGENS3_IS7_EEvvEERS5_ONS0_IT_T0_EE, symObjAddr: 0x1590C, symBinAddr: 0x1000175FC, symSize: 0x60 }
  - { offsetInCU: 0x4FD96, offset: 0x4FD96, size: 0x8, addend: 0x0, symName: __ZNSt3__110unique_ptrIN3olc18ImageLoader_LibPNGENS_14default_deleteIS2_EEED1B8ue170006Ev, symObjAddr: 0x1596C, symBinAddr: 0x10001765C, symSize: 0x2C }
  - { offsetInCU: 0x4FDC0, offset: 0x4FDC0, size: 0x8, addend: 0x0, symName: __ZNSt3__110unique_ptrIN3olc8PlatformENS_14default_deleteIS2_EEEaSB8ue170006INS1_13Platform_GLUTENS3_IS7_EEvvEERS5_ONS0_IT_T0_EE, symObjAddr: 0x159D8, symBinAddr: 0x1000176C8, symSize: 0x60 }
  - { offsetInCU: 0x4FE08, offset: 0x4FE08, size: 0x8, addend: 0x0, symName: __ZNSt3__110unique_ptrIN3olc13Platform_GLUTENS_14default_deleteIS2_EEED1B8ue170006Ev, symObjAddr: 0x15A38, symBinAddr: 0x100017728, symSize: 0x2C }
  - { offsetInCU: 0x4FE32, offset: 0x4FE32, size: 0x8, addend: 0x0, symName: __ZNSt3__110unique_ptrIN3olc8RendererENS_14default_deleteIS2_EEEaSB8ue170006INS1_14Renderer_OGL10ENS3_IS7_EEvvEERS5_ONS0_IT_T0_EE, symObjAddr: 0x15AAC, symBinAddr: 0x10001779C, symSize: 0x60 }
  - { offsetInCU: 0x4FE7A, offset: 0x4FE7A, size: 0x8, addend: 0x0, symName: __ZNSt3__110unique_ptrIN3olc14Renderer_OGL10ENS_14default_deleteIS2_EEED1B8ue170006Ev, symObjAddr: 0x15B0C, symBinAddr: 0x1000177FC, symSize: 0x2C }
  - { offsetInCU: 0x4FEA4, offset: 0x4FEA4, size: 0x8, addend: 0x0, symName: __ZN3olc15TransformedView6GetPGEEv, symObjAddr: 0x15B38, symBinAddr: 0x100017828, symSize: 0x18 }
  - { offsetInCU: 0x4FECB, offset: 0x4FECB, size: 0x8, addend: 0x0, symName: __ZN3olc15TransformedView10InitialiseERKNS_11v2d_genericIiEERKNS1_IfEE, symObjAddr: 0x15B50, symBinAddr: 0x100017840, symSize: 0x74 }
  - { offsetInCU: 0x4FF0E, offset: 0x4FF0E, size: 0x8, addend: 0x0, symName: __ZN3olc15TransformedView11SetViewAreaERKNS_11v2d_genericIiEE, symObjAddr: 0x15BC4, symBinAddr: 0x1000178B4, symSize: 0x24 }
  - { offsetInCU: 0x4FF45, offset: 0x4FF45, size: 0x8, addend: 0x0, symName: __ZN3olc15TransformedView13SetWorldScaleERKNS_11v2d_genericIfEE, symObjAddr: 0x15BE8, symBinAddr: 0x1000178D8, symSize: 0x24 }
  - { offsetInCU: 0x4FF7A, offset: 0x4FF7A, size: 0x8, addend: 0x0, symName: __ZN3olc15TransformedView14SetWorldOffsetERKNS_11v2d_genericIfEE, symObjAddr: 0x15C6C, symBinAddr: 0x10001795C, symSize: 0x24 }
  - { offsetInCU: 0x4FFAF, offset: 0x4FFAF, size: 0x8, addend: 0x0, symName: __ZN3olc15TransformedView15MoveWorldOffsetERKNS_11v2d_genericIfEE, symObjAddr: 0x15C90, symBinAddr: 0x100017980, symSize: 0x30 }
  - { offsetInCU: 0x4FFE4, offset: 0x4FFE4, size: 0x8, addend: 0x0, symName: __ZN3olc11v2d_genericIfEpLERKS1_, symObjAddr: 0x15CC0, symBinAddr: 0x1000179B0, symSize: 0x40 }
  - { offsetInCU: 0x50019, offset: 0x50019, size: 0x8, addend: 0x0, symName: __ZNK3olc15TransformedView10GetWorldTLEv, symObjAddr: 0x15D00, symBinAddr: 0x1000179F0, symSize: 0x50 }
  - { offsetInCU: 0x50041, offset: 0x50041, size: 0x8, addend: 0x0, symName: __ZNK3olc15TransformedView13ScreenToWorldERKNS_11v2d_genericIfEE, symObjAddr: 0x15D50, symBinAddr: 0x100017A40, symSize: 0x6C }
  - { offsetInCU: 0x50078, offset: 0x50078, size: 0x8, addend: 0x0, symName: __ZNK3olc15TransformedView10GetWorldBREv, symObjAddr: 0x15DBC, symBinAddr: 0x100017AAC, symSize: 0x4C }
  - { offsetInCU: 0x500A0, offset: 0x500A0, size: 0x8, addend: 0x0, symName: __ZNK3olc15TransformedView19GetWorldVisibleAreaEv, symObjAddr: 0x15E08, symBinAddr: 0x100017AF8, symSize: 0x58 }
  - { offsetInCU: 0x500C8, offset: 0x500C8, size: 0x8, addend: 0x0, symName: __ZN3olc15TransformedView15ZoomAtScreenPosEfRKNS_11v2d_genericIiEE, symObjAddr: 0x15E60, symBinAddr: 0x100017B50, symSize: 0xC0 }
  - { offsetInCU: 0x5012C, offset: 0x5012C, size: 0x8, addend: 0x0, symName: __ZN3olc15TransformedView7SetZoomEfRKNS_11v2d_genericIfEE, symObjAddr: 0x15F20, symBinAddr: 0x100017C10, symSize: 0x9C }
  - { offsetInCU: 0x50190, offset: 0x50190, size: 0x8, addend: 0x0, symName: __ZN3olc15TransformedView8StartPanERKNS_11v2d_genericIiEE, symObjAddr: 0x15FBC, symBinAddr: 0x100017CAC, symSize: 0x48 }
  - { offsetInCU: 0x501C7, offset: 0x501C7, size: 0x8, addend: 0x0, symName: __ZN3olc15TransformedView9UpdatePanERKNS_11v2d_genericIiEE, symObjAddr: 0x16004, symBinAddr: 0x100017CF4, symSize: 0xA0 }
  - { offsetInCU: 0x501FE, offset: 0x501FE, size: 0x8, addend: 0x0, symName: __ZN3olc11v2d_genericIfEmIERKS1_, symObjAddr: 0x160A4, symBinAddr: 0x100017D94, symSize: 0x40 }
  - { offsetInCU: 0x50233, offset: 0x50233, size: 0x8, addend: 0x0, symName: __ZN3olc15TransformedView6EndPanERKNS_11v2d_genericIiEE, symObjAddr: 0x160E4, symBinAddr: 0x100017DD4, symSize: 0x38 }
  - { offsetInCU: 0x5026A, offset: 0x5026A, size: 0x8, addend: 0x0, symName: __ZNK3olc15TransformedView14GetWorldOffsetEv, symObjAddr: 0x1611C, symBinAddr: 0x100017E0C, symSize: 0x18 }
  - { offsetInCU: 0x50292, offset: 0x50292, size: 0x8, addend: 0x0, symName: __ZNK3olc15TransformedView13GetWorldScaleEv, symObjAddr: 0x16134, symBinAddr: 0x100017E24, symSize: 0x18 }
  - { offsetInCU: 0x502BA, offset: 0x502BA, size: 0x8, addend: 0x0, symName: __ZNK3olc15TransformedView13WorldToScreenERKNS_11v2d_genericIfEE, symObjAddr: 0x1614C, symBinAddr: 0x100017E3C, symSize: 0x58 }
  - { offsetInCU: 0x50301, offset: 0x50301, size: 0x8, addend: 0x0, symName: __ZNK3olc15TransformedView12ScaleToWorldERKNS_11v2d_genericIfEE, symObjAddr: 0x161A4, symBinAddr: 0x100017E94, symSize: 0x54 }
  - { offsetInCU: 0x50338, offset: 0x50338, size: 0x8, addend: 0x0, symName: __ZNK3olc15TransformedView13ScaleToScreenERKNS_11v2d_genericIfEE, symObjAddr: 0x161F8, symBinAddr: 0x100017EE8, symSize: 0x38 }
  - { offsetInCU: 0x5036F, offset: 0x5036F, size: 0x8, addend: 0x0, symName: __ZNK3olc15TransformedView14IsPointVisibleERKNS_11v2d_genericIfEE, symObjAddr: 0x16230, symBinAddr: 0x100017F20, symSize: 0xCC }
  - { offsetInCU: 0x503B5, offset: 0x503B5, size: 0x8, addend: 0x0, symName: __ZNK3olc15TransformedView13IsRectVisibleERKNS_11v2d_genericIfEES4_, symObjAddr: 0x162FC, symBinAddr: 0x100017FEC, symSize: 0x108 }
  - { offsetInCU: 0x50419, offset: 0x50419, size: 0x8, addend: 0x0, symName: __ZN3olc15TransformedView16HandlePanAndZoomEifbb, symObjAddr: 0x16404, symBinAddr: 0x1000180F4, symSize: 0x1B8 }
  - { offsetInCU: 0x5048C, offset: 0x5048C, size: 0x8, addend: 0x0, symName: __ZN3olc15TransformedView4DrawEffNS_5PixelE, symObjAddr: 0x165BC, symBinAddr: 0x1000182AC, symSize: 0x68 }
  - { offsetInCU: 0x504E1, offset: 0x504E1, size: 0x8, addend: 0x0, symName: __ZN3olc15TransformedView4DrawERKNS_11v2d_genericIfEENS_5PixelE, symObjAddr: 0x16624, symBinAddr: 0x100018314, symSize: 0x80 }
  - { offsetInCU: 0x50527, offset: 0x50527, size: 0x8, addend: 0x0, symName: __ZN3olc15TransformedView8DrawLineEffffNS_5PixelEj, symObjAddr: 0x166A4, symBinAddr: 0x100018394, symSize: 0x8C }
  - { offsetInCU: 0x505A9, offset: 0x505A9, size: 0x8, addend: 0x0, symName: __ZN3olc15TransformedView8DrawLineERKNS_11v2d_genericIfEES4_NS_5PixelEj, symObjAddr: 0x16730, symBinAddr: 0x100018420, symSize: 0xBC }
  - { offsetInCU: 0x5060D, offset: 0x5060D, size: 0x8, addend: 0x0, symName: __ZN3olc15TransformedView10DrawCircleEfffNS_5PixelEh, symObjAddr: 0x167EC, symBinAddr: 0x1000184DC, symSize: 0x74 }
  - { offsetInCU: 0x50680, offset: 0x50680, size: 0x8, addend: 0x0, symName: __ZN3olc15TransformedView10DrawCircleERKNS_11v2d_genericIfEEfNS_5PixelEh, symObjAddr: 0x16860, symBinAddr: 0x100018550, symSize: 0xA0 }
  - { offsetInCU: 0x506E4, offset: 0x506E4, size: 0x8, addend: 0x0, symName: __ZN3olc15TransformedView10FillCircleEfffNS_5PixelE, symObjAddr: 0x16900, symBinAddr: 0x1000185F0, symSize: 0x6C }
  - { offsetInCU: 0x50748, offset: 0x50748, size: 0x8, addend: 0x0, symName: __ZN3olc15TransformedView10FillCircleERKNS_11v2d_genericIfEEfNS_5PixelE, symObjAddr: 0x1696C, symBinAddr: 0x10001865C, symSize: 0x98 }
  - { offsetInCU: 0x5079D, offset: 0x5079D, size: 0x8, addend: 0x0, symName: __ZN3olc15TransformedView8DrawRectEffffNS_5PixelE, symObjAddr: 0x16A04, symBinAddr: 0x1000186F4, symSize: 0x84 }
  - { offsetInCU: 0x50810, offset: 0x50810, size: 0x8, addend: 0x0, symName: __ZN3olc15TransformedView8DrawRectERKNS_11v2d_genericIfEES4_NS_5PixelE, symObjAddr: 0x16A88, symBinAddr: 0x100018778, symSize: 0xE8 }
  - { offsetInCU: 0x50865, offset: 0x50865, size: 0x8, addend: 0x0, symName: __ZN3olc15TransformedView8FillRectEffffNS_5PixelE, symObjAddr: 0x16B70, symBinAddr: 0x100018860, symSize: 0x84 }
  - { offsetInCU: 0x508D8, offset: 0x508D8, size: 0x8, addend: 0x0, symName: __ZN3olc15TransformedView8FillRectERKNS_11v2d_genericIfEES4_NS_5PixelE, symObjAddr: 0x16BF4, symBinAddr: 0x1000188E4, symSize: 0xB0 }
  - { offsetInCU: 0x5092D, offset: 0x5092D, size: 0x8, addend: 0x0, symName: __ZN3olc15TransformedView12DrawTriangleEffffffNS_5PixelE, symObjAddr: 0x16CA4, symBinAddr: 0x100018994, symSize: 0xA4 }
  - { offsetInCU: 0x509BE, offset: 0x509BE, size: 0x8, addend: 0x0, symName: __ZN3olc15TransformedView12DrawTriangleERKNS_11v2d_genericIfEES4_S4_NS_5PixelE, symObjAddr: 0x16D48, symBinAddr: 0x100018A38, symSize: 0xE8 }
  - { offsetInCU: 0x50A22, offset: 0x50A22, size: 0x8, addend: 0x0, symName: __ZN3olc15TransformedView12FillTriangleEffffffNS_5PixelE, symObjAddr: 0x16E30, symBinAddr: 0x100018B20, symSize: 0xA4 }
  - { offsetInCU: 0x50AB3, offset: 0x50AB3, size: 0x8, addend: 0x0, symName: __ZN3olc15TransformedView12FillTriangleERKNS_11v2d_genericIfEES4_S4_NS_5PixelE, symObjAddr: 0x16ED4, symBinAddr: 0x100018BC4, symSize: 0xE8 }
  - { offsetInCU: 0x50B17, offset: 0x50B17, size: 0x8, addend: 0x0, symName: __ZN3olc15TransformedView10DrawSpriteEffPNS_6SpriteEffh, symObjAddr: 0x16FBC, symBinAddr: 0x100018CAC, symSize: 0x84 }
  - { offsetInCU: 0x50B99, offset: 0x50B99, size: 0x8, addend: 0x0, symName: __ZN3olc15TransformedView10DrawSpriteERKNS_11v2d_genericIfEEPNS_6SpriteES4_h, symObjAddr: 0x17040, symBinAddr: 0x100018D30, symSize: 0x2F0 }
  - { offsetInCU: 0x50CAA, offset: 0x50CAA, size: 0x8, addend: 0x0, symName: __ZNK3olc11v2d_genericIiE3maxERKS1_, symObjAddr: 0x17330, symBinAddr: 0x100019020, symSize: 0x68 }
  - { offsetInCU: 0x50CDF, offset: 0x50CDF, size: 0x8, addend: 0x0, symName: __ZNK3olc11v2d_genericIiE3minERKS1_, symObjAddr: 0x17398, symBinAddr: 0x100019088, symSize: 0x68 }
  - { offsetInCU: 0x50D14, offset: 0x50D14, size: 0x8, addend: 0x0, symName: __ZN3olc15TransformedView17DrawPartialSpriteEffPNS_6SpriteEiiiiffh, symObjAddr: 0x17400, symBinAddr: 0x1000190F0, symSize: 0xC4 }
  - { offsetInCU: 0x50DD2, offset: 0x50DD2, size: 0x8, addend: 0x0, symName: __ZN3olc15TransformedView17DrawPartialSpriteERKNS_11v2d_genericIfEEPNS_6SpriteERKNS1_IiEES9_S4_h, symObjAddr: 0x174C4, symBinAddr: 0x1000191B4, symSize: 0x324 }
  - { offsetInCU: 0x50EF3, offset: 0x50EF3, size: 0x8, addend: 0x0, symName: __ZN3olc15TransformedView10DrawStringEffRKNSt3__112basic_stringIcNS1_11char_traitsIcEENS1_9allocatorIcEEEENS_5PixelERKNS_11v2d_genericIfEE, symObjAddr: 0x177E8, symBinAddr: 0x1000194D8, symSize: 0x74 }
  - { offsetInCU: 0x50F66, offset: 0x50F66, size: 0x8, addend: 0x0, symName: '__ZNSt3__18functionIFN3olc5PixelEiiRKS2_S4_EEC1IZNS1_15TransformedView10DrawStringERKNS1_11v2d_genericIfEERKNS_12basic_stringIcNS_11char_traitsIcEENS_9allocatorIcEEEES2_SC_E4$_10vEET_', symObjAddr: 0x17AD8, symBinAddr: 0x1000197C8, symSize: 0x34 }
  - { offsetInCU: 0x50FAB, offset: 0x50FAB, size: 0x8, addend: 0x0, symName: __ZN3olc15TransformedView9DrawDecalERKNS_11v2d_genericIfEEPNS_5DecalES4_RKNS_5PixelE, symObjAddr: 0x17B0C, symBinAddr: 0x1000197FC, symSize: 0xA8 }
  - { offsetInCU: 0x5100F, offset: 0x5100F, size: 0x8, addend: 0x0, symName: __ZN3olc15TransformedView16DrawPartialDecalERKNS_11v2d_genericIfEEPNS_5DecalES4_S4_S4_RKNS_5PixelE, symObjAddr: 0x17BB4, symBinAddr: 0x1000198A4, symSize: 0xC8 }
  - { offsetInCU: 0x51091, offset: 0x51091, size: 0x8, addend: 0x0, symName: __ZN3olc15TransformedView16DrawPartialDecalERKNS_11v2d_genericIfEES4_PNS_5DecalES4_S4_RKNS_5PixelE, symObjAddr: 0x17C7C, symBinAddr: 0x10001996C, symSize: 0xB0 }
  - { offsetInCU: 0x51113, offset: 0x51113, size: 0x8, addend: 0x0, symName: __ZN3olc15TransformedView17DrawExplicitDecalEPNS_5DecalEPKNS_11v2d_genericIfEES6_PKNS_5PixelEj, symObjAddr: 0x17D2C, symBinAddr: 0x100019A1C, symSize: 0x11C }
  - { offsetInCU: 0x511B3, offset: 0x511B3, size: 0x8, addend: 0x0, symName: __ZNSt3__16vectorIN3olc11v2d_genericIfEENS_9allocatorIS3_EEEC1Em, symObjAddr: 0x17E48, symBinAddr: 0x100019B38, symSize: 0x34 }
  - { offsetInCU: 0x511EE, offset: 0x511EE, size: 0x8, addend: 0x0, symName: __ZNSt3__16vectorIN3olc11v2d_genericIfEENS_9allocatorIS3_EEE4dataB8ue170006Ev, symObjAddr: 0x17E7C, symBinAddr: 0x100019B6C, symSize: 0x28 }
  - { offsetInCU: 0x51214, offset: 0x51214, size: 0x8, addend: 0x0, symName: __ZN3olc15TransformedView15DrawWarpedDecalEPNS_5DecalEPKNS_11v2d_genericIfEERKNS_5PixelE, symObjAddr: 0x17EA4, symBinAddr: 0x100019B94, symSize: 0xC0 }
  - { offsetInCU: 0x51278, offset: 0x51278, size: 0x8, addend: 0x0, symName: __ZN3olc15TransformedView15DrawWarpedDecalEPNS_5DecalERA4_KNS_11v2d_genericIfEERKNS_5PixelE, symObjAddr: 0x17F64, symBinAddr: 0x100019C54, symSize: 0x3C }
  - { offsetInCU: 0x512CD, offset: 0x512CD, size: 0x8, addend: 0x0, symName: __ZN3olc15TransformedView15DrawWarpedDecalEPNS_5DecalERKNSt3__15arrayINS_11v2d_genericIfEELm4EEERKNS_5PixelE, symObjAddr: 0x17FA0, symBinAddr: 0x100019C90, symSize: 0x54 }
  - { offsetInCU: 0x51322, offset: 0x51322, size: 0x8, addend: 0x0, symName: __ZN3olc15TransformedView22DrawPartialWarpedDecalEPNS_5DecalERA4_KNS_11v2d_genericIfEERS5_S8_RKNS_5PixelE, symObjAddr: 0x17FF4, symBinAddr: 0x100019CE4, symSize: 0x4C }
  - { offsetInCU: 0x51395, offset: 0x51395, size: 0x8, addend: 0x0, symName: __ZN3olc15TransformedView22DrawPartialWarpedDecalEPNS_5DecalEPKNS_11v2d_genericIfEERS5_S7_RKNS_5PixelE, symObjAddr: 0x18040, symBinAddr: 0x100019D30, symSize: 0xD0 }
  - { offsetInCU: 0x51417, offset: 0x51417, size: 0x8, addend: 0x0, symName: __ZN3olc15TransformedView22DrawPartialWarpedDecalEPNS_5DecalERKNSt3__15arrayINS_11v2d_genericIfEELm4EEERKS6_SB_RKNS_5PixelE, symObjAddr: 0x18110, symBinAddr: 0x100019E00, symSize: 0x64 }
  - { offsetInCU: 0x5148A, offset: 0x5148A, size: 0x8, addend: 0x0, symName: __ZN3olc15TransformedView16DrawRotatedDecalERKNS_11v2d_genericIfEEPNS_5DecalEfS4_S4_RKNS_5PixelE, symObjAddr: 0x18174, symBinAddr: 0x100019E64, symSize: 0xC8 }
  - { offsetInCU: 0x5150C, offset: 0x5150C, size: 0x8, addend: 0x0, symName: __ZN3olc15TransformedView23DrawPartialRotatedDecalERKNS_11v2d_genericIfEEPNS_5DecalEfS4_S4_S4_S4_RKNS_5PixelE, symObjAddr: 0x1823C, symBinAddr: 0x100019F2C, symSize: 0xE8 }
  - { offsetInCU: 0x515AD, offset: 0x515AD, size: 0x8, addend: 0x0, symName: __ZN3olc15TransformedView15DrawStringDecalERKNS_11v2d_genericIfEERKNSt3__112basic_stringIcNS5_11char_traitsIcEENS5_9allocatorIcEEEENS_5PixelES4_, symObjAddr: 0x18324, symBinAddr: 0x10001A014, symSize: 0xB8 }
  - { offsetInCU: 0x51611, offset: 0x51611, size: 0x8, addend: 0x0, symName: __ZN3olc15TransformedView19DrawStringPropDecalERKNS_11v2d_genericIfEERKNSt3__112basic_stringIcNS5_11char_traitsIcEENS5_9allocatorIcEEEENS_5PixelES4_, symObjAddr: 0x183DC, symBinAddr: 0x10001A0CC, symSize: 0xB8 }
  - { offsetInCU: 0x51675, offset: 0x51675, size: 0x8, addend: 0x0, symName: __ZN3olc15TransformedView13FillRectDecalERKNS_11v2d_genericIfEES4_NS_5PixelE, symObjAddr: 0x18494, symBinAddr: 0x10001A184, symSize: 0xA0 }
  - { offsetInCU: 0x516CA, offset: 0x516CA, size: 0x8, addend: 0x0, symName: __ZN3olc15TransformedView13DrawRectDecalERKNS_11v2d_genericIfEES4_NS_5PixelE, symObjAddr: 0x18534, symBinAddr: 0x10001A224, symSize: 0xA0 }
  - { offsetInCU: 0x5171F, offset: 0x5171F, size: 0x8, addend: 0x0, symName: __ZN3olc15TransformedView13DrawLineDecalERKNS_11v2d_genericIfEES4_NS_5PixelE, symObjAddr: 0x185D4, symBinAddr: 0x10001A2C4, symSize: 0x94 }
  - { offsetInCU: 0x51774, offset: 0x51774, size: 0x8, addend: 0x0, symName: __ZN3olc15TransformedView21GradientFillRectDecalERKNS_11v2d_genericIfEES4_NS_5PixelES5_S5_S5_, symObjAddr: 0x18668, symBinAddr: 0x10001A358, symSize: 0xD8 }
  - { offsetInCU: 0x517F6, offset: 0x517F6, size: 0x8, addend: 0x0, symName: __ZN3olc15TransformedView16DrawPolygonDecalEPNS_5DecalERKNSt3__16vectorINS_11v2d_genericIfEENS3_9allocatorIS6_EEEESB_NS_5PixelE, symObjAddr: 0x18740, symBinAddr: 0x10001A430, symSize: 0x124 }
  - { offsetInCU: 0x51887, offset: 0x51887, size: 0x8, addend: 0x0, symName: __ZN3olc15TransformedView16DrawPolygonDecalEPNS_5DecalERKNSt3__16vectorINS_11v2d_genericIfEENS3_9allocatorIS6_EEEESB_RKNS4_INS_5PixelENS7_ISC_EEEE, symObjAddr: 0x18864, symBinAddr: 0x10001A554, symSize: 0x114 }
  - { offsetInCU: 0x51918, offset: 0x51918, size: 0x8, addend: 0x0, symName: __ZN3olc15TransformedView16DrawPolygonDecalEPNS_5DecalERKNSt3__16vectorINS_11v2d_genericIfEENS3_9allocatorIS6_EEEESB_RKNS4_INS_5PixelENS7_ISC_EEEESC_, symObjAddr: 0x18978, symBinAddr: 0x10001A668, symSize: 0x12C }
  - { offsetInCU: 0x519C7, offset: 0x519C7, size: 0x8, addend: 0x0, symName: __ZN3olc19TileTransformedViewC2ERKNS_11v2d_genericIiEES4_, symObjAddr: 0x18AA4, symBinAddr: 0x10001A794, symSize: 0x80 }
  - { offsetInCU: 0x51A11, offset: 0x51A11, size: 0x8, addend: 0x0, symName: __ZN3olc15TransformedViewC2Ev, symObjAddr: 0x18B24, symBinAddr: 0x10001A814, symSize: 0xC8 }
  - { offsetInCU: 0x51A3B, offset: 0x51A3B, size: 0x8, addend: 0x0, symName: __ZN3olc19TileTransformedViewC1ERKNS_11v2d_genericIiEES4_, symObjAddr: 0x18BEC, symBinAddr: 0x10001A8DC, symSize: 0x3C }
  - { offsetInCU: 0x51A85, offset: 0x51A85, size: 0x8, addend: 0x0, symName: __ZNK3olc19TileTransformedView14GetTopLeftTileEv, symObjAddr: 0x18C28, symBinAddr: 0x10001A918, symSize: 0x78 }
  - { offsetInCU: 0x51AAD, offset: 0x51AAD, size: 0x8, addend: 0x0, symName: __ZNK3olc19TileTransformedView18GetBottomRightTileEv, symObjAddr: 0x18CA0, symBinAddr: 0x10001A990, symSize: 0x74 }
  - { offsetInCU: 0x51AD5, offset: 0x51AD5, size: 0x8, addend: 0x0, symName: __ZNK3olc19TileTransformedView15GetVisibleTilesEv, symObjAddr: 0x18D14, symBinAddr: 0x10001AA04, symSize: 0x58 }
  - { offsetInCU: 0x51AFD, offset: 0x51AFD, size: 0x8, addend: 0x0, symName: __ZNK3olc19TileTransformedView21GetTileUnderScreenPosERKNS_11v2d_genericIiEE, symObjAddr: 0x18D6C, symBinAddr: 0x10001AA5C, symSize: 0x78 }
  - { offsetInCU: 0x51B34, offset: 0x51B34, size: 0x8, addend: 0x0, symName: __ZNK3olc19TileTransformedView13GetTileOffsetEv, symObjAddr: 0x18DE4, symBinAddr: 0x10001AAD4, symSize: 0x94 }
  - { offsetInCU: 0x51BF3, offset: 0x51BF3, size: 0x8, addend: 0x0, symName: __ZN4Menu11getMenuItemERKN3olc11v2d_genericIiEE, symObjAddr: 0x18E78, symBinAddr: 0x10001AB68, symSize: 0x18 }
  - { offsetInCU: 0x51C28, offset: 0x51C28, size: 0x8, addend: 0x0, symName: __ZN4Menu16isPositionInsideERKN3olc11v2d_genericIiEE, symObjAddr: 0x18E90, symBinAddr: 0x10001AB80, symSize: 0x114 }
  - { offsetInCU: 0x51C6C, offset: 0x51C6C, size: 0x8, addend: 0x0, symName: __ZNK3olc11v2d_genericIiEplERKS1_, symObjAddr: 0x18FA4, symBinAddr: 0x10001AC94, symSize: 0x5C }
  - { offsetInCU: 0x51D7C, offset: 0x51D7C, size: 0x8, addend: 0x0, symName: __ZN9WorldTile17setBuildingOnTileE12BuildingType, symObjAddr: 0x19000, symBinAddr: 0x10001ACF0, symSize: 0x74 }
  - { offsetInCU: 0x51F6F, offset: 0x51F6F, size: 0x8, addend: 0x0, symName: __ZN10MainWindow12OnUserCreateEv, symObjAddr: 0x19074, symBinAddr: 0x10001AD64, symSize: 0x430 }
  - { offsetInCU: 0x520A3, offset: 0x520A3, size: 0x8, addend: 0x0, symName: __ZNSt3__113basic_fstreamIcNS_11char_traitsIcEEEC1Ev, symObjAddr: 0x197F4, symBinAddr: 0x10001B4E4, symSize: 0x100 }
  - { offsetInCU: 0x520CF, offset: 0x520CF, size: 0x8, addend: 0x0, symName: __ZNSt3__113basic_fstreamIcNS_11char_traitsIcEEE4openEPKcj, symObjAddr: 0x198F4, symBinAddr: 0x10001B5E4, symSize: 0x84 }
  - { offsetInCU: 0x52115, offset: 0x52115, size: 0x8, addend: 0x0, symName: __ZNKSt3__113basic_fstreamIcNS_11char_traitsIcEEE7is_openEv, symObjAddr: 0x19978, symBinAddr: 0x10001B668, symSize: 0x2C }
  - { offsetInCU: 0x5213D, offset: 0x5213D, size: 0x8, addend: 0x0, symName: __ZNSt3__15arrayINS0_I9WorldTileLm160EEELm160EEixB8ue170006Em, symObjAddr: 0x199A4, symBinAddr: 0x10001B694, symSize: 0x28 }
  - { offsetInCU: 0x52171, offset: 0x52171, size: 0x8, addend: 0x0, symName: __ZNSt3__15arrayI9WorldTileLm160EEixB8ue170006Em, symObjAddr: 0x199CC, symBinAddr: 0x10001B6BC, symSize: 0x20 }
  - { offsetInCU: 0x521A5, offset: 0x521A5, size: 0x8, addend: 0x0, symName: __ZN9WorldTile10setPositonEii, symObjAddr: 0x199EC, symBinAddr: 0x10001B6DC, symSize: 0x2C }
  - { offsetInCU: 0x521E7, offset: 0x521E7, size: 0x8, addend: 0x0, symName: __ZN9WorldTile9setTileIDEh, symObjAddr: 0x19A18, symBinAddr: 0x10001B708, symSize: 0x20 }
  - { offsetInCU: 0x5221B, offset: 0x5221B, size: 0x8, addend: 0x0, symName: __ZNSt3__113basic_fstreamIcNS_11char_traitsIcEEE5closeEv, symObjAddr: 0x19A38, symBinAddr: 0x10001B728, symSize: 0x58 }
  - { offsetInCU: 0x52248, offset: 0x52248, size: 0x8, addend: 0x0, symName: __ZNSt3__113basic_fstreamIcNS_11char_traitsIcEEED1Ev, symObjAddr: 0x19A90, symBinAddr: 0x10001B780, symSize: 0x40 }
  - { offsetInCU: 0x52274, offset: 0x52274, size: 0x8, addend: 0x0, symName: __ZN10MainWindow12OnUserUpdateEf, symObjAddr: 0x19AD0, symBinAddr: 0x10001B7C0, symSize: 0x8CC }
  - { offsetInCU: 0x523C6, offset: 0x523C6, size: 0x8, addend: 0x0, symName: __ZN3olc11v2d_genericIiEC1ERKS1_, symObjAddr: 0x1A39C, symBinAddr: 0x10001C08C, symSize: 0x34 }
  - { offsetInCU: 0x523FF, offset: 0x523FF, size: 0x8, addend: 0x0, symName: __ZN10MainWindow8DrawTileEiihh, symObjAddr: 0x1A3D0, symBinAddr: 0x10001C0C0, symSize: 0x978 }
  - { offsetInCU: 0x52463, offset: 0x52463, size: 0x8, addend: 0x0, symName: __ZN9WorldTile9getTileIDEv, symObjAddr: 0x1AD88, symBinAddr: 0x10001CA78, symSize: 0x18 }
  - { offsetInCU: 0x52489, offset: 0x52489, size: 0x8, addend: 0x0, symName: __ZN9WorldTile13getBuildingIDEv, symObjAddr: 0x1ADA0, symBinAddr: 0x10001CA90, symSize: 0x48 }
  - { offsetInCU: 0x524AF, offset: 0x524AF, size: 0x8, addend: 0x0, symName: __ZN4Menu9getOriginEv, symObjAddr: 0x1AE2C, symBinAddr: 0x10001CB1C, symSize: 0x38 }
  - { offsetInCU: 0x524D5, offset: 0x524D5, size: 0x8, addend: 0x0, symName: __ZN4Menu7getSizeEv, symObjAddr: 0x1AE64, symBinAddr: 0x10001CB54, symSize: 0x3C }
  - { offsetInCU: 0x524FB, offset: 0x524FB, size: 0x8, addend: 0x0, symName: _main, symObjAddr: 0x1AEA0, symBinAddr: 0x10001CB90, symSize: 0xF8 }
  - { offsetInCU: 0x52526, offset: 0x52526, size: 0x8, addend: 0x0, symName: __ZN10MainWindowC1Ev, symObjAddr: 0x1AF98, symBinAddr: 0x10001CC88, symSize: 0x2C }
  - { offsetInCU: 0x52550, offset: 0x52550, size: 0x8, addend: 0x0, symName: __ZN10MainWindowD1Ev, symObjAddr: 0x1AFC4, symBinAddr: 0x10001CCB4, symSize: 0x2C }
  - { offsetInCU: 0x5257C, offset: 0x5257C, size: 0x8, addend: 0x0, symName: __ZN10MainWindowD0Ev, symObjAddr: 0x1AFF0, symBinAddr: 0x10001CCE0, symSize: 0x30 }
  - { offsetInCU: 0x525A8, offset: 0x525A8, size: 0x8, addend: 0x0, symName: __ZN3olc14ResourceBufferD1Ev, symObjAddr: 0x1B020, symBinAddr: 0x10001CD10, symSize: 0x2C }
  - { offsetInCU: 0x525D5, offset: 0x525D5, size: 0x8, addend: 0x0, symName: __ZN3olc14ResourceBufferD0Ev, symObjAddr: 0x1B04C, symBinAddr: 0x10001CD3C, symSize: 0x30 }
  - { offsetInCU: 0x5260C, offset: 0x5260C, size: 0x8, addend: 0x0, symName: __ZNKSt3__16__lessIvvEclB8ue170006IffEEbRKT_RKT0_, symObjAddr: 0x1B0D0, symBinAddr: 0x10001CDC0, symSize: 0x34 }
  - { offsetInCU: 0x52660, offset: 0x52660, size: 0x8, addend: 0x0, symName: __ZNKSt3__16__lessIvvEclB8ue170006IiiEEbRKT_RKT0_, symObjAddr: 0x1B1AC, symBinAddr: 0x10001CE9C, symSize: 0x34 }
  - { offsetInCU: 0x526B4, offset: 0x526B4, size: 0x8, addend: 0x0, symName: __ZNSt3__16vectorIN3olc5PixelENS_9allocatorIS2_EEEC2B8ue170006Ev, symObjAddr: 0x1B234, symBinAddr: 0x10001CF24, symSize: 0x4C }
  - { offsetInCU: 0x526EA, offset: 0x526EA, size: 0x8, addend: 0x0, symName: __ZNSt3__117__compressed_pairIPN3olc5PixelENS_9allocatorIS2_EEEC1B8ue170006IDnNS_18__default_init_tagEEEOT_OT0_, symObjAddr: 0x1B280, symBinAddr: 0x10001CF70, symSize: 0x3C }
  - { offsetInCU: 0x52742, offset: 0x52742, size: 0x8, addend: 0x0, symName: __ZNSt3__117__compressed_pairIPN3olc5PixelENS_9allocatorIS2_EEEC2B8ue170006IDnNS_18__default_init_tagEEEOT_OT0_, symObjAddr: 0x1B2BC, symBinAddr: 0x10001CFAC, symSize: 0x40 }
  - { offsetInCU: 0x5279A, offset: 0x5279A, size: 0x8, addend: 0x0, symName: __ZNSt3__122__compressed_pair_elemIPN3olc5PixelELi0ELb0EEC2B8ue170006IDnvEEOT_, symObjAddr: 0x1B2FC, symBinAddr: 0x10001CFEC, symSize: 0x1C }
  - { offsetInCU: 0x527DC, offset: 0x527DC, size: 0x8, addend: 0x0, symName: __ZNSt3__122__compressed_pair_elemINS_9allocatorIN3olc5PixelEEELi1ELb1EEC2B8ue170006ENS_18__default_init_tagE, symObjAddr: 0x1B318, symBinAddr: 0x10001D008, symSize: 0x2C }
  - { offsetInCU: 0x52810, offset: 0x52810, size: 0x8, addend: 0x0, symName: __ZNSt3__19allocatorIN3olc5PixelEEC2B8ue170006Ev, symObjAddr: 0x1B344, symBinAddr: 0x10001D034, symSize: 0x2C }
  - { offsetInCU: 0x5283A, offset: 0x5283A, size: 0x8, addend: 0x0, symName: __ZNSt3__116__non_trivial_ifILb1ENS_9allocatorIN3olc5PixelEEEEC2B8ue170006Ev, symObjAddr: 0x1B370, symBinAddr: 0x10001D060, symSize: 0x14 }
  - { offsetInCU: 0x52864, offset: 0x52864, size: 0x8, addend: 0x0, symName: __ZNSt3__16vectorIN3olc5PixelENS_9allocatorIS2_EEED2B8ue170006Ev, symObjAddr: 0x1B384, symBinAddr: 0x10001D074, symSize: 0x44 }
  - { offsetInCU: 0x5288E, offset: 0x5288E, size: 0x8, addend: 0x0, symName: __ZNSt3__16vectorIN3olc5PixelENS_9allocatorIS2_EEE16__destroy_vectorC1B8ue170006ERS5_, symObjAddr: 0x1B3C8, symBinAddr: 0x10001D0B8, symSize: 0x34 }
  - { offsetInCU: 0x528C7, offset: 0x528C7, size: 0x8, addend: 0x0, symName: __ZNSt3__16vectorIN3olc5PixelENS_9allocatorIS2_EEE16__destroy_vectorclB8ue170006Ev, symObjAddr: 0x1B3FC, symBinAddr: 0x10001D0EC, symSize: 0x90 }
  - { offsetInCU: 0x528ED, offset: 0x528ED, size: 0x8, addend: 0x0, symName: __ZNSt3__16vectorIN3olc5PixelENS_9allocatorIS2_EEE16__destroy_vectorC2B8ue170006ERS5_, symObjAddr: 0x1B48C, symBinAddr: 0x10001D17C, symSize: 0x20 }
  - { offsetInCU: 0x52926, offset: 0x52926, size: 0x8, addend: 0x0, symName: __ZNSt3__16vectorIN3olc5PixelENS_9allocatorIS2_EEE7__clearB8ue170006Ev, symObjAddr: 0x1B4AC, symBinAddr: 0x10001D19C, symSize: 0x28 }
  - { offsetInCU: 0x5294C, offset: 0x5294C, size: 0x8, addend: 0x0, symName: __ZNKSt3__16vectorIN3olc5PixelENS_9allocatorIS2_EEE17__annotate_deleteB8ue170006Ev, symObjAddr: 0x1B4D4, symBinAddr: 0x10001D1C4, symSize: 0xB8 }
  - { offsetInCU: 0x52972, offset: 0x52972, size: 0x8, addend: 0x0, symName: __ZNSt3__116allocator_traitsINS_9allocatorIN3olc5PixelEEEE10deallocateB8ue170006ERS4_PS3_m, symObjAddr: 0x1B58C, symBinAddr: 0x10001D27C, symSize: 0x34 }
  - { offsetInCU: 0x529B4, offset: 0x529B4, size: 0x8, addend: 0x0, symName: __ZNSt3__16vectorIN3olc5PixelENS_9allocatorIS2_EEE7__allocB8ue170006Ev, symObjAddr: 0x1B5C0, symBinAddr: 0x10001D2B0, symSize: 0x28 }
  - { offsetInCU: 0x529DA, offset: 0x529DA, size: 0x8, addend: 0x0, symName: __ZNKSt3__16vectorIN3olc5PixelENS_9allocatorIS2_EEE8capacityB8ue170006Ev, symObjAddr: 0x1B5E8, symBinAddr: 0x10001D2D8, symSize: 0x40 }
  - { offsetInCU: 0x52A00, offset: 0x52A00, size: 0x8, addend: 0x0, symName: __ZNSt3__16vectorIN3olc5PixelENS_9allocatorIS2_EEE22__base_destruct_at_endB8ue170006EPS2_, symObjAddr: 0x1B628, symBinAddr: 0x10001D318, symSize: 0x8C }
  - { offsetInCU: 0x52A44, offset: 0x52A44, size: 0x8, addend: 0x0, symName: __ZNSt3__116allocator_traitsINS_9allocatorIN3olc5PixelEEEE7destroyB8ue170006IS3_vvEEvRS4_PT_, symObjAddr: 0x1B6B4, symBinAddr: 0x10001D3A4, symSize: 0x28 }
  - { offsetInCU: 0x52A7F, offset: 0x52A7F, size: 0x8, addend: 0x0, symName: __ZNKSt3__16vectorIN3olc5PixelENS_9allocatorIS2_EEE31__annotate_contiguous_containerB8ue170006EPKvS7_S7_S7_, symObjAddr: 0x1B724, symBinAddr: 0x10001D414, symSize: 0x20 }
  - { offsetInCU: 0x52AD5, offset: 0x52AD5, size: 0x8, addend: 0x0, symName: __ZNKSt3__16vectorIN3olc5PixelENS_9allocatorIS2_EEE4dataB8ue170006Ev, symObjAddr: 0x1B744, symBinAddr: 0x10001D434, symSize: 0x28 }
  - { offsetInCU: 0x52AFB, offset: 0x52AFB, size: 0x8, addend: 0x0, symName: __ZNSt3__19allocatorIN3olc5PixelEE10deallocateB8ue170006EPS2_m, symObjAddr: 0x1B76C, symBinAddr: 0x10001D45C, symSize: 0x40 }
  - { offsetInCU: 0x52B3D, offset: 0x52B3D, size: 0x8, addend: 0x0, symName: __ZNSt3__117__compressed_pairIPN3olc5PixelENS_9allocatorIS2_EEE6secondB8ue170006Ev, symObjAddr: 0x1B8D4, symBinAddr: 0x10001D5C4, symSize: 0x24 }
  - { offsetInCU: 0x52B63, offset: 0x52B63, size: 0x8, addend: 0x0, symName: __ZNSt3__122__compressed_pair_elemINS_9allocatorIN3olc5PixelEEELi1ELb1EE5__getB8ue170006Ev, symObjAddr: 0x1B8F8, symBinAddr: 0x10001D5E8, symSize: 0x14 }
  - { offsetInCU: 0x52B89, offset: 0x52B89, size: 0x8, addend: 0x0, symName: __ZNKSt3__16vectorIN3olc5PixelENS_9allocatorIS2_EEE9__end_capB8ue170006Ev, symObjAddr: 0x1B90C, symBinAddr: 0x10001D5FC, symSize: 0x28 }
  - { offsetInCU: 0x52BAF, offset: 0x52BAF, size: 0x8, addend: 0x0, symName: __ZNKSt3__117__compressed_pairIPN3olc5PixelENS_9allocatorIS2_EEE5firstB8ue170006Ev, symObjAddr: 0x1B934, symBinAddr: 0x10001D624, symSize: 0x24 }
  - { offsetInCU: 0x52BD5, offset: 0x52BD5, size: 0x8, addend: 0x0, symName: __ZNKSt3__122__compressed_pair_elemIPN3olc5PixelELi0ELb0EE5__getB8ue170006Ev, symObjAddr: 0x1B958, symBinAddr: 0x10001D648, symSize: 0x14 }
  - { offsetInCU: 0x52BFB, offset: 0x52BFB, size: 0x8, addend: 0x0, symName: __ZNSt3__16vectorIN3olc5PixelENS_9allocatorIS2_EEE8__appendEm, symObjAddr: 0x1B96C, symBinAddr: 0x10001D65C, symSize: 0x108 }
  - { offsetInCU: 0x52C57, offset: 0x52C57, size: 0x8, addend: 0x0, symName: __ZNSt3__16vectorIN3olc5PixelENS_9allocatorIS2_EEE17__destruct_at_endB8ue170006EPS2_, symObjAddr: 0x1BA74, symBinAddr: 0x10001D764, symSize: 0x4C }
  - { offsetInCU: 0x52C9B, offset: 0x52C9B, size: 0x8, addend: 0x0, symName: __ZNSt3__16vectorIN3olc5PixelENS_9allocatorIS2_EEE9__end_capB8ue170006Ev, symObjAddr: 0x1BAC0, symBinAddr: 0x10001D7B0, symSize: 0x28 }
  - { offsetInCU: 0x52CC1, offset: 0x52CC1, size: 0x8, addend: 0x0, symName: __ZNSt3__16vectorIN3olc5PixelENS_9allocatorIS2_EEE18__construct_at_endEm, symObjAddr: 0x1BAE8, symBinAddr: 0x10001D7D8, symSize: 0xC8 }
  - { offsetInCU: 0x52D34, offset: 0x52D34, size: 0x8, addend: 0x0, symName: __ZNKSt3__16vectorIN3olc5PixelENS_9allocatorIS2_EEE11__recommendB8ue170006Em, symObjAddr: 0x1BBB0, symBinAddr: 0x10001D8A0, symSize: 0xB4 }
  - { offsetInCU: 0x52D89, offset: 0x52D89, size: 0x8, addend: 0x0, symName: __ZNSt3__114__split_bufferIN3olc5PixelERNS_9allocatorIS2_EEEC1EmmS5_, symObjAddr: 0x1BC64, symBinAddr: 0x10001D954, symSize: 0x44 }
  - { offsetInCU: 0x52DDF, offset: 0x52DDF, size: 0x8, addend: 0x0, symName: __ZNSt3__114__split_bufferIN3olc5PixelERNS_9allocatorIS2_EEE18__construct_at_endEm, symObjAddr: 0x1BCA8, symBinAddr: 0x10001D998, symSize: 0xB4 }
  - { offsetInCU: 0x52E24, offset: 0x52E24, size: 0x8, addend: 0x0, symName: __ZNSt3__114__split_bufferIN3olc5PixelERNS_9allocatorIS2_EEED1Ev, symObjAddr: 0x1BE6C, symBinAddr: 0x10001DB5C, symSize: 0x2C }
  - { offsetInCU: 0x52E50, offset: 0x52E50, size: 0x8, addend: 0x0, symName: __ZNSt3__117__compressed_pairIPN3olc5PixelENS_9allocatorIS2_EEE5firstB8ue170006Ev, symObjAddr: 0x1BE98, symBinAddr: 0x10001DB88, symSize: 0x24 }
  - { offsetInCU: 0x52E76, offset: 0x52E76, size: 0x8, addend: 0x0, symName: __ZNSt3__122__compressed_pair_elemIPN3olc5PixelELi0ELb0EE5__getB8ue170006Ev, symObjAddr: 0x1BEBC, symBinAddr: 0x10001DBAC, symSize: 0x14 }
  - { offsetInCU: 0x52EB5, offset: 0x52EB5, size: 0x8, addend: 0x0, symName: __ZNSt3__16vectorIN3olc5PixelENS_9allocatorIS2_EEE21_ConstructTransactionC1B8ue170006ERS5_m, symObjAddr: 0x1BED0, symBinAddr: 0x10001DBC0, symSize: 0x3C }
  - { offsetInCU: 0x52EFD, offset: 0x52EFD, size: 0x8, addend: 0x0, symName: __ZNSt3__116allocator_traitsINS_9allocatorIN3olc5PixelEEEE9constructB8ue170006IS3_JEvvEEvRS4_PT_DpOT0_, symObjAddr: 0x1BF0C, symBinAddr: 0x10001DBFC, symSize: 0x28 }
  - { offsetInCU: 0x52F3D, offset: 0x52F3D, size: 0x8, addend: 0x0, symName: __ZNSt3__16vectorIN3olc5PixelENS_9allocatorIS2_EEE21_ConstructTransactionD1B8ue170006Ev, symObjAddr: 0x1BF34, symBinAddr: 0x10001DC24, symSize: 0x2C }
  - { offsetInCU: 0x52F67, offset: 0x52F67, size: 0x8, addend: 0x0, symName: __ZNSt3__16vectorIN3olc5PixelENS_9allocatorIS2_EEE21_ConstructTransactionC2B8ue170006ERS5_m, symObjAddr: 0x1BF60, symBinAddr: 0x10001DC50, symSize: 0x44 }
  - { offsetInCU: 0x52FAF, offset: 0x52FAF, size: 0x8, addend: 0x0, symName: __ZNSt3__16vectorIN3olc5PixelENS_9allocatorIS2_EEE21_ConstructTransactionD2B8ue170006Ev, symObjAddr: 0x1BFD8, symBinAddr: 0x10001DCC8, symSize: 0x20 }
  - { offsetInCU: 0x52FD9, offset: 0x52FD9, size: 0x8, addend: 0x0, symName: __ZNKSt3__16vectorIN3olc5PixelENS_9allocatorIS2_EEE8max_sizeEv, symObjAddr: 0x1BFF8, symBinAddr: 0x10001DCE8, symSize: 0x60 }
  - { offsetInCU: 0x53001, offset: 0x53001, size: 0x8, addend: 0x0, symName: __ZNKSt3__16vectorIN3olc5PixelENS_9allocatorIS2_EEE20__throw_length_errorB8ue170006Ev, symObjAddr: 0x1C058, symBinAddr: 0x10001DD48, symSize: 0x1C }
  - { offsetInCU: 0x53031, offset: 0x53031, size: 0x8, addend: 0x0, symName: __ZNSt3__116allocator_traitsINS_9allocatorIN3olc5PixelEEEE8max_sizeB8ue170006IS4_vvEEmRKS4_, symObjAddr: 0x1C0CC, symBinAddr: 0x10001DDBC, symSize: 0x28 }
  - { offsetInCU: 0x5305D, offset: 0x5305D, size: 0x8, addend: 0x0, symName: __ZNKSt3__16vectorIN3olc5PixelENS_9allocatorIS2_EEE7__allocB8ue170006Ev, symObjAddr: 0x1C0F4, symBinAddr: 0x10001DDE4, symSize: 0x28 }
  - { offsetInCU: 0x53083, offset: 0x53083, size: 0x8, addend: 0x0, symName: __ZNSt3__114numeric_limitsIlE3maxB8ue170006Ev, symObjAddr: 0x1C11C, symBinAddr: 0x10001DE0C, symSize: 0x14 }
  - { offsetInCU: 0x53097, offset: 0x53097, size: 0x8, addend: 0x0, symName: __ZNKSt3__16__lessIvvEclB8ue170006ImmEEbRKT_RKT0_, symObjAddr: 0x1C184, symBinAddr: 0x10001DE74, symSize: 0x34 }
  - { offsetInCU: 0x530EB, offset: 0x530EB, size: 0x8, addend: 0x0, symName: __ZNSt3__114numeric_limitsImE3maxB8ue170006Ev, symObjAddr: 0x1C1B8, symBinAddr: 0x10001DEA8, symSize: 0x14 }
  - { offsetInCU: 0x530FF, offset: 0x530FF, size: 0x8, addend: 0x0, symName: __ZNSt3__123__libcpp_numeric_limitsImLb1EE3maxB8ue170006Ev, symObjAddr: 0x1C1CC, symBinAddr: 0x10001DEBC, symSize: 0x8 }
  - { offsetInCU: 0x53113, offset: 0x53113, size: 0x8, addend: 0x0, symName: __ZNKSt3__117__compressed_pairIPN3olc5PixelENS_9allocatorIS2_EEE6secondB8ue170006Ev, symObjAddr: 0x1C1D4, symBinAddr: 0x10001DEC4, symSize: 0x24 }
  - { offsetInCU: 0x53139, offset: 0x53139, size: 0x8, addend: 0x0, symName: __ZNKSt3__122__compressed_pair_elemINS_9allocatorIN3olc5PixelEEELi1ELb1EE5__getB8ue170006Ev, symObjAddr: 0x1C1F8, symBinAddr: 0x10001DEE8, symSize: 0x14 }
  - { offsetInCU: 0x5315F, offset: 0x5315F, size: 0x8, addend: 0x0, symName: __ZNSt3__123__libcpp_numeric_limitsIlLb1EE3maxB8ue170006Ev, symObjAddr: 0x1C20C, symBinAddr: 0x10001DEFC, symSize: 0x8 }
  - { offsetInCU: 0x53173, offset: 0x53173, size: 0x8, addend: 0x0, symName: __ZNSt12length_errorC1B8ue170006EPKc, symObjAddr: 0x1C278, symBinAddr: 0x10001DF68, symSize: 0x34 }
  - { offsetInCU: 0x531AB, offset: 0x531AB, size: 0x8, addend: 0x0, symName: __ZNSt12length_errorC2B8ue170006EPKc, symObjAddr: 0x1C2AC, symBinAddr: 0x10001DF9C, symSize: 0x4C }
  - { offsetInCU: 0x531E3, offset: 0x531E3, size: 0x8, addend: 0x0, symName: __ZNSt3__114__split_bufferIN3olc5PixelERNS_9allocatorIS2_EEEC2EmmS5_, symObjAddr: 0x1C34C, symBinAddr: 0x10001E03C, symSize: 0xD4 }
  - { offsetInCU: 0x53257, offset: 0x53257, size: 0x8, addend: 0x0, symName: __ZNSt3__117__compressed_pairIPN3olc5PixelERNS_9allocatorIS2_EEEC1B8ue170006IDnS6_EEOT_OT0_, symObjAddr: 0x1C420, symBinAddr: 0x10001E110, symSize: 0x3C }
  - { offsetInCU: 0x532AF, offset: 0x532AF, size: 0x8, addend: 0x0, symName: __ZNSt3__114__split_bufferIN3olc5PixelERNS_9allocatorIS2_EEE7__allocB8ue170006Ev, symObjAddr: 0x1C49C, symBinAddr: 0x10001E18C, symSize: 0x28 }
  - { offsetInCU: 0x532D5, offset: 0x532D5, size: 0x8, addend: 0x0, symName: __ZNSt3__114__split_bufferIN3olc5PixelERNS_9allocatorIS2_EEE9__end_capB8ue170006Ev, symObjAddr: 0x1C4C4, symBinAddr: 0x10001E1B4, symSize: 0x28 }
  - { offsetInCU: 0x532FB, offset: 0x532FB, size: 0x8, addend: 0x0, symName: __ZNSt3__117__compressed_pairIPN3olc5PixelERNS_9allocatorIS2_EEEC2B8ue170006IDnS6_EEOT_OT0_, symObjAddr: 0x1C4EC, symBinAddr: 0x10001E1DC, symSize: 0x48 }
  - { offsetInCU: 0x53353, offset: 0x53353, size: 0x8, addend: 0x0, symName: __ZNSt3__122__compressed_pair_elemIRNS_9allocatorIN3olc5PixelEEELi1ELb0EEC2B8ue170006IS5_vEEOT_, symObjAddr: 0x1C534, symBinAddr: 0x10001E224, symSize: 0x20 }
  - { offsetInCU: 0x53395, offset: 0x53395, size: 0x8, addend: 0x0, symName: __ZNSt3__19allocatorIN3olc5PixelEE8allocateB8ue170006Em, symObjAddr: 0x1C554, symBinAddr: 0x10001E244, symSize: 0x58 }
  - { offsetInCU: 0x533C9, offset: 0x533C9, size: 0x8, addend: 0x0, symName: __ZNSt3__117__compressed_pairIPN3olc5PixelERNS_9allocatorIS2_EEE6secondB8ue170006Ev, symObjAddr: 0x1C690, symBinAddr: 0x10001E380, symSize: 0x28 }
  - { offsetInCU: 0x533EF, offset: 0x533EF, size: 0x8, addend: 0x0, symName: __ZNSt3__122__compressed_pair_elemIRNS_9allocatorIN3olc5PixelEEELi1ELb0EE5__getB8ue170006Ev, symObjAddr: 0x1C6B8, symBinAddr: 0x10001E3A8, symSize: 0x18 }
  - { offsetInCU: 0x53415, offset: 0x53415, size: 0x8, addend: 0x0, symName: __ZNSt3__117__compressed_pairIPN3olc5PixelERNS_9allocatorIS2_EEE5firstB8ue170006Ev, symObjAddr: 0x1C6D0, symBinAddr: 0x10001E3C0, symSize: 0x24 }
  - { offsetInCU: 0x53445, offset: 0x53445, size: 0x8, addend: 0x0, symName: __ZNSt3__114__split_bufferIN3olc5PixelERNS_9allocatorIS2_EEE21_ConstructTransactionC1B8ue170006EPPS2_m, symObjAddr: 0x1C6F4, symBinAddr: 0x10001E3E4, symSize: 0x3C }
  - { offsetInCU: 0x5348B, offset: 0x5348B, size: 0x8, addend: 0x0, symName: __ZNSt3__114__split_bufferIN3olc5PixelERNS_9allocatorIS2_EEE21_ConstructTransactionD1B8ue170006Ev, symObjAddr: 0x1C730, symBinAddr: 0x10001E420, symSize: 0x2C }
  - { offsetInCU: 0x534B5, offset: 0x534B5, size: 0x8, addend: 0x0, symName: __ZNSt3__114__split_bufferIN3olc5PixelERNS_9allocatorIS2_EEE21_ConstructTransactionC2B8ue170006EPPS2_m, symObjAddr: 0x1C75C, symBinAddr: 0x10001E44C, symSize: 0x44 }
  - { offsetInCU: 0x534FB, offset: 0x534FB, size: 0x8, addend: 0x0, symName: __ZNSt3__114__split_bufferIN3olc5PixelERNS_9allocatorIS2_EEE21_ConstructTransactionD2B8ue170006Ev, symObjAddr: 0x1C7A0, symBinAddr: 0x10001E490, symSize: 0x20 }
  - { offsetInCU: 0x53525, offset: 0x53525, size: 0x8, addend: 0x0, symName: __ZNSt3__116reverse_iteratorIPN3olc5PixelEEC1B8ue170006ES3_, symObjAddr: 0x1C838, symBinAddr: 0x10001E528, symSize: 0x34 }
  - { offsetInCU: 0x5355D, offset: 0x5355D, size: 0x8, addend: 0x0, symName: __ZNKSt3__116reverse_iteratorIPN3olc5PixelEE4baseB8ue170006Ev, symObjAddr: 0x1C86C, symBinAddr: 0x10001E55C, symSize: 0x18 }
  - { offsetInCU: 0x53583, offset: 0x53583, size: 0x8, addend: 0x0, symName: __ZNKSt3__16vectorIN3olc5PixelENS_9allocatorIS2_EEE14__annotate_newB8ue170006Em, symObjAddr: 0x1C8C0, symBinAddr: 0x10001E5B0, symSize: 0xAC }
  - { offsetInCU: 0x535DC, offset: 0x535DC, size: 0x8, addend: 0x0, symName: __ZNKSt3__111__move_loopINS_17_ClassicAlgPolicyEEclB8ue170006INS_16reverse_iteratorIPN3olc5PixelEEES8_S8_EENS_4pairIT_T1_EESA_T0_SB_, symObjAddr: 0x1CC24, symBinAddr: 0x10001E914, symSize: 0xA0 }
  - { offsetInCU: 0x53647, offset: 0x53647, size: 0x8, addend: 0x0, symName: __ZNSt3__119__unwrap_range_implINS_16reverse_iteratorIPN3olc5PixelEEES5_E8__unwrapB8ue170006ES5_S5_, symObjAddr: 0x1CE10, symBinAddr: 0x10001EB00, symSize: 0x84 }
  - { offsetInCU: 0x5367E, offset: 0x5367E, size: 0x8, addend: 0x0, symName: __ZNSt3__14pairINS_16reverse_iteratorIPN3olc5PixelEEES5_EC1B8ue170006IS5_S5_LPv0EEEOT_OT0_, symObjAddr: 0x1CE94, symBinAddr: 0x10001EB84, symSize: 0x3C }
  - { offsetInCU: 0x536DC, offset: 0x536DC, size: 0x8, addend: 0x0, symName: __ZNSt3__14pairINS_16reverse_iteratorIPN3olc5PixelEEES5_EC2B8ue170006IS5_S5_LPv0EEEOT_OT0_, symObjAddr: 0x1CED0, symBinAddr: 0x10001EBC0, symSize: 0x34 }
  - { offsetInCU: 0x53740, offset: 0x53740, size: 0x8, addend: 0x0, symName: __ZNSt3__18_IterOpsINS_17_ClassicAlgPolicyEE11__iter_moveB8ue170006IRNS_16reverse_iteratorIPN3olc5PixelEEEEENS_9enable_ifIXsr12is_referenceIDTdeclsr3stdE7declvalIRT_EEEEE5valueEDTclsr3stdE4movedeclsr3stdE7declvalISC_EEEEE4typeEOSB_, symObjAddr: 0x1CF4C, symBinAddr: 0x10001EC3C, symSize: 0x28 }
  - { offsetInCU: 0x5376C, offset: 0x5376C, size: 0x8, addend: 0x0, symName: __ZNKSt3__116reverse_iteratorIPN3olc5PixelEEdeB8ue170006Ev, symObjAddr: 0x1CF74, symBinAddr: 0x10001EC64, symSize: 0x28 }
  - { offsetInCU: 0x537A1, offset: 0x537A1, size: 0x8, addend: 0x0, symName: __ZNSt3__116reverse_iteratorIPN3olc5PixelEEppB8ue170006Ev, symObjAddr: 0x1CF9C, symBinAddr: 0x10001EC8C, symSize: 0x20 }
  - { offsetInCU: 0x537C7, offset: 0x537C7, size: 0x8, addend: 0x0, symName: __ZNSt3__18_IterOpsINS_17_ClassicAlgPolicyEE25__validate_iter_referenceB8ue170006IRNS_16reverse_iteratorIPN3olc5PixelEEEEEvv, symObjAddr: 0x1CFBC, symBinAddr: 0x10001ECAC, symSize: 0x4 }
  - { offsetInCU: 0x537E5, offset: 0x537E5, size: 0x8, addend: 0x0, symName: __ZNSt3__118__unwrap_iter_implINS_16reverse_iteratorIPN3olc5PixelEEELb0EE8__unwrapB8ue170006ES5_, symObjAddr: 0x1CFC0, symBinAddr: 0x10001ECB0, symSize: 0x24 }
  - { offsetInCU: 0x53808, offset: 0x53808, size: 0x8, addend: 0x0, symName: __ZNSt3__119__unwrap_range_implINS_16reverse_iteratorIPN3olc5PixelEEES5_E8__rewrapB8ue170006ES5_S5_, symObjAddr: 0x1CFE4, symBinAddr: 0x10001ECD4, symSize: 0x5C }
  - { offsetInCU: 0x53839, offset: 0x53839, size: 0x8, addend: 0x0, symName: __ZNSt3__118__unwrap_iter_implINS_16reverse_iteratorIPN3olc5PixelEEELb0EE8__rewrapB8ue170006ES5_S5_, symObjAddr: 0x1D040, symBinAddr: 0x10001ED30, symSize: 0x2C }
  - { offsetInCU: 0x53866, offset: 0x53866, size: 0x8, addend: 0x0, symName: __ZNSt3__116reverse_iteratorIPN3olc5PixelEEC2B8ue170006ES3_, symObjAddr: 0x1D06C, symBinAddr: 0x10001ED5C, symSize: 0x28 }
  - { offsetInCU: 0x5389E, offset: 0x5389E, size: 0x8, addend: 0x0, symName: __ZNSt3__114__split_bufferIN3olc5PixelERNS_9allocatorIS2_EEED2Ev, symObjAddr: 0x1D094, symBinAddr: 0x10001ED84, symSize: 0x8C }
  - { offsetInCU: 0x538CA, offset: 0x538CA, size: 0x8, addend: 0x0, symName: __ZNSt3__114__split_bufferIN3olc5PixelERNS_9allocatorIS2_EEE5clearB8ue170006Ev, symObjAddr: 0x1D120, symBinAddr: 0x10001EE10, symSize: 0x28 }
  - { offsetInCU: 0x538F0, offset: 0x538F0, size: 0x8, addend: 0x0, symName: __ZNKSt3__114__split_bufferIN3olc5PixelERNS_9allocatorIS2_EEE8capacityB8ue170006Ev, symObjAddr: 0x1D148, symBinAddr: 0x10001EE38, symSize: 0x40 }
  - { offsetInCU: 0x53916, offset: 0x53916, size: 0x8, addend: 0x0, symName: __ZNSt3__114__split_bufferIN3olc5PixelERNS_9allocatorIS2_EEE17__destruct_at_endB8ue170006EPS2_, symObjAddr: 0x1D188, symBinAddr: 0x10001EE78, symSize: 0x2C }
  - { offsetInCU: 0x5394A, offset: 0x5394A, size: 0x8, addend: 0x0, symName: __ZNSt3__114__split_bufferIN3olc5PixelERNS_9allocatorIS2_EEE17__destruct_at_endB8ue170006EPS2_NS_17integral_constantIbLb0EEE, symObjAddr: 0x1D1B4, symBinAddr: 0x10001EEA4, symSize: 0x80 }
  - { offsetInCU: 0x5398A, offset: 0x5398A, size: 0x8, addend: 0x0, symName: __ZNKSt3__114__split_bufferIN3olc5PixelERNS_9allocatorIS2_EEE9__end_capB8ue170006Ev, symObjAddr: 0x1D234, symBinAddr: 0x10001EF24, symSize: 0x28 }
  - { offsetInCU: 0x539B0, offset: 0x539B0, size: 0x8, addend: 0x0, symName: __ZNKSt3__117__compressed_pairIPN3olc5PixelERNS_9allocatorIS2_EEE5firstB8ue170006Ev, symObjAddr: 0x1D25C, symBinAddr: 0x10001EF4C, symSize: 0x24 }
  - { offsetInCU: 0x539D6, offset: 0x539D6, size: 0x8, addend: 0x0, symName: __ZNKSt3__16vectorIN3olc5PixelENS_9allocatorIS2_EEE17__annotate_shrinkB8ue170006Em, symObjAddr: 0x1D280, symBinAddr: 0x10001EF70, symSize: 0xB4 }
  - { offsetInCU: 0x53A0B, offset: 0x53A0B, size: 0x8, addend: 0x0, symName: __ZNSt3__16vectorIN3olc5PixelENS_9allocatorIS2_EEE8__appendEmRKS2_, symObjAddr: 0x1D334, symBinAddr: 0x10001F024, symSize: 0x114 }
  - { offsetInCU: 0x53A76, offset: 0x53A76, size: 0x8, addend: 0x0, symName: __ZNSt3__16vectorIN3olc5PixelENS_9allocatorIS2_EEE18__construct_at_endEmRKS2_, symObjAddr: 0x1D448, symBinAddr: 0x10001F138, symSize: 0xD0 }
  - { offsetInCU: 0x53AF8, offset: 0x53AF8, size: 0x8, addend: 0x0, symName: __ZNSt3__114__split_bufferIN3olc5PixelERNS_9allocatorIS2_EEE18__construct_at_endEmRKS2_, symObjAddr: 0x1D518, symBinAddr: 0x10001F208, symSize: 0xBC }
  - { offsetInCU: 0x53B4B, offset: 0x53B4B, size: 0x8, addend: 0x0, symName: __ZNSt3__116allocator_traitsINS_9allocatorIN3olc5PixelEEEE9constructB8ue170006IS3_JRKS3_EvvEEvRS4_PT_DpOT0_, symObjAddr: 0x1D5D4, symBinAddr: 0x10001F2C4, symSize: 0x30 }
  - { offsetInCU: 0x53BA0, offset: 0x53BA0, size: 0x8, addend: 0x0, symName: __ZNSt3__16vectorIcNS_9allocatorIcEEEC2B8ue170006Ev, symObjAddr: 0x1D630, symBinAddr: 0x10001F320, symSize: 0x4C }
  - { offsetInCU: 0x53BCA, offset: 0x53BCA, size: 0x8, addend: 0x0, symName: __ZNSt3__117__compressed_pairIPcNS_9allocatorIcEEEC1B8ue170006IDnNS_18__default_init_tagEEEOT_OT0_, symObjAddr: 0x1D67C, symBinAddr: 0x10001F36C, symSize: 0x3C }
  - { offsetInCU: 0x53C22, offset: 0x53C22, size: 0x8, addend: 0x0, symName: __ZNSt3__117__compressed_pairIPcNS_9allocatorIcEEEC2B8ue170006IDnNS_18__default_init_tagEEEOT_OT0_, symObjAddr: 0x1D6B8, symBinAddr: 0x10001F3A8, symSize: 0x40 }
  - { offsetInCU: 0x53C7A, offset: 0x53C7A, size: 0x8, addend: 0x0, symName: __ZNSt3__122__compressed_pair_elemIPcLi0ELb0EEC2B8ue170006IDnvEEOT_, symObjAddr: 0x1D6F8, symBinAddr: 0x10001F3E8, symSize: 0x1C }
  - { offsetInCU: 0x53CBC, offset: 0x53CBC, size: 0x8, addend: 0x0, symName: __ZNSt3__122__compressed_pair_elemINS_9allocatorIcEELi1ELb1EEC2B8ue170006ENS_18__default_init_tagE, symObjAddr: 0x1D714, symBinAddr: 0x10001F404, symSize: 0x2C }
  - { offsetInCU: 0x53CF0, offset: 0x53CF0, size: 0x8, addend: 0x0, symName: __ZNSt3__19allocatorIcEC2B8ue170006Ev, symObjAddr: 0x1D740, symBinAddr: 0x10001F430, symSize: 0x2C }
  - { offsetInCU: 0x53D1A, offset: 0x53D1A, size: 0x8, addend: 0x0, symName: __ZNSt3__116__non_trivial_ifILb1ENS_9allocatorIcEEEC2B8ue170006Ev, symObjAddr: 0x1D76C, symBinAddr: 0x10001F45C, symSize: 0x14 }
  - { offsetInCU: 0x53D44, offset: 0x53D44, size: 0x8, addend: 0x0, symName: __ZNSt3__16vectorIcNS_9allocatorIcEEE8__appendEm, symObjAddr: 0x1D780, symBinAddr: 0x10001F470, symSize: 0x100 }
  - { offsetInCU: 0x53DA0, offset: 0x53DA0, size: 0x8, addend: 0x0, symName: __ZNSt3__16vectorIcNS_9allocatorIcEEE17__destruct_at_endB8ue170006EPc, symObjAddr: 0x1D880, symBinAddr: 0x10001F570, symSize: 0x4C }
  - { offsetInCU: 0x53DE4, offset: 0x53DE4, size: 0x8, addend: 0x0, symName: __ZNSt3__16vectorIcNS_9allocatorIcEEE9__end_capB8ue170006Ev, symObjAddr: 0x1D8CC, symBinAddr: 0x10001F5BC, symSize: 0x28 }
  - { offsetInCU: 0x53E0A, offset: 0x53E0A, size: 0x8, addend: 0x0, symName: __ZNSt3__16vectorIcNS_9allocatorIcEEE18__construct_at_endEm, symObjAddr: 0x1D8F4, symBinAddr: 0x10001F5E4, symSize: 0xC8 }
  - { offsetInCU: 0x53E7D, offset: 0x53E7D, size: 0x8, addend: 0x0, symName: __ZNSt3__16vectorIcNS_9allocatorIcEEE7__allocB8ue170006Ev, symObjAddr: 0x1D9BC, symBinAddr: 0x10001F6AC, symSize: 0x28 }
  - { offsetInCU: 0x53EA3, offset: 0x53EA3, size: 0x8, addend: 0x0, symName: __ZNKSt3__16vectorIcNS_9allocatorIcEEE11__recommendB8ue170006Em, symObjAddr: 0x1D9E4, symBinAddr: 0x10001F6D4, symSize: 0xB4 }
  - { offsetInCU: 0x53EF8, offset: 0x53EF8, size: 0x8, addend: 0x0, symName: __ZNSt3__114__split_bufferIcRNS_9allocatorIcEEEC1EmmS3_, symObjAddr: 0x1DA98, symBinAddr: 0x10001F788, symSize: 0x44 }
  - { offsetInCU: 0x53F4E, offset: 0x53F4E, size: 0x8, addend: 0x0, symName: __ZNSt3__114__split_bufferIcRNS_9allocatorIcEEE18__construct_at_endEm, symObjAddr: 0x1DADC, symBinAddr: 0x10001F7CC, symSize: 0xB4 }
  - { offsetInCU: 0x53F93, offset: 0x53F93, size: 0x8, addend: 0x0, symName: __ZNSt3__114__split_bufferIcRNS_9allocatorIcEEED1Ev, symObjAddr: 0x1DCA0, symBinAddr: 0x10001F990, symSize: 0x2C }
  - { offsetInCU: 0x53FBF, offset: 0x53FBF, size: 0x8, addend: 0x0, symName: __ZNSt3__117__compressed_pairIPcNS_9allocatorIcEEE5firstB8ue170006Ev, symObjAddr: 0x1DCCC, symBinAddr: 0x10001F9BC, symSize: 0x24 }
  - { offsetInCU: 0x53FE5, offset: 0x53FE5, size: 0x8, addend: 0x0, symName: __ZNSt3__122__compressed_pair_elemIPcLi0ELb0EE5__getB8ue170006Ev, symObjAddr: 0x1DCF0, symBinAddr: 0x10001F9E0, symSize: 0x14 }
  - { offsetInCU: 0x54024, offset: 0x54024, size: 0x8, addend: 0x0, symName: __ZNSt3__16vectorIcNS_9allocatorIcEEE21_ConstructTransactionC1B8ue170006ERS3_m, symObjAddr: 0x1DD04, symBinAddr: 0x10001F9F4, symSize: 0x3C }
  - { offsetInCU: 0x5406C, offset: 0x5406C, size: 0x8, addend: 0x0, symName: __ZNSt3__116allocator_traitsINS_9allocatorIcEEE9constructB8ue170006IcJEvvEEvRS2_PT_DpOT0_, symObjAddr: 0x1DD40, symBinAddr: 0x10001FA30, symSize: 0x28 }
  - { offsetInCU: 0x540AC, offset: 0x540AC, size: 0x8, addend: 0x0, symName: __ZNSt3__16vectorIcNS_9allocatorIcEEE21_ConstructTransactionD1B8ue170006Ev, symObjAddr: 0x1DD7C, symBinAddr: 0x10001FA6C, symSize: 0x2C }
  - { offsetInCU: 0x540D6, offset: 0x540D6, size: 0x8, addend: 0x0, symName: __ZNSt3__16vectorIcNS_9allocatorIcEEE21_ConstructTransactionC2B8ue170006ERS3_m, symObjAddr: 0x1DDA8, symBinAddr: 0x10001FA98, symSize: 0x44 }
  - { offsetInCU: 0x5411E, offset: 0x5411E, size: 0x8, addend: 0x0, symName: __ZNSt3__16vectorIcNS_9allocatorIcEEE21_ConstructTransactionD2B8ue170006Ev, symObjAddr: 0x1DE0C, symBinAddr: 0x10001FAFC, symSize: 0x20 }
  - { offsetInCU: 0x54148, offset: 0x54148, size: 0x8, addend: 0x0, symName: __ZNSt3__117__compressed_pairIPcNS_9allocatorIcEEE6secondB8ue170006Ev, symObjAddr: 0x1DE2C, symBinAddr: 0x10001FB1C, symSize: 0x24 }
  - { offsetInCU: 0x5416E, offset: 0x5416E, size: 0x8, addend: 0x0, symName: __ZNSt3__122__compressed_pair_elemINS_9allocatorIcEELi1ELb1EE5__getB8ue170006Ev, symObjAddr: 0x1DE50, symBinAddr: 0x10001FB40, symSize: 0x14 }
  - { offsetInCU: 0x54194, offset: 0x54194, size: 0x8, addend: 0x0, symName: __ZNKSt3__16vectorIcNS_9allocatorIcEEE8max_sizeEv, symObjAddr: 0x1DE64, symBinAddr: 0x10001FB54, symSize: 0x60 }
  - { offsetInCU: 0x541BC, offset: 0x541BC, size: 0x8, addend: 0x0, symName: __ZNKSt3__16vectorIcNS_9allocatorIcEEE20__throw_length_errorB8ue170006Ev, symObjAddr: 0x1DEC4, symBinAddr: 0x10001FBB4, symSize: 0x1C }
  - { offsetInCU: 0x541E2, offset: 0x541E2, size: 0x8, addend: 0x0, symName: __ZNKSt3__16vectorIcNS_9allocatorIcEEE8capacityB8ue170006Ev, symObjAddr: 0x1DEE0, symBinAddr: 0x10001FBD0, symSize: 0x38 }
  - { offsetInCU: 0x54212, offset: 0x54212, size: 0x8, addend: 0x0, symName: __ZNSt3__116allocator_traitsINS_9allocatorIcEEE8max_sizeB8ue170006IS2_vvEEmRKS2_, symObjAddr: 0x1DF18, symBinAddr: 0x10001FC08, symSize: 0x28 }
  - { offsetInCU: 0x5423E, offset: 0x5423E, size: 0x8, addend: 0x0, symName: __ZNKSt3__16vectorIcNS_9allocatorIcEEE7__allocB8ue170006Ev, symObjAddr: 0x1DF40, symBinAddr: 0x10001FC30, symSize: 0x28 }
  - { offsetInCU: 0x54264, offset: 0x54264, size: 0x8, addend: 0x0, symName: __ZNKSt3__117__compressed_pairIPcNS_9allocatorIcEEE6secondB8ue170006Ev, symObjAddr: 0x1DF68, symBinAddr: 0x10001FC58, symSize: 0x24 }
  - { offsetInCU: 0x5428A, offset: 0x5428A, size: 0x8, addend: 0x0, symName: __ZNKSt3__122__compressed_pair_elemINS_9allocatorIcEELi1ELb1EE5__getB8ue170006Ev, symObjAddr: 0x1DF8C, symBinAddr: 0x10001FC7C, symSize: 0x14 }
  - { offsetInCU: 0x542B0, offset: 0x542B0, size: 0x8, addend: 0x0, symName: __ZNKSt3__16vectorIcNS_9allocatorIcEEE9__end_capB8ue170006Ev, symObjAddr: 0x1DFA0, symBinAddr: 0x10001FC90, symSize: 0x28 }
  - { offsetInCU: 0x542D6, offset: 0x542D6, size: 0x8, addend: 0x0, symName: __ZNKSt3__117__compressed_pairIPcNS_9allocatorIcEEE5firstB8ue170006Ev, symObjAddr: 0x1DFC8, symBinAddr: 0x10001FCB8, symSize: 0x24 }
  - { offsetInCU: 0x542FC, offset: 0x542FC, size: 0x8, addend: 0x0, symName: __ZNKSt3__122__compressed_pair_elemIPcLi0ELb0EE5__getB8ue170006Ev, symObjAddr: 0x1DFEC, symBinAddr: 0x10001FCDC, symSize: 0x14 }
  - { offsetInCU: 0x54322, offset: 0x54322, size: 0x8, addend: 0x0, symName: __ZNSt3__114__split_bufferIcRNS_9allocatorIcEEEC2EmmS3_, symObjAddr: 0x1E000, symBinAddr: 0x10001FCF0, symSize: 0xD4 }
  - { offsetInCU: 0x54396, offset: 0x54396, size: 0x8, addend: 0x0, symName: __ZNSt3__117__compressed_pairIPcRNS_9allocatorIcEEEC1B8ue170006IDnS4_EEOT_OT0_, symObjAddr: 0x1E0D4, symBinAddr: 0x10001FDC4, symSize: 0x3C }
  - { offsetInCU: 0x543EE, offset: 0x543EE, size: 0x8, addend: 0x0, symName: __ZNSt3__114__split_bufferIcRNS_9allocatorIcEEE7__allocB8ue170006Ev, symObjAddr: 0x1E150, symBinAddr: 0x10001FE40, symSize: 0x28 }
  - { offsetInCU: 0x54414, offset: 0x54414, size: 0x8, addend: 0x0, symName: __ZNSt3__114__split_bufferIcRNS_9allocatorIcEEE9__end_capB8ue170006Ev, symObjAddr: 0x1E178, symBinAddr: 0x10001FE68, symSize: 0x28 }
  - { offsetInCU: 0x5443A, offset: 0x5443A, size: 0x8, addend: 0x0, symName: __ZNSt3__117__compressed_pairIPcRNS_9allocatorIcEEEC2B8ue170006IDnS4_EEOT_OT0_, symObjAddr: 0x1E1A0, symBinAddr: 0x10001FE90, symSize: 0x48 }
  - { offsetInCU: 0x54492, offset: 0x54492, size: 0x8, addend: 0x0, symName: __ZNSt3__122__compressed_pair_elemIRNS_9allocatorIcEELi1ELb0EEC2B8ue170006IS3_vEEOT_, symObjAddr: 0x1E1E8, symBinAddr: 0x10001FED8, symSize: 0x20 }
  - { offsetInCU: 0x544D4, offset: 0x544D4, size: 0x8, addend: 0x0, symName: __ZNSt3__19allocatorIcE8allocateB8ue170006Em, symObjAddr: 0x1E208, symBinAddr: 0x10001FEF8, symSize: 0x58 }
  - { offsetInCU: 0x54508, offset: 0x54508, size: 0x8, addend: 0x0, symName: __ZNSt3__117__compressed_pairIPcRNS_9allocatorIcEEE6secondB8ue170006Ev, symObjAddr: 0x1E260, symBinAddr: 0x10001FF50, symSize: 0x28 }
  - { offsetInCU: 0x5452E, offset: 0x5452E, size: 0x8, addend: 0x0, symName: __ZNSt3__122__compressed_pair_elemIRNS_9allocatorIcEELi1ELb0EE5__getB8ue170006Ev, symObjAddr: 0x1E288, symBinAddr: 0x10001FF78, symSize: 0x18 }
  - { offsetInCU: 0x54554, offset: 0x54554, size: 0x8, addend: 0x0, symName: __ZNSt3__117__compressed_pairIPcRNS_9allocatorIcEEE5firstB8ue170006Ev, symObjAddr: 0x1E2A0, symBinAddr: 0x10001FF90, symSize: 0x24 }
  - { offsetInCU: 0x54584, offset: 0x54584, size: 0x8, addend: 0x0, symName: __ZNSt3__114__split_bufferIcRNS_9allocatorIcEEE21_ConstructTransactionC1B8ue170006EPPcm, symObjAddr: 0x1E2C4, symBinAddr: 0x10001FFB4, symSize: 0x3C }
  - { offsetInCU: 0x545CA, offset: 0x545CA, size: 0x8, addend: 0x0, symName: __ZNSt3__114__split_bufferIcRNS_9allocatorIcEEE21_ConstructTransactionD1B8ue170006Ev, symObjAddr: 0x1E300, symBinAddr: 0x10001FFF0, symSize: 0x2C }
  - { offsetInCU: 0x545F4, offset: 0x545F4, size: 0x8, addend: 0x0, symName: __ZNSt3__114__split_bufferIcRNS_9allocatorIcEEE21_ConstructTransactionC2B8ue170006EPPcm, symObjAddr: 0x1E32C, symBinAddr: 0x10002001C, symSize: 0x44 }
  - { offsetInCU: 0x5463A, offset: 0x5463A, size: 0x8, addend: 0x0, symName: __ZNSt3__114__split_bufferIcRNS_9allocatorIcEEE21_ConstructTransactionD2B8ue170006Ev, symObjAddr: 0x1E370, symBinAddr: 0x100020060, symSize: 0x20 }
  - { offsetInCU: 0x54664, offset: 0x54664, size: 0x8, addend: 0x0, symName: __ZNKSt3__16vectorIcNS_9allocatorIcEEE17__annotate_deleteB8ue170006Ev, symObjAddr: 0x1E390, symBinAddr: 0x100020080, symSize: 0xB8 }
  - { offsetInCU: 0x5468A, offset: 0x5468A, size: 0x8, addend: 0x0, symName: __ZNSt3__116reverse_iteratorIPcEC1B8ue170006ES1_, symObjAddr: 0x1E4C0, symBinAddr: 0x1000201B0, symSize: 0x34 }
  - { offsetInCU: 0x546C2, offset: 0x546C2, size: 0x8, addend: 0x0, symName: __ZNKSt3__116reverse_iteratorIPcE4baseB8ue170006Ev, symObjAddr: 0x1E4F4, symBinAddr: 0x1000201E4, symSize: 0x18 }
  - { offsetInCU: 0x546E8, offset: 0x546E8, size: 0x8, addend: 0x0, symName: __ZNKSt3__16vectorIcNS_9allocatorIcEEE14__annotate_newB8ue170006Em, symObjAddr: 0x1E548, symBinAddr: 0x100020238, symSize: 0xAC }
  - { offsetInCU: 0x5471D, offset: 0x5471D, size: 0x8, addend: 0x0, symName: __ZNKSt3__16vectorIcNS_9allocatorIcEEE31__annotate_contiguous_containerB8ue170006EPKvS5_S5_S5_, symObjAddr: 0x1E5F4, symBinAddr: 0x1000202E4, symSize: 0x20 }
  - { offsetInCU: 0x54773, offset: 0x54773, size: 0x8, addend: 0x0, symName: __ZNKSt3__16vectorIcNS_9allocatorIcEEE4dataB8ue170006Ev, symObjAddr: 0x1E614, symBinAddr: 0x100020304, symSize: 0x28 }
  - { offsetInCU: 0x547B3, offset: 0x547B3, size: 0x8, addend: 0x0, symName: __ZNKSt3__111__move_loopINS_17_ClassicAlgPolicyEEclB8ue170006INS_16reverse_iteratorIPcEES6_S6_EENS_4pairIT_T1_EES8_T0_S9_, symObjAddr: 0x1E8F4, symBinAddr: 0x1000205E4, symSize: 0xA0 }
  - { offsetInCU: 0x5481E, offset: 0x5481E, size: 0x8, addend: 0x0, symName: __ZNSt3__119__unwrap_range_implINS_16reverse_iteratorIPcEES3_E8__unwrapB8ue170006ES3_S3_, symObjAddr: 0x1EAE0, symBinAddr: 0x1000207D0, symSize: 0x84 }
  - { offsetInCU: 0x54855, offset: 0x54855, size: 0x8, addend: 0x0, symName: __ZNSt3__14pairINS_16reverse_iteratorIPcEES3_EC1B8ue170006IS3_S3_LPv0EEEOT_OT0_, symObjAddr: 0x1EB64, symBinAddr: 0x100020854, symSize: 0x3C }
  - { offsetInCU: 0x548B3, offset: 0x548B3, size: 0x8, addend: 0x0, symName: __ZNSt3__14pairINS_16reverse_iteratorIPcEES3_EC2B8ue170006IS3_S3_LPv0EEEOT_OT0_, symObjAddr: 0x1EBA0, symBinAddr: 0x100020890, symSize: 0x34 }
  - { offsetInCU: 0x54917, offset: 0x54917, size: 0x8, addend: 0x0, symName: __ZNSt3__18_IterOpsINS_17_ClassicAlgPolicyEE11__iter_moveB8ue170006IRNS_16reverse_iteratorIPcEEEENS_9enable_ifIXsr12is_referenceIDTdeclsr3stdE7declvalIRT_EEEEE5valueEDTclsr3stdE4movedeclsr3stdE7declvalISA_EEEEE4typeEOS9_, symObjAddr: 0x1EC1C, symBinAddr: 0x10002090C, symSize: 0x28 }
  - { offsetInCU: 0x54943, offset: 0x54943, size: 0x8, addend: 0x0, symName: __ZNKSt3__116reverse_iteratorIPcEdeB8ue170006Ev, symObjAddr: 0x1EC44, symBinAddr: 0x100020934, symSize: 0x28 }
  - { offsetInCU: 0x54978, offset: 0x54978, size: 0x8, addend: 0x0, symName: __ZNSt3__116reverse_iteratorIPcEppB8ue170006Ev, symObjAddr: 0x1EC6C, symBinAddr: 0x10002095C, symSize: 0x20 }
  - { offsetInCU: 0x5499E, offset: 0x5499E, size: 0x8, addend: 0x0, symName: __ZNSt3__18_IterOpsINS_17_ClassicAlgPolicyEE25__validate_iter_referenceB8ue170006IRNS_16reverse_iteratorIPcEEEEvv, symObjAddr: 0x1EC8C, symBinAddr: 0x10002097C, symSize: 0x4 }
  - { offsetInCU: 0x549BC, offset: 0x549BC, size: 0x8, addend: 0x0, symName: __ZNSt3__118__unwrap_iter_implINS_16reverse_iteratorIPcEELb0EE8__unwrapB8ue170006ES3_, symObjAddr: 0x1EC90, symBinAddr: 0x100020980, symSize: 0x24 }
  - { offsetInCU: 0x549DF, offset: 0x549DF, size: 0x8, addend: 0x0, symName: __ZNSt3__119__unwrap_range_implINS_16reverse_iteratorIPcEES3_E8__rewrapB8ue170006ES3_S3_, symObjAddr: 0x1ECB4, symBinAddr: 0x1000209A4, symSize: 0x5C }
  - { offsetInCU: 0x54A10, offset: 0x54A10, size: 0x8, addend: 0x0, symName: __ZNSt3__118__unwrap_iter_implINS_16reverse_iteratorIPcEELb0EE8__rewrapB8ue170006ES3_S3_, symObjAddr: 0x1ED10, symBinAddr: 0x100020A00, symSize: 0x2C }
  - { offsetInCU: 0x54A3D, offset: 0x54A3D, size: 0x8, addend: 0x0, symName: __ZNSt3__116reverse_iteratorIPcEC2B8ue170006ES1_, symObjAddr: 0x1ED3C, symBinAddr: 0x100020A2C, symSize: 0x28 }
  - { offsetInCU: 0x54A75, offset: 0x54A75, size: 0x8, addend: 0x0, symName: __ZNSt3__114__split_bufferIcRNS_9allocatorIcEEED2Ev, symObjAddr: 0x1ED64, symBinAddr: 0x100020A54, symSize: 0x8C }
  - { offsetInCU: 0x54AA1, offset: 0x54AA1, size: 0x8, addend: 0x0, symName: __ZNSt3__114__split_bufferIcRNS_9allocatorIcEEE5clearB8ue170006Ev, symObjAddr: 0x1EDF0, symBinAddr: 0x100020AE0, symSize: 0x28 }
  - { offsetInCU: 0x54AC7, offset: 0x54AC7, size: 0x8, addend: 0x0, symName: __ZNSt3__116allocator_traitsINS_9allocatorIcEEE10deallocateB8ue170006ERS2_Pcm, symObjAddr: 0x1EE18, symBinAddr: 0x100020B08, symSize: 0x34 }
  - { offsetInCU: 0x54B09, offset: 0x54B09, size: 0x8, addend: 0x0, symName: __ZNKSt3__114__split_bufferIcRNS_9allocatorIcEEE8capacityB8ue170006Ev, symObjAddr: 0x1EE4C, symBinAddr: 0x100020B3C, symSize: 0x38 }
  - { offsetInCU: 0x54B2F, offset: 0x54B2F, size: 0x8, addend: 0x0, symName: __ZNSt3__114__split_bufferIcRNS_9allocatorIcEEE17__destruct_at_endB8ue170006EPc, symObjAddr: 0x1EE84, symBinAddr: 0x100020B74, symSize: 0x2C }
  - { offsetInCU: 0x54B63, offset: 0x54B63, size: 0x8, addend: 0x0, symName: __ZNSt3__114__split_bufferIcRNS_9allocatorIcEEE17__destruct_at_endB8ue170006EPcNS_17integral_constantIbLb0EEE, symObjAddr: 0x1EEB0, symBinAddr: 0x100020BA0, symSize: 0x80 }
  - { offsetInCU: 0x54BA3, offset: 0x54BA3, size: 0x8, addend: 0x0, symName: __ZNSt3__116allocator_traitsINS_9allocatorIcEEE7destroyB8ue170006IcvvEEvRS2_PT_, symObjAddr: 0x1EF30, symBinAddr: 0x100020C20, symSize: 0x28 }
  - { offsetInCU: 0x54BDE, offset: 0x54BDE, size: 0x8, addend: 0x0, symName: __ZNSt3__19allocatorIcE10deallocateB8ue170006EPcm, symObjAddr: 0x1EF8C, symBinAddr: 0x100020C7C, symSize: 0x40 }
  - { offsetInCU: 0x54C20, offset: 0x54C20, size: 0x8, addend: 0x0, symName: __ZNKSt3__114__split_bufferIcRNS_9allocatorIcEEE9__end_capB8ue170006Ev, symObjAddr: 0x1EFCC, symBinAddr: 0x100020CBC, symSize: 0x28 }
  - { offsetInCU: 0x54C46, offset: 0x54C46, size: 0x8, addend: 0x0, symName: __ZNKSt3__117__compressed_pairIPcRNS_9allocatorIcEEE5firstB8ue170006Ev, symObjAddr: 0x1EFF4, symBinAddr: 0x100020CE4, symSize: 0x24 }
  - { offsetInCU: 0x54C6C, offset: 0x54C6C, size: 0x8, addend: 0x0, symName: __ZNSt3__16vectorIcNS_9allocatorIcEEE22__base_destruct_at_endB8ue170006EPc, symObjAddr: 0x1F018, symBinAddr: 0x100020D08, symSize: 0x8C }
  - { offsetInCU: 0x54CB0, offset: 0x54CB0, size: 0x8, addend: 0x0, symName: __ZNKSt3__16vectorIcNS_9allocatorIcEEE17__annotate_shrinkB8ue170006Em, symObjAddr: 0x1F0A4, symBinAddr: 0x100020D94, symSize: 0xB4 }
  - { offsetInCU: 0x54CE5, offset: 0x54CE5, size: 0x8, addend: 0x0, symName: __ZNSt3__16vectorIcNS_9allocatorIcEEED2B8ue170006Ev, symObjAddr: 0x1F158, symBinAddr: 0x100020E48, symSize: 0x44 }
  - { offsetInCU: 0x54D0F, offset: 0x54D0F, size: 0x8, addend: 0x0, symName: __ZNSt3__16vectorIcNS_9allocatorIcEEE16__destroy_vectorC1B8ue170006ERS3_, symObjAddr: 0x1F19C, symBinAddr: 0x100020E8C, symSize: 0x34 }
  - { offsetInCU: 0x54D48, offset: 0x54D48, size: 0x8, addend: 0x0, symName: __ZNSt3__16vectorIcNS_9allocatorIcEEE16__destroy_vectorclB8ue170006Ev, symObjAddr: 0x1F1D0, symBinAddr: 0x100020EC0, symSize: 0x90 }
  - { offsetInCU: 0x54D6E, offset: 0x54D6E, size: 0x8, addend: 0x0, symName: __ZNSt3__16vectorIcNS_9allocatorIcEEE16__destroy_vectorC2B8ue170006ERS3_, symObjAddr: 0x1F260, symBinAddr: 0x100020F50, symSize: 0x20 }
  - { offsetInCU: 0x54DA7, offset: 0x54DA7, size: 0x8, addend: 0x0, symName: __ZNSt3__16vectorIcNS_9allocatorIcEEE7__clearB8ue170006Ev, symObjAddr: 0x1F280, symBinAddr: 0x100020F70, symSize: 0x28 }
  - { offsetInCU: 0x54DCD, offset: 0x54DCD, size: 0x8, addend: 0x0, symName: __ZNSt3__114basic_ifstreamIcNS_11char_traitsIcEEED2Ev, symObjAddr: 0x1F2A8, symBinAddr: 0x100020F98, symSize: 0x64 }
  - { offsetInCU: 0x54E07, offset: 0x54E07, size: 0x8, addend: 0x0, symName: __ZTv0_n24_NSt3__114basic_ifstreamIcNS_11char_traitsIcEEED1Ev, symObjAddr: 0x1F30C, symBinAddr: 0x100020FFC, symSize: 0x28 }
  - { offsetInCU: 0x54E3D, offset: 0x54E3D, size: 0x8, addend: 0x0, symName: __ZNSt3__14__fs10filesystem11file_statusD1B8ue170006Ev, symObjAddr: 0x1F3AC, symBinAddr: 0x10002109C, symSize: 0x2C }
  - { offsetInCU: 0x54E67, offset: 0x54E67, size: 0x8, addend: 0x0, symName: __ZNKSt3__14__fs10filesystem11file_status4typeB8ue170006Ev, symObjAddr: 0x1F408, symBinAddr: 0x1000210F8, symSize: 0x18 }
  - { offsetInCU: 0x54E8D, offset: 0x54E8D, size: 0x8, addend: 0x0, symName: __ZNSt3__14__fs10filesystem11file_statusD2B8ue170006Ev, symObjAddr: 0x1F420, symBinAddr: 0x100021110, symSize: 0x14 }
  - { offsetInCU: 0x54EB7, offset: 0x54EB7, size: 0x8, addend: 0x0, symName: __ZNSt3__14__fs10filesystem4pathD2B8ue170006Ev, symObjAddr: 0x1F434, symBinAddr: 0x100021124, symSize: 0x2C }
  - { offsetInCU: 0x54EE1, offset: 0x54EE1, size: 0x8, addend: 0x0, symName: __ZNSt3__16vectorIcNS_9allocatorIcEEEC2Em, symObjAddr: 0x1F460, symBinAddr: 0x100021150, symSize: 0xD4 }
  - { offsetInCU: 0x54F32, offset: 0x54F32, size: 0x8, addend: 0x0, symName: __ZNSt3__16vectorIcNS_9allocatorIcEEE11__vallocateB8ue170006Em, symObjAddr: 0x1F574, symBinAddr: 0x100021264, symSize: 0xAC }
  - { offsetInCU: 0x54F76, offset: 0x54F76, size: 0x8, addend: 0x0, symName: __ZNSt3__128__exception_guard_exceptionsINS_6vectorIcNS_9allocatorIcEEE16__destroy_vectorEE10__completeB8ue170006Ev, symObjAddr: 0x1F620, symBinAddr: 0x100021310, symSize: 0x1C }
  - { offsetInCU: 0x54F9C, offset: 0x54F9C, size: 0x8, addend: 0x0, symName: __ZNSt3__128__exception_guard_exceptionsINS_6vectorIcNS_9allocatorIcEEE16__destroy_vectorEED1B8ue170006Ev, symObjAddr: 0x1F63C, symBinAddr: 0x10002132C, symSize: 0x2C }
  - { offsetInCU: 0x54FC6, offset: 0x54FC6, size: 0x8, addend: 0x0, symName: __ZNSt3__128__exception_guard_exceptionsINS_6vectorIcNS_9allocatorIcEEE16__destroy_vectorEEC1B8ue170006ES5_, symObjAddr: 0x1F668, symBinAddr: 0x100021358, symSize: 0x34 }
  - { offsetInCU: 0x54FFE, offset: 0x54FFE, size: 0x8, addend: 0x0, symName: __ZNSt3__128__exception_guard_exceptionsINS_6vectorIcNS_9allocatorIcEEE16__destroy_vectorEEC2B8ue170006ES5_, symObjAddr: 0x1F69C, symBinAddr: 0x10002138C, symSize: 0x24 }
  - { offsetInCU: 0x55036, offset: 0x55036, size: 0x8, addend: 0x0, symName: __ZNSt3__128__exception_guard_exceptionsINS_6vectorIcNS_9allocatorIcEEE16__destroy_vectorEED2B8ue170006Ev, symObjAddr: 0x1F6C0, symBinAddr: 0x1000213B0, symSize: 0x48 }
  - { offsetInCU: 0x55060, offset: 0x55060, size: 0x8, addend: 0x0, symName: __ZNSt3__112basic_stringIcNS_11char_traitsIcEENS_9allocatorIcEEEC2B8ue170006Emc, symObjAddr: 0x1F708, symBinAddr: 0x1000213F8, symSize: 0x4C }
  - { offsetInCU: 0x550A8, offset: 0x550A8, size: 0x8, addend: 0x0, symName: __ZNSt3__117__compressed_pairINS_12basic_stringIcNS_11char_traitsIcEENS_9allocatorIcEEE5__repES5_EC1B8ue170006INS_18__default_init_tagESA_EEOT_OT0_, symObjAddr: 0x1F754, symBinAddr: 0x100021444, symSize: 0x3C }
  - { offsetInCU: 0x55100, offset: 0x55100, size: 0x8, addend: 0x0, symName: __ZNSt3__117__compressed_pairINS_12basic_stringIcNS_11char_traitsIcEENS_9allocatorIcEEE5__repES5_EC2B8ue170006INS_18__default_init_tagESA_EEOT_OT0_, symObjAddr: 0x1F790, symBinAddr: 0x100021480, symSize: 0x3C }
  - { offsetInCU: 0x55158, offset: 0x55158, size: 0x8, addend: 0x0, symName: __ZNSt3__122__compressed_pair_elemINS_12basic_stringIcNS_11char_traitsIcEENS_9allocatorIcEEE5__repELi0ELb0EEC2B8ue170006ENS_18__default_init_tagE, symObjAddr: 0x1F7CC, symBinAddr: 0x1000214BC, symSize: 0x14 }
  - { offsetInCU: 0x5518C, offset: 0x5518C, size: 0x8, addend: 0x0, symName: __ZNSt3__112basic_stringIcNS_11char_traitsIcEENS_9allocatorIcEEE13__get_pointerB8ue170006Ev, symObjAddr: 0x1F7E0, symBinAddr: 0x1000214D0, symSize: 0x54 }
  - { offsetInCU: 0x551B2, offset: 0x551B2, size: 0x8, addend: 0x0, symName: __ZNKSt3__112basic_stringIcNS_11char_traitsIcEENS_9allocatorIcEEE9__is_longB8ue170006Ev, symObjAddr: 0x1F834, symBinAddr: 0x100021524, symSize: 0x38 }
  - { offsetInCU: 0x551D8, offset: 0x551D8, size: 0x8, addend: 0x0, symName: __ZNSt3__112basic_stringIcNS_11char_traitsIcEENS_9allocatorIcEEE18__get_long_pointerB8ue170006Ev, symObjAddr: 0x1F86C, symBinAddr: 0x10002155C, symSize: 0x28 }
  - { offsetInCU: 0x551FE, offset: 0x551FE, size: 0x8, addend: 0x0, symName: __ZNSt3__112basic_stringIcNS_11char_traitsIcEENS_9allocatorIcEEE19__get_short_pointerB8ue170006Ev, symObjAddr: 0x1F894, symBinAddr: 0x100021584, symSize: 0x28 }
  - { offsetInCU: 0x55224, offset: 0x55224, size: 0x8, addend: 0x0, symName: __ZNKSt3__117__compressed_pairINS_12basic_stringIcNS_11char_traitsIcEENS_9allocatorIcEEE5__repES5_E5firstB8ue170006Ev, symObjAddr: 0x1F8BC, symBinAddr: 0x1000215AC, symSize: 0x24 }
  - { offsetInCU: 0x5524A, offset: 0x5524A, size: 0x8, addend: 0x0, symName: __ZNKSt3__122__compressed_pair_elemINS_12basic_stringIcNS_11char_traitsIcEENS_9allocatorIcEEE5__repELi0ELb0EE5__getB8ue170006Ev, symObjAddr: 0x1F8E0, symBinAddr: 0x1000215D0, symSize: 0x14 }
  - { offsetInCU: 0x55270, offset: 0x55270, size: 0x8, addend: 0x0, symName: __ZNSt3__117__compressed_pairINS_12basic_stringIcNS_11char_traitsIcEENS_9allocatorIcEEE5__repES5_E5firstB8ue170006Ev, symObjAddr: 0x1F8F4, symBinAddr: 0x1000215E4, symSize: 0x24 }
  - { offsetInCU: 0x55296, offset: 0x55296, size: 0x8, addend: 0x0, symName: __ZNSt3__122__compressed_pair_elemINS_12basic_stringIcNS_11char_traitsIcEENS_9allocatorIcEEE5__repELi0ELb0EE5__getB8ue170006Ev, symObjAddr: 0x1F918, symBinAddr: 0x100021608, symSize: 0x14 }
  - { offsetInCU: 0x552BC, offset: 0x552BC, size: 0x8, addend: 0x0, symName: __ZNSt3__114pointer_traitsIPcE10pointer_toB8ue170006ERc, symObjAddr: 0x1F92C, symBinAddr: 0x10002161C, symSize: 0x14 }
  - { offsetInCU: 0x552DF, offset: 0x552DF, size: 0x8, addend: 0x0, symName: __ZNKSt3__112basic_stringIcNS_11char_traitsIcEENS_9allocatorIcEEE15__get_long_sizeB8ue170006Ev, symObjAddr: 0x1F940, symBinAddr: 0x100021630, symSize: 0x28 }
  - { offsetInCU: 0x55305, offset: 0x55305, size: 0x8, addend: 0x0, symName: __ZNKSt3__112basic_stringIcNS_11char_traitsIcEENS_9allocatorIcEEE16__get_short_sizeB8ue170006Ev, symObjAddr: 0x1F968, symBinAddr: 0x100021658, symSize: 0x34 }
  - { offsetInCU: 0x5532B, offset: 0x5532B, size: 0x8, addend: 0x0, symName: __ZNKSt3__112basic_stringIcNS_11char_traitsIcEENS_9allocatorIcEEE4dataB8ue170006Ev, symObjAddr: 0x1F99C, symBinAddr: 0x10002168C, symSize: 0x28 }
  - { offsetInCU: 0x55351, offset: 0x55351, size: 0x8, addend: 0x0, symName: __ZNKSt3__112basic_stringIcNS_11char_traitsIcEENS_9allocatorIcEEE13__get_pointerB8ue170006Ev, symObjAddr: 0x1F9D8, symBinAddr: 0x1000216C8, symSize: 0x54 }
  - { offsetInCU: 0x55377, offset: 0x55377, size: 0x8, addend: 0x0, symName: __ZNKSt3__112basic_stringIcNS_11char_traitsIcEENS_9allocatorIcEEE18__get_long_pointerB8ue170006Ev, symObjAddr: 0x1FA2C, symBinAddr: 0x10002171C, symSize: 0x28 }
  - { offsetInCU: 0x5539D, offset: 0x5539D, size: 0x8, addend: 0x0, symName: __ZNKSt3__112basic_stringIcNS_11char_traitsIcEENS_9allocatorIcEEE19__get_short_pointerB8ue170006Ev, symObjAddr: 0x1FA54, symBinAddr: 0x100021744, symSize: 0x28 }
  - { offsetInCU: 0x553C3, offset: 0x553C3, size: 0x8, addend: 0x0, symName: __ZNSt3__114pointer_traitsIPKcE10pointer_toB8ue170006ERS1_, symObjAddr: 0x1FA7C, symBinAddr: 0x10002176C, symSize: 0x14 }
  - { offsetInCU: 0x553E6, offset: 0x553E6, size: 0x8, addend: 0x0, symName: __ZNSt3__16vectorIhNS_9allocatorIhEEEC2Em, symObjAddr: 0x1FA90, symBinAddr: 0x100021780, symSize: 0xD4 }
  - { offsetInCU: 0x55437, offset: 0x55437, size: 0x8, addend: 0x0, symName: __ZNSt3__117__compressed_pairIPhNS_9allocatorIhEEEC1B8ue170006IDnNS_18__default_init_tagEEEOT_OT0_, symObjAddr: 0x1FB64, symBinAddr: 0x100021854, symSize: 0x3C }
  - { offsetInCU: 0x5548F, offset: 0x5548F, size: 0x8, addend: 0x0, symName: __ZNSt3__16vectorIhNS_9allocatorIhEEE16__destroy_vectorC1B8ue170006ERS3_, symObjAddr: 0x1FBE0, symBinAddr: 0x1000218D0, symSize: 0x34 }
  - { offsetInCU: 0x554C8, offset: 0x554C8, size: 0x8, addend: 0x0, symName: __ZNSt3__16vectorIhNS_9allocatorIhEEE11__vallocateB8ue170006Em, symObjAddr: 0x1FC14, symBinAddr: 0x100021904, symSize: 0xAC }
  - { offsetInCU: 0x5550C, offset: 0x5550C, size: 0x8, addend: 0x0, symName: __ZNSt3__16vectorIhNS_9allocatorIhEEE18__construct_at_endEm, symObjAddr: 0x1FCC0, symBinAddr: 0x1000219B0, symSize: 0xC8 }
  - { offsetInCU: 0x5557F, offset: 0x5557F, size: 0x8, addend: 0x0, symName: __ZNSt3__128__exception_guard_exceptionsINS_6vectorIhNS_9allocatorIhEEE16__destroy_vectorEE10__completeB8ue170006Ev, symObjAddr: 0x1FD88, symBinAddr: 0x100021A78, symSize: 0x1C }
  - { offsetInCU: 0x555A5, offset: 0x555A5, size: 0x8, addend: 0x0, symName: __ZNSt3__128__exception_guard_exceptionsINS_6vectorIhNS_9allocatorIhEEE16__destroy_vectorEED1B8ue170006Ev, symObjAddr: 0x1FDA4, symBinAddr: 0x100021A94, symSize: 0x2C }
  - { offsetInCU: 0x555CF, offset: 0x555CF, size: 0x8, addend: 0x0, symName: __ZNSt3__117__compressed_pairIPhNS_9allocatorIhEEEC2B8ue170006IDnNS_18__default_init_tagEEEOT_OT0_, symObjAddr: 0x1FDD0, symBinAddr: 0x100021AC0, symSize: 0x40 }
  - { offsetInCU: 0x55627, offset: 0x55627, size: 0x8, addend: 0x0, symName: __ZNSt3__122__compressed_pair_elemIPhLi0ELb0EEC2B8ue170006IDnvEEOT_, symObjAddr: 0x1FE10, symBinAddr: 0x100021B00, symSize: 0x1C }
  - { offsetInCU: 0x55669, offset: 0x55669, size: 0x8, addend: 0x0, symName: __ZNSt3__122__compressed_pair_elemINS_9allocatorIhEELi1ELb1EEC2B8ue170006ENS_18__default_init_tagE, symObjAddr: 0x1FE2C, symBinAddr: 0x100021B1C, symSize: 0x2C }
  - { offsetInCU: 0x5569D, offset: 0x5569D, size: 0x8, addend: 0x0, symName: __ZNSt3__19allocatorIhEC2B8ue170006Ev, symObjAddr: 0x1FE58, symBinAddr: 0x100021B48, symSize: 0x2C }
  - { offsetInCU: 0x556C7, offset: 0x556C7, size: 0x8, addend: 0x0, symName: __ZNSt3__116__non_trivial_ifILb1ENS_9allocatorIhEEEC2B8ue170006Ev, symObjAddr: 0x1FE84, symBinAddr: 0x100021B74, symSize: 0x14 }
  - { offsetInCU: 0x556F1, offset: 0x556F1, size: 0x8, addend: 0x0, symName: __ZNSt3__128__exception_guard_exceptionsINS_6vectorIhNS_9allocatorIhEEE16__destroy_vectorEEC1B8ue170006ES5_, symObjAddr: 0x1FE98, symBinAddr: 0x100021B88, symSize: 0x34 }
  - { offsetInCU: 0x55729, offset: 0x55729, size: 0x8, addend: 0x0, symName: __ZNSt3__128__exception_guard_exceptionsINS_6vectorIhNS_9allocatorIhEEE16__destroy_vectorEEC2B8ue170006ES5_, symObjAddr: 0x1FECC, symBinAddr: 0x100021BBC, symSize: 0x24 }
  - { offsetInCU: 0x55761, offset: 0x55761, size: 0x8, addend: 0x0, symName: __ZNSt3__16vectorIhNS_9allocatorIhEEE16__destroy_vectorC2B8ue170006ERS3_, symObjAddr: 0x1FEF0, symBinAddr: 0x100021BE0, symSize: 0x20 }
  - { offsetInCU: 0x5579A, offset: 0x5579A, size: 0x8, addend: 0x0, symName: __ZNKSt3__16vectorIhNS_9allocatorIhEEE8max_sizeEv, symObjAddr: 0x1FF10, symBinAddr: 0x100021C00, symSize: 0x60 }
  - { offsetInCU: 0x557C2, offset: 0x557C2, size: 0x8, addend: 0x0, symName: __ZNKSt3__16vectorIhNS_9allocatorIhEEE20__throw_length_errorB8ue170006Ev, symObjAddr: 0x1FF70, symBinAddr: 0x100021C60, symSize: 0x1C }
  - { offsetInCU: 0x557E8, offset: 0x557E8, size: 0x8, addend: 0x0, symName: __ZNSt3__16vectorIhNS_9allocatorIhEEE7__allocB8ue170006Ev, symObjAddr: 0x1FFCC, symBinAddr: 0x100021CBC, symSize: 0x28 }
  - { offsetInCU: 0x5580E, offset: 0x5580E, size: 0x8, addend: 0x0, symName: __ZNSt3__16vectorIhNS_9allocatorIhEEE9__end_capB8ue170006Ev, symObjAddr: 0x1FFF4, symBinAddr: 0x100021CE4, symSize: 0x28 }
  - { offsetInCU: 0x55834, offset: 0x55834, size: 0x8, addend: 0x0, symName: __ZNKSt3__16vectorIhNS_9allocatorIhEEE14__annotate_newB8ue170006Em, symObjAddr: 0x2001C, symBinAddr: 0x100021D0C, symSize: 0xAC }
  - { offsetInCU: 0x55873, offset: 0x55873, size: 0x8, addend: 0x0, symName: __ZNSt3__116allocator_traitsINS_9allocatorIhEEE8max_sizeB8ue170006IS2_vvEEmRKS2_, symObjAddr: 0x200C8, symBinAddr: 0x100021DB8, symSize: 0x28 }
  - { offsetInCU: 0x5589F, offset: 0x5589F, size: 0x8, addend: 0x0, symName: __ZNKSt3__16vectorIhNS_9allocatorIhEEE7__allocB8ue170006Ev, symObjAddr: 0x200F0, symBinAddr: 0x100021DE0, symSize: 0x28 }
  - { offsetInCU: 0x558C5, offset: 0x558C5, size: 0x8, addend: 0x0, symName: __ZNKSt3__117__compressed_pairIPhNS_9allocatorIhEEE6secondB8ue170006Ev, symObjAddr: 0x20118, symBinAddr: 0x100021E08, symSize: 0x24 }
  - { offsetInCU: 0x558EB, offset: 0x558EB, size: 0x8, addend: 0x0, symName: __ZNKSt3__122__compressed_pair_elemINS_9allocatorIhEELi1ELb1EE5__getB8ue170006Ev, symObjAddr: 0x2013C, symBinAddr: 0x100021E2C, symSize: 0x14 }
  - { offsetInCU: 0x55911, offset: 0x55911, size: 0x8, addend: 0x0, symName: __ZNSt3__19allocatorIhE8allocateB8ue170006Em, symObjAddr: 0x20150, symBinAddr: 0x100021E40, symSize: 0x58 }
  - { offsetInCU: 0x55945, offset: 0x55945, size: 0x8, addend: 0x0, symName: __ZNSt3__117__compressed_pairIPhNS_9allocatorIhEEE6secondB8ue170006Ev, symObjAddr: 0x201A8, symBinAddr: 0x100021E98, symSize: 0x24 }
  - { offsetInCU: 0x5596B, offset: 0x5596B, size: 0x8, addend: 0x0, symName: __ZNSt3__122__compressed_pair_elemINS_9allocatorIhEELi1ELb1EE5__getB8ue170006Ev, symObjAddr: 0x201CC, symBinAddr: 0x100021EBC, symSize: 0x14 }
  - { offsetInCU: 0x55991, offset: 0x55991, size: 0x8, addend: 0x0, symName: __ZNSt3__117__compressed_pairIPhNS_9allocatorIhEEE5firstB8ue170006Ev, symObjAddr: 0x201E0, symBinAddr: 0x100021ED0, symSize: 0x24 }
  - { offsetInCU: 0x559B7, offset: 0x559B7, size: 0x8, addend: 0x0, symName: __ZNSt3__122__compressed_pair_elemIPhLi0ELb0EE5__getB8ue170006Ev, symObjAddr: 0x20204, symBinAddr: 0x100021EF4, symSize: 0x14 }
  - { offsetInCU: 0x559DD, offset: 0x559DD, size: 0x8, addend: 0x0, symName: __ZNKSt3__16vectorIhNS_9allocatorIhEEE31__annotate_contiguous_containerB8ue170006EPKvS5_S5_S5_, symObjAddr: 0x20218, symBinAddr: 0x100021F08, symSize: 0x20 }
  - { offsetInCU: 0x55A33, offset: 0x55A33, size: 0x8, addend: 0x0, symName: __ZNKSt3__16vectorIhNS_9allocatorIhEEE4dataB8ue170006Ev, symObjAddr: 0x20238, symBinAddr: 0x100021F28, symSize: 0x28 }
  - { offsetInCU: 0x55A59, offset: 0x55A59, size: 0x8, addend: 0x0, symName: __ZNKSt3__16vectorIhNS_9allocatorIhEEE8capacityB8ue170006Ev, symObjAddr: 0x20260, symBinAddr: 0x100021F50, symSize: 0x38 }
  - { offsetInCU: 0x55A7F, offset: 0x55A7F, size: 0x8, addend: 0x0, symName: __ZNKSt3__16vectorIhNS_9allocatorIhEEE9__end_capB8ue170006Ev, symObjAddr: 0x202AC, symBinAddr: 0x100021F9C, symSize: 0x28 }
  - { offsetInCU: 0x55AA5, offset: 0x55AA5, size: 0x8, addend: 0x0, symName: __ZNKSt3__117__compressed_pairIPhNS_9allocatorIhEEE5firstB8ue170006Ev, symObjAddr: 0x202D4, symBinAddr: 0x100021FC4, symSize: 0x24 }
  - { offsetInCU: 0x55ACB, offset: 0x55ACB, size: 0x8, addend: 0x0, symName: __ZNKSt3__122__compressed_pair_elemIPhLi0ELb0EE5__getB8ue170006Ev, symObjAddr: 0x202F8, symBinAddr: 0x100021FE8, symSize: 0x14 }
  - { offsetInCU: 0x55B0A, offset: 0x55B0A, size: 0x8, addend: 0x0, symName: __ZNSt3__16vectorIhNS_9allocatorIhEEE21_ConstructTransactionC1B8ue170006ERS3_m, symObjAddr: 0x2030C, symBinAddr: 0x100021FFC, symSize: 0x3C }
  - { offsetInCU: 0x55B52, offset: 0x55B52, size: 0x8, addend: 0x0, symName: __ZNSt3__116allocator_traitsINS_9allocatorIhEEE9constructB8ue170006IhJEvvEEvRS2_PT_DpOT0_, symObjAddr: 0x20348, symBinAddr: 0x100022038, symSize: 0x28 }
  - { offsetInCU: 0x55B92, offset: 0x55B92, size: 0x8, addend: 0x0, symName: __ZNSt3__16vectorIhNS_9allocatorIhEEE21_ConstructTransactionD1B8ue170006Ev, symObjAddr: 0x20370, symBinAddr: 0x100022060, symSize: 0x2C }
  - { offsetInCU: 0x55BBC, offset: 0x55BBC, size: 0x8, addend: 0x0, symName: __ZNSt3__16vectorIhNS_9allocatorIhEEE21_ConstructTransactionC2B8ue170006ERS3_m, symObjAddr: 0x2039C, symBinAddr: 0x10002208C, symSize: 0x44 }
  - { offsetInCU: 0x55C04, offset: 0x55C04, size: 0x8, addend: 0x0, symName: __ZNSt3__16vectorIhNS_9allocatorIhEEE21_ConstructTransactionD2B8ue170006Ev, symObjAddr: 0x20400, symBinAddr: 0x1000220F0, symSize: 0x20 }
  - { offsetInCU: 0x55C2E, offset: 0x55C2E, size: 0x8, addend: 0x0, symName: __ZNSt3__128__exception_guard_exceptionsINS_6vectorIhNS_9allocatorIhEEE16__destroy_vectorEED2B8ue170006Ev, symObjAddr: 0x20420, symBinAddr: 0x100022110, symSize: 0x50 }
  - { offsetInCU: 0x55C58, offset: 0x55C58, size: 0x8, addend: 0x0, symName: __ZNSt3__16vectorIhNS_9allocatorIhEEE16__destroy_vectorclB8ue170006Ev, symObjAddr: 0x20470, symBinAddr: 0x100022160, symSize: 0x90 }
  - { offsetInCU: 0x55C7E, offset: 0x55C7E, size: 0x8, addend: 0x0, symName: __ZNSt3__16vectorIhNS_9allocatorIhEEE7__clearB8ue170006Ev, symObjAddr: 0x20500, symBinAddr: 0x1000221F0, symSize: 0x28 }
  - { offsetInCU: 0x55CA4, offset: 0x55CA4, size: 0x8, addend: 0x0, symName: __ZNKSt3__16vectorIhNS_9allocatorIhEEE17__annotate_deleteB8ue170006Ev, symObjAddr: 0x20528, symBinAddr: 0x100022218, symSize: 0xB8 }
  - { offsetInCU: 0x55CCA, offset: 0x55CCA, size: 0x8, addend: 0x0, symName: __ZNSt3__116allocator_traitsINS_9allocatorIhEEE10deallocateB8ue170006ERS2_Phm, symObjAddr: 0x205E0, symBinAddr: 0x1000222D0, symSize: 0x34 }
  - { offsetInCU: 0x55D0C, offset: 0x55D0C, size: 0x8, addend: 0x0, symName: __ZNSt3__16vectorIhNS_9allocatorIhEEE22__base_destruct_at_endB8ue170006EPh, symObjAddr: 0x20614, symBinAddr: 0x100022304, symSize: 0x8C }
  - { offsetInCU: 0x55D50, offset: 0x55D50, size: 0x8, addend: 0x0, symName: __ZNSt3__116allocator_traitsINS_9allocatorIhEEE7destroyB8ue170006IhvvEEvRS2_PT_, symObjAddr: 0x206A0, symBinAddr: 0x100022390, symSize: 0x28 }
  - { offsetInCU: 0x55D8B, offset: 0x55D8B, size: 0x8, addend: 0x0, symName: __ZNKSt3__16vectorIhNS_9allocatorIhEEE4sizeB8ue170006Ev, symObjAddr: 0x206FC, symBinAddr: 0x1000223EC, symSize: 0x20 }
  - { offsetInCU: 0x55DB1, offset: 0x55DB1, size: 0x8, addend: 0x0, symName: __ZNSt3__19allocatorIhE10deallocateB8ue170006EPhm, symObjAddr: 0x2071C, symBinAddr: 0x10002240C, symSize: 0x40 }
  - { offsetInCU: 0x55DF3, offset: 0x55DF3, size: 0x8, addend: 0x0, symName: __ZNSt3__16vectorIhNS_9allocatorIhEEED2B8ue170006Ev, symObjAddr: 0x2075C, symBinAddr: 0x10002244C, symSize: 0x40 }
  - { offsetInCU: 0x55E1D, offset: 0x55E1D, size: 0x8, addend: 0x0, symName: __ZNSt3__114basic_ofstreamIcNS_11char_traitsIcEEED2Ev, symObjAddr: 0x2079C, symBinAddr: 0x10002248C, symSize: 0x64 }
  - { offsetInCU: 0x55E57, offset: 0x55E57, size: 0x8, addend: 0x0, symName: __ZTv0_n24_NSt3__114basic_ofstreamIcNS_11char_traitsIcEEED1Ev, symObjAddr: 0x20800, symBinAddr: 0x1000224F0, symSize: 0x28 }
  - { offsetInCU: 0x55E6E, offset: 0x55E6E, size: 0x8, addend: 0x0, symName: __ZNSt3__16vectorIcNS_9allocatorIcEEEC2ERKS3_, symObjAddr: 0x20828, symBinAddr: 0x100022518, symSize: 0x94 }
  - { offsetInCU: 0x55EA9, offset: 0x55EA9, size: 0x8, addend: 0x0, symName: __ZNSt3__116allocator_traitsINS_9allocatorIcEEE37select_on_container_copy_constructionB8ue170006IS2_vvEES2_RKS2_, symObjAddr: 0x208BC, symBinAddr: 0x1000225AC, symSize: 0x10 }
  - { offsetInCU: 0x55EDE, offset: 0x55EDE, size: 0x8, addend: 0x0, symName: __ZNSt3__117__compressed_pairIPcNS_9allocatorIcEEEC1B8ue170006IDnS3_EEOT_OT0_, symObjAddr: 0x208CC, symBinAddr: 0x1000225BC, symSize: 0x3C }
  - { offsetInCU: 0x55F36, offset: 0x55F36, size: 0x8, addend: 0x0, symName: __ZNSt3__16vectorIcNS_9allocatorIcEEE16__init_with_sizeB8ue170006IPcS5_EEvT_T0_m, symObjAddr: 0x20908, symBinAddr: 0x1000225F8, symSize: 0xB8 }
  - { offsetInCU: 0x55FAA, offset: 0x55FAA, size: 0x8, addend: 0x0, symName: __ZNSt3__117__compressed_pairIPcNS_9allocatorIcEEEC2B8ue170006IDnS3_EEOT_OT0_, symObjAddr: 0x209C0, symBinAddr: 0x1000226B0, symSize: 0x44 }
  - { offsetInCU: 0x56002, offset: 0x56002, size: 0x8, addend: 0x0, symName: __ZNSt3__122__compressed_pair_elemINS_9allocatorIcEELi1ELb1EEC2B8ue170006IS2_vEEOT_, symObjAddr: 0x20A04, symBinAddr: 0x1000226F4, symSize: 0x18 }
  - { offsetInCU: 0x56044, offset: 0x56044, size: 0x8, addend: 0x0, symName: __ZNSt3__16vectorIcNS_9allocatorIcEEE18__construct_at_endIPcS5_EEvT_T0_m, symObjAddr: 0x20A1C, symBinAddr: 0x10002270C, symSize: 0x8C }
  - { offsetInCU: 0x560D4, offset: 0x560D4, size: 0x8, addend: 0x0, symName: __ZNSt3__119__unwrap_range_implIPcS1_E8__unwrapB8ue170006ES1_S1_, symObjAddr: 0x20BFC, symBinAddr: 0x1000228EC, symSize: 0x58 }
  - { offsetInCU: 0x5610B, offset: 0x5610B, size: 0x8, addend: 0x0, symName: __ZNSt3__14pairIPcS1_EC1B8ue170006IS1_S1_LPv0EEEOT_OT0_, symObjAddr: 0x20C54, symBinAddr: 0x100022944, symSize: 0x3C }
  - { offsetInCU: 0x56169, offset: 0x56169, size: 0x8, addend: 0x0, symName: __ZNSt3__14pairIPcS1_EC2B8ue170006IS1_S1_LPv0EEEOT_OT0_, symObjAddr: 0x20C90, symBinAddr: 0x100022980, symSize: 0x34 }
  - { offsetInCU: 0x561D1, offset: 0x561D1, size: 0x8, addend: 0x0, symName: __ZNKSt3__114__copy_trivialclB8ue170006IccLi0EEENS_4pairIPT_PT0_EES4_S4_S6_, symObjAddr: 0x20E40, symBinAddr: 0x100022B30, symSize: 0x48 }
  - { offsetInCU: 0x56239, offset: 0x56239, size: 0x8, addend: 0x0, symName: __ZNSt3__14pairIPcS1_EC1B8ue170006IRS1_S1_LPv0EEEOT_OT0_, symObjAddr: 0x21000, symBinAddr: 0x100022CF0, symSize: 0x3C }
  - { offsetInCU: 0x56297, offset: 0x56297, size: 0x8, addend: 0x0, symName: __ZNSt3__14pairIPcS1_EC2B8ue170006IRS1_S1_LPv0EEEOT_OT0_, symObjAddr: 0x2103C, symBinAddr: 0x100022D2C, symSize: 0x34 }
  - { offsetInCU: 0x562F5, offset: 0x562F5, size: 0x8, addend: 0x0, symName: __ZNSt3__119__unwrap_range_implIPcS1_E8__rewrapB8ue170006ES1_S1_, symObjAddr: 0x21070, symBinAddr: 0x100022D60, symSize: 0x2C }
  - { offsetInCU: 0x56326, offset: 0x56326, size: 0x8, addend: 0x0, symName: __ZNSt3__118__unwrap_iter_implIPcLb1EE8__unwrapB8ue170006ES1_, symObjAddr: 0x2109C, symBinAddr: 0x100022D8C, symSize: 0x24 }
  - { offsetInCU: 0x56349, offset: 0x56349, size: 0x8, addend: 0x0, symName: __ZNSt3__118__unwrap_iter_implIPcLb1EE8__rewrapB8ue170006ES1_S1_, symObjAddr: 0x210C0, symBinAddr: 0x100022DB0, symSize: 0x48 }
  - { offsetInCU: 0x5637A, offset: 0x5637A, size: 0x8, addend: 0x0, symName: __ZNKSt3__16vectorIcNS_9allocatorIcEEE11__make_iterB8ue170006EPKc, symObjAddr: 0x21108, symBinAddr: 0x100022DF8, symSize: 0x30 }
  - { offsetInCU: 0x563AF, offset: 0x563AF, size: 0x8, addend: 0x0, symName: __ZNSt3__111__wrap_iterIPKcEC1B8ue170006ES2_, symObjAddr: 0x21138, symBinAddr: 0x100022E28, symSize: 0x34 }
  - { offsetInCU: 0x563E7, offset: 0x563E7, size: 0x8, addend: 0x0, symName: __ZNSt3__111__wrap_iterIPKcEC2B8ue170006ES2_, symObjAddr: 0x2116C, symBinAddr: 0x100022E5C, symSize: 0x20 }
  - { offsetInCU: 0x5641F, offset: 0x5641F, size: 0x8, addend: 0x0, symName: __ZNKSt3__111__wrap_iterIPKcE4baseB8ue170006Ev, symObjAddr: 0x211D4, symBinAddr: 0x100022EC4, symSize: 0x18 }
  - { offsetInCU: 0x56445, offset: 0x56445, size: 0x8, addend: 0x0, symName: __ZNSt3__16vectorIcNS_9allocatorIcEEE22__construct_one_at_endB8ue170006IJcEEEvDpOT_, symObjAddr: 0x211EC, symBinAddr: 0x100022EDC, symSize: 0x90 }
  - { offsetInCU: 0x56494, offset: 0x56494, size: 0x8, addend: 0x0, symName: __ZNSt3__16vectorIcNS_9allocatorIcEEE21__push_back_slow_pathIcEEvOT_, symObjAddr: 0x2127C, symBinAddr: 0x100022F6C, symSize: 0xD8 }
  - { offsetInCU: 0x564F2, offset: 0x564F2, size: 0x8, addend: 0x0, symName: __ZNSt3__116allocator_traitsINS_9allocatorIcEEE9constructB8ue170006IcJcEvvEEvRS2_PT_DpOT0_, symObjAddr: 0x21354, symBinAddr: 0x100023044, symSize: 0x30 }
  - { offsetInCU: 0x56547, offset: 0x56547, size: 0x8, addend: 0x0, symName: __ZNSt3__112basic_stringIcNS_11char_traitsIcEENS_9allocatorIcEEEC2B8ue170006Ev, symObjAddr: 0x213B0, symBinAddr: 0x1000230A0, symSize: 0x48 }
  - { offsetInCU: 0x56571, offset: 0x56571, size: 0x8, addend: 0x0, symName: __ZNSt3__112basic_stringIcNS_11char_traitsIcEENS_9allocatorIcEEE14__default_initB8ue170006Ev, symObjAddr: 0x213F8, symBinAddr: 0x1000230E8, symSize: 0x40 }
  - { offsetInCU: 0x56597, offset: 0x56597, size: 0x8, addend: 0x0, symName: __ZNKSt3__112basic_stringIcNS_11char_traitsIcEENS_9allocatorIcEEE21__make_const_iteratorB8ue170006EPKc, symObjAddr: 0x21438, symBinAddr: 0x100023128, symSize: 0x30 }
  - { offsetInCU: 0x565CC, offset: 0x565CC, size: 0x8, addend: 0x0, symName: __ZNSt3__112basic_stringIcNS_11char_traitsIcEENS_9allocatorIcEEE6appendB8ue170006ERKS5_, symObjAddr: 0x21468, symBinAddr: 0x100023158, symSize: 0x4C }
  - { offsetInCU: 0x56601, offset: 0x56601, size: 0x8, addend: 0x0, symName: __ZN3olc10RenderableC2Ev, symObjAddr: 0x214B4, symBinAddr: 0x1000231A4, symSize: 0x44 }
  - { offsetInCU: 0x5662B, offset: 0x5662B, size: 0x8, addend: 0x0, symName: __ZNSt3__110unique_ptrIN3olc6SpriteENS_14default_deleteIS2_EEEC1B8ue170006ILb1EvEEDn, symObjAddr: 0x214F8, symBinAddr: 0x1000231E8, symSize: 0x34 }
  - { offsetInCU: 0x5666A, offset: 0x5666A, size: 0x8, addend: 0x0, symName: __ZNSt3__110unique_ptrIN3olc5DecalENS_14default_deleteIS2_EEEC1B8ue170006ILb1EvEEDn, symObjAddr: 0x2152C, symBinAddr: 0x10002321C, symSize: 0x34 }
  - { offsetInCU: 0x566A9, offset: 0x566A9, size: 0x8, addend: 0x0, symName: __ZNSt3__110unique_ptrIN3olc6SpriteENS_14default_deleteIS2_EEEC2B8ue170006ILb1EvEEDn, symObjAddr: 0x21560, symBinAddr: 0x100023250, symSize: 0x40 }
  - { offsetInCU: 0x566EE, offset: 0x566EE, size: 0x8, addend: 0x0, symName: __ZNSt3__117__compressed_pairIPN3olc6SpriteENS_14default_deleteIS2_EEEC1B8ue170006INS_16__value_init_tagES8_EEOT_OT0_, symObjAddr: 0x215A0, symBinAddr: 0x100023290, symSize: 0x3C }
  - { offsetInCU: 0x56746, offset: 0x56746, size: 0x8, addend: 0x0, symName: __ZNSt3__117__compressed_pairIPN3olc6SpriteENS_14default_deleteIS2_EEEC2B8ue170006INS_16__value_init_tagES8_EEOT_OT0_, symObjAddr: 0x215DC, symBinAddr: 0x1000232CC, symSize: 0x3C }
  - { offsetInCU: 0x5679E, offset: 0x5679E, size: 0x8, addend: 0x0, symName: __ZNSt3__122__compressed_pair_elemIPN3olc6SpriteELi0ELb0EEC2B8ue170006ENS_16__value_init_tagE, symObjAddr: 0x21618, symBinAddr: 0x100023308, symSize: 0x18 }
  - { offsetInCU: 0x567D2, offset: 0x567D2, size: 0x8, addend: 0x0, symName: __ZNSt3__122__compressed_pair_elemINS_14default_deleteIN3olc6SpriteEEELi1ELb1EEC2B8ue170006ENS_16__value_init_tagE, symObjAddr: 0x21630, symBinAddr: 0x100023320, symSize: 0x14 }
  - { offsetInCU: 0x56806, offset: 0x56806, size: 0x8, addend: 0x0, symName: __ZNSt3__110unique_ptrIN3olc5DecalENS_14default_deleteIS2_EEEC2B8ue170006ILb1EvEEDn, symObjAddr: 0x21644, symBinAddr: 0x100023334, symSize: 0x40 }
  - { offsetInCU: 0x56845, offset: 0x56845, size: 0x8, addend: 0x0, symName: __ZNSt3__117__compressed_pairIPN3olc5DecalENS_14default_deleteIS2_EEEC1B8ue170006INS_16__value_init_tagES8_EEOT_OT0_, symObjAddr: 0x21684, symBinAddr: 0x100023374, symSize: 0x3C }
  - { offsetInCU: 0x5689D, offset: 0x5689D, size: 0x8, addend: 0x0, symName: __ZNSt3__117__compressed_pairIPN3olc5DecalENS_14default_deleteIS2_EEEC2B8ue170006INS_16__value_init_tagES8_EEOT_OT0_, symObjAddr: 0x216C0, symBinAddr: 0x1000233B0, symSize: 0x3C }
  - { offsetInCU: 0x568F5, offset: 0x568F5, size: 0x8, addend: 0x0, symName: __ZNSt3__122__compressed_pair_elemIPN3olc5DecalELi0ELb0EEC2B8ue170006ENS_16__value_init_tagE, symObjAddr: 0x216FC, symBinAddr: 0x1000233EC, symSize: 0x18 }
  - { offsetInCU: 0x56929, offset: 0x56929, size: 0x8, addend: 0x0, symName: __ZNSt3__122__compressed_pair_elemINS_14default_deleteIN3olc5DecalEEELi1ELb1EEC2B8ue170006ENS_16__value_init_tagE, symObjAddr: 0x21714, symBinAddr: 0x100023404, symSize: 0x14 }
  - { offsetInCU: 0x5695D, offset: 0x5695D, size: 0x8, addend: 0x0, symName: __ZNSt3__16vectorIN3olc9LayerDescENS_9allocatorIS2_EEEC2B8ue170006Ev, symObjAddr: 0x21728, symBinAddr: 0x100023418, symSize: 0x4C }
  - { offsetInCU: 0x56987, offset: 0x56987, size: 0x8, addend: 0x0, symName: __ZNSt3__117__compressed_pairIPN3olc9LayerDescENS_9allocatorIS2_EEEC1B8ue170006IDnNS_18__default_init_tagEEEOT_OT0_, symObjAddr: 0x21774, symBinAddr: 0x100023464, symSize: 0x3C }
  - { offsetInCU: 0x569DF, offset: 0x569DF, size: 0x8, addend: 0x0, symName: __ZNSt3__117__compressed_pairIPN3olc9LayerDescENS_9allocatorIS2_EEEC2B8ue170006IDnNS_18__default_init_tagEEEOT_OT0_, symObjAddr: 0x217B0, symBinAddr: 0x1000234A0, symSize: 0x40 }
  - { offsetInCU: 0x56A37, offset: 0x56A37, size: 0x8, addend: 0x0, symName: __ZNSt3__122__compressed_pair_elemIPN3olc9LayerDescELi0ELb0EEC2B8ue170006IDnvEEOT_, symObjAddr: 0x217F0, symBinAddr: 0x1000234E0, symSize: 0x1C }
  - { offsetInCU: 0x56A79, offset: 0x56A79, size: 0x8, addend: 0x0, symName: __ZNSt3__122__compressed_pair_elemINS_9allocatorIN3olc9LayerDescEEELi1ELb1EEC2B8ue170006ENS_18__default_init_tagE, symObjAddr: 0x2180C, symBinAddr: 0x1000234FC, symSize: 0x2C }
  - { offsetInCU: 0x56AAD, offset: 0x56AAD, size: 0x8, addend: 0x0, symName: __ZNSt3__19allocatorIN3olc9LayerDescEEC2B8ue170006Ev, symObjAddr: 0x21838, symBinAddr: 0x100023528, symSize: 0x2C }
  - { offsetInCU: 0x56AD7, offset: 0x56AD7, size: 0x8, addend: 0x0, symName: __ZNSt3__116__non_trivial_ifILb1ENS_9allocatorIN3olc9LayerDescEEEEC2B8ue170006Ev, symObjAddr: 0x21864, symBinAddr: 0x100023554, symSize: 0x14 }
  - { offsetInCU: 0x56B01, offset: 0x56B01, size: 0x8, addend: 0x0, symName: __ZNSt3__16chrono10time_pointINS0_12system_clockENS0_8durationIxNS_5ratioILl1ELl1000000EEEEEEC2B8ue170006Ev, symObjAddr: 0x21878, symBinAddr: 0x100023568, symSize: 0x34 }
  - { offsetInCU: 0x56B2B, offset: 0x56B2B, size: 0x8, addend: 0x0, symName: __ZNSt3__16chrono8durationIxNS_5ratioILl1ELl1000000EEEE4zeroB8ue170006Ev, symObjAddr: 0x218AC, symBinAddr: 0x10002359C, symSize: 0x3C }
  - { offsetInCU: 0x56B3F, offset: 0x56B3F, size: 0x8, addend: 0x0, symName: __ZNSt3__16chrono15duration_valuesIxE4zeroB8ue170006Ev, symObjAddr: 0x218E8, symBinAddr: 0x1000235D8, symSize: 0x8 }
  - { offsetInCU: 0x56B5D, offset: 0x56B5D, size: 0x8, addend: 0x0, symName: __ZNSt3__16chrono8durationIxNS_5ratioILl1ELl1000000EEEEC1B8ue170006IxEERKT_PNS_9enable_ifIXaasr14is_convertibleIS8_xEE5valueooL_ZNS_17integral_constantIbLb0EE5valueEEntsr23treat_as_floating_pointIS6_EE5valueEvE4typeE, symObjAddr: 0x218F0, symBinAddr: 0x1000235E0, symSize: 0x3C }
  - { offsetInCU: 0x56BAA, offset: 0x56BAA, size: 0x8, addend: 0x0, symName: __ZNSt3__16chrono8durationIxNS_5ratioILl1ELl1000000EEEEC2B8ue170006IxEERKT_PNS_9enable_ifIXaasr14is_convertibleIS8_xEE5valueooL_ZNS_17integral_constantIbLb0EE5valueEEntsr23treat_as_floating_pointIS6_EE5valueEvE4typeE, symObjAddr: 0x2192C, symBinAddr: 0x10002361C, symSize: 0x28 }
  - { offsetInCU: 0x56BF7, offset: 0x56BF7, size: 0x8, addend: 0x0, symName: __ZNSt3__16vectorIN3olc11v2d_genericIiEENS_9allocatorIS3_EEEC2B8ue170006Ev, symObjAddr: 0x21954, symBinAddr: 0x100023644, symSize: 0x4C }
  - { offsetInCU: 0x56C21, offset: 0x56C21, size: 0x8, addend: 0x0, symName: __ZNSt3__117__compressed_pairIPN3olc11v2d_genericIiEENS_9allocatorIS3_EEEC1B8ue170006IDnNS_18__default_init_tagEEEOT_OT0_, symObjAddr: 0x219A0, symBinAddr: 0x100023690, symSize: 0x3C }
  - { offsetInCU: 0x56C79, offset: 0x56C79, size: 0x8, addend: 0x0, symName: __ZNSt3__117__compressed_pairIPN3olc11v2d_genericIiEENS_9allocatorIS3_EEEC2B8ue170006IDnNS_18__default_init_tagEEEOT_OT0_, symObjAddr: 0x219DC, symBinAddr: 0x1000236CC, symSize: 0x40 }
  - { offsetInCU: 0x56CD1, offset: 0x56CD1, size: 0x8, addend: 0x0, symName: __ZNSt3__122__compressed_pair_elemIPN3olc11v2d_genericIiEELi0ELb0EEC2B8ue170006IDnvEEOT_, symObjAddr: 0x21A1C, symBinAddr: 0x10002370C, symSize: 0x1C }
  - { offsetInCU: 0x56D13, offset: 0x56D13, size: 0x8, addend: 0x0, symName: __ZNSt3__122__compressed_pair_elemINS_9allocatorIN3olc11v2d_genericIiEEEELi1ELb1EEC2B8ue170006ENS_18__default_init_tagE, symObjAddr: 0x21A38, symBinAddr: 0x100023728, symSize: 0x2C }
  - { offsetInCU: 0x56D47, offset: 0x56D47, size: 0x8, addend: 0x0, symName: __ZNSt3__19allocatorIN3olc11v2d_genericIiEEEC2B8ue170006Ev, symObjAddr: 0x21A64, symBinAddr: 0x100023754, symSize: 0x2C }
  - { offsetInCU: 0x56D71, offset: 0x56D71, size: 0x8, addend: 0x0, symName: __ZNSt3__116__non_trivial_ifILb1ENS_9allocatorIN3olc11v2d_genericIiEEEEEC2B8ue170006Ev, symObjAddr: 0x21A90, symBinAddr: 0x100023780, symSize: 0x14 }
  - { offsetInCU: 0x56D9B, offset: 0x56D9B, size: 0x8, addend: 0x0, symName: __ZNSt3__16vectorINS_12basic_stringIcNS_11char_traitsIcEENS_9allocatorIcEEEENS4_IS6_EEEC2B8ue170006Ev, symObjAddr: 0x21AA4, symBinAddr: 0x100023794, symSize: 0x4C }
  - { offsetInCU: 0x56DC5, offset: 0x56DC5, size: 0x8, addend: 0x0, symName: __ZNSt3__117__compressed_pairIPNS_12basic_stringIcNS_11char_traitsIcEENS_9allocatorIcEEEENS4_IS6_EEEC1B8ue170006IDnNS_18__default_init_tagEEEOT_OT0_, symObjAddr: 0x21AF0, symBinAddr: 0x1000237E0, symSize: 0x3C }
  - { offsetInCU: 0x56E1D, offset: 0x56E1D, size: 0x8, addend: 0x0, symName: __ZNSt3__117__compressed_pairIPNS_12basic_stringIcNS_11char_traitsIcEENS_9allocatorIcEEEENS4_IS6_EEEC2B8ue170006IDnNS_18__default_init_tagEEEOT_OT0_, symObjAddr: 0x21B2C, symBinAddr: 0x10002381C, symSize: 0x40 }
  - { offsetInCU: 0x56E75, offset: 0x56E75, size: 0x8, addend: 0x0, symName: __ZNSt3__122__compressed_pair_elemIPNS_12basic_stringIcNS_11char_traitsIcEENS_9allocatorIcEEEELi0ELb0EEC2B8ue170006IDnvEEOT_, symObjAddr: 0x21B6C, symBinAddr: 0x10002385C, symSize: 0x1C }
  - { offsetInCU: 0x56EB7, offset: 0x56EB7, size: 0x8, addend: 0x0, symName: __ZNSt3__122__compressed_pair_elemINS_9allocatorINS_12basic_stringIcNS_11char_traitsIcEENS1_IcEEEEEELi1ELb1EEC2B8ue170006ENS_18__default_init_tagE, symObjAddr: 0x21B88, symBinAddr: 0x100023878, symSize: 0x2C }
  - { offsetInCU: 0x56EEB, offset: 0x56EEB, size: 0x8, addend: 0x0, symName: __ZNSt3__19allocatorINS_12basic_stringIcNS_11char_traitsIcEENS0_IcEEEEEC2B8ue170006Ev, symObjAddr: 0x21BB4, symBinAddr: 0x1000238A4, symSize: 0x2C }
  - { offsetInCU: 0x56F15, offset: 0x56F15, size: 0x8, addend: 0x0, symName: __ZNSt3__116__non_trivial_ifILb1ENS_9allocatorINS_12basic_stringIcNS_11char_traitsIcEENS1_IcEEEEEEEC2B8ue170006Ev, symObjAddr: 0x21BE0, symBinAddr: 0x1000238D0, symSize: 0x14 }
  - { offsetInCU: 0x56F3F, offset: 0x56F3F, size: 0x8, addend: 0x0, symName: __ZNSt3__112basic_stringIcNS_11char_traitsIcEENS_9allocatorIcEEEC2B8ue170006ILi0EEEPKc, symObjAddr: 0x21BF4, symBinAddr: 0x1000238E4, symSize: 0x58 }
  - { offsetInCU: 0x56F7E, offset: 0x56F7E, size: 0x8, addend: 0x0, symName: __ZNSt3__111char_traitsIcE6lengthB8ue170006EPKc, symObjAddr: 0x21C4C, symBinAddr: 0x10002393C, symSize: 0x34 }
  - { offsetInCU: 0x56FA1, offset: 0x56FA1, size: 0x8, addend: 0x0, symName: __ZNSt3__16vectorINS_5tupleIJN3olc3KeyENS_12basic_stringIcNS_11char_traitsIcEENS_9allocatorIcEEEES9_EEENS7_ISA_EEEC2B8ue170006Ev, symObjAddr: 0x21CA4, symBinAddr: 0x100023994, symSize: 0x4C }
  - { offsetInCU: 0x56FCB, offset: 0x56FCB, size: 0x8, addend: 0x0, symName: __ZNSt3__117__compressed_pairIPNS_5tupleIJN3olc3KeyENS_12basic_stringIcNS_11char_traitsIcEENS_9allocatorIcEEEES9_EEENS7_ISA_EEEC1B8ue170006IDnNS_18__default_init_tagEEEOT_OT0_, symObjAddr: 0x21CF0, symBinAddr: 0x1000239E0, symSize: 0x3C }
  - { offsetInCU: 0x57023, offset: 0x57023, size: 0x8, addend: 0x0, symName: __ZNSt3__117__compressed_pairIPNS_5tupleIJN3olc3KeyENS_12basic_stringIcNS_11char_traitsIcEENS_9allocatorIcEEEES9_EEENS7_ISA_EEEC2B8ue170006IDnNS_18__default_init_tagEEEOT_OT0_, symObjAddr: 0x21D2C, symBinAddr: 0x100023A1C, symSize: 0x40 }
  - { offsetInCU: 0x5707B, offset: 0x5707B, size: 0x8, addend: 0x0, symName: __ZNSt3__122__compressed_pair_elemIPNS_5tupleIJN3olc3KeyENS_12basic_stringIcNS_11char_traitsIcEENS_9allocatorIcEEEES9_EEELi0ELb0EEC2B8ue170006IDnvEEOT_, symObjAddr: 0x21D6C, symBinAddr: 0x100023A5C, symSize: 0x1C }
  - { offsetInCU: 0x570BD, offset: 0x570BD, size: 0x8, addend: 0x0, symName: __ZNSt3__122__compressed_pair_elemINS_9allocatorINS_5tupleIJN3olc3KeyENS_12basic_stringIcNS_11char_traitsIcEENS1_IcEEEES9_EEEEELi1ELb1EEC2B8ue170006ENS_18__default_init_tagE, symObjAddr: 0x21D88, symBinAddr: 0x100023A78, symSize: 0x2C }
  - { offsetInCU: 0x570F1, offset: 0x570F1, size: 0x8, addend: 0x0, symName: __ZNSt3__19allocatorINS_5tupleIJN3olc3KeyENS_12basic_stringIcNS_11char_traitsIcEENS0_IcEEEES8_EEEEC2B8ue170006Ev, symObjAddr: 0x21DB4, symBinAddr: 0x100023AA4, symSize: 0x2C }
  - { offsetInCU: 0x5711B, offset: 0x5711B, size: 0x8, addend: 0x0, symName: __ZNSt3__116__non_trivial_ifILb1ENS_9allocatorINS_5tupleIJN3olc3KeyENS_12basic_stringIcNS_11char_traitsIcEENS1_IcEEEES9_EEEEEEC2B8ue170006Ev, symObjAddr: 0x21DE0, symBinAddr: 0x100023AD0, symSize: 0x14 }
  - { offsetInCU: 0x57145, offset: 0x57145, size: 0x8, addend: 0x0, symName: __ZNSt3__16vectorIPN3olc4PGEXENS_9allocatorIS3_EEEC2B8ue170006Ev, symObjAddr: 0x21DF4, symBinAddr: 0x100023AE4, symSize: 0x4C }
  - { offsetInCU: 0x5716F, offset: 0x5716F, size: 0x8, addend: 0x0, symName: __ZNSt3__117__compressed_pairIPPN3olc4PGEXENS_9allocatorIS3_EEEC1B8ue170006IDnNS_18__default_init_tagEEEOT_OT0_, symObjAddr: 0x21E40, symBinAddr: 0x100023B30, symSize: 0x3C }
  - { offsetInCU: 0x571C7, offset: 0x571C7, size: 0x8, addend: 0x0, symName: __ZNSt3__117__compressed_pairIPPN3olc4PGEXENS_9allocatorIS3_EEEC2B8ue170006IDnNS_18__default_init_tagEEEOT_OT0_, symObjAddr: 0x21E7C, symBinAddr: 0x100023B6C, symSize: 0x40 }
  - { offsetInCU: 0x5721F, offset: 0x5721F, size: 0x8, addend: 0x0, symName: __ZNSt3__122__compressed_pair_elemIPPN3olc4PGEXELi0ELb0EEC2B8ue170006IDnvEEOT_, symObjAddr: 0x21EBC, symBinAddr: 0x100023BAC, symSize: 0x1C }
  - { offsetInCU: 0x57261, offset: 0x57261, size: 0x8, addend: 0x0, symName: __ZNSt3__122__compressed_pair_elemINS_9allocatorIPN3olc4PGEXEEELi1ELb1EEC2B8ue170006ENS_18__default_init_tagE, symObjAddr: 0x21ED8, symBinAddr: 0x100023BC8, symSize: 0x2C }
  - { offsetInCU: 0x57295, offset: 0x57295, size: 0x8, addend: 0x0, symName: __ZNSt3__19allocatorIPN3olc4PGEXEEC2B8ue170006Ev, symObjAddr: 0x21F04, symBinAddr: 0x100023BF4, symSize: 0x2C }
  - { offsetInCU: 0x572BF, offset: 0x572BF, size: 0x8, addend: 0x0, symName: __ZNSt3__116__non_trivial_ifILb1ENS_9allocatorIPN3olc4PGEXEEEEC2B8ue170006Ev, symObjAddr: 0x21F30, symBinAddr: 0x100023C20, symSize: 0x14 }
  - { offsetInCU: 0x572E9, offset: 0x572E9, size: 0x8, addend: 0x0, symName: __ZNSt3__16vectorIPN3olc4PGEXENS_9allocatorIS3_EEED2B8ue170006Ev, symObjAddr: 0x21F44, symBinAddr: 0x100023C34, symSize: 0x44 }
  - { offsetInCU: 0x57313, offset: 0x57313, size: 0x8, addend: 0x0, symName: __ZNSt3__16vectorIPN3olc4PGEXENS_9allocatorIS3_EEE16__destroy_vectorC1B8ue170006ERS6_, symObjAddr: 0x21F88, symBinAddr: 0x100023C78, symSize: 0x34 }
  - { offsetInCU: 0x5734C, offset: 0x5734C, size: 0x8, addend: 0x0, symName: __ZNSt3__16vectorIPN3olc4PGEXENS_9allocatorIS3_EEE16__destroy_vectorclB8ue170006Ev, symObjAddr: 0x21FBC, symBinAddr: 0x100023CAC, symSize: 0x90 }
  - { offsetInCU: 0x57372, offset: 0x57372, size: 0x8, addend: 0x0, symName: __ZNSt3__16vectorIPN3olc4PGEXENS_9allocatorIS3_EEE16__destroy_vectorC2B8ue170006ERS6_, symObjAddr: 0x2204C, symBinAddr: 0x100023D3C, symSize: 0x20 }
  - { offsetInCU: 0x573AB, offset: 0x573AB, size: 0x8, addend: 0x0, symName: __ZNSt3__16vectorIPN3olc4PGEXENS_9allocatorIS3_EEE7__clearB8ue170006Ev, symObjAddr: 0x2206C, symBinAddr: 0x100023D5C, symSize: 0x28 }
  - { offsetInCU: 0x573D1, offset: 0x573D1, size: 0x8, addend: 0x0, symName: __ZNKSt3__16vectorIPN3olc4PGEXENS_9allocatorIS3_EEE17__annotate_deleteB8ue170006Ev, symObjAddr: 0x22094, symBinAddr: 0x100023D84, symSize: 0xB8 }
  - { offsetInCU: 0x573F7, offset: 0x573F7, size: 0x8, addend: 0x0, symName: __ZNSt3__116allocator_traitsINS_9allocatorIPN3olc4PGEXEEEE10deallocateB8ue170006ERS5_PS4_m, symObjAddr: 0x2214C, symBinAddr: 0x100023E3C, symSize: 0x34 }
  - { offsetInCU: 0x57439, offset: 0x57439, size: 0x8, addend: 0x0, symName: __ZNSt3__16vectorIPN3olc4PGEXENS_9allocatorIS3_EEE7__allocB8ue170006Ev, symObjAddr: 0x22180, symBinAddr: 0x100023E70, symSize: 0x28 }
  - { offsetInCU: 0x5745F, offset: 0x5745F, size: 0x8, addend: 0x0, symName: __ZNKSt3__16vectorIPN3olc4PGEXENS_9allocatorIS3_EEE8capacityB8ue170006Ev, symObjAddr: 0x221A8, symBinAddr: 0x100023E98, symSize: 0x40 }
  - { offsetInCU: 0x57485, offset: 0x57485, size: 0x8, addend: 0x0, symName: __ZNSt3__16vectorIPN3olc4PGEXENS_9allocatorIS3_EEE22__base_destruct_at_endB8ue170006EPS3_, symObjAddr: 0x221E8, symBinAddr: 0x100023ED8, symSize: 0x8C }
  - { offsetInCU: 0x574C9, offset: 0x574C9, size: 0x8, addend: 0x0, symName: __ZNSt3__116allocator_traitsINS_9allocatorIPN3olc4PGEXEEEE7destroyB8ue170006IS4_vvEEvRS5_PT_, symObjAddr: 0x22274, symBinAddr: 0x100023F64, symSize: 0x28 }
  - { offsetInCU: 0x57504, offset: 0x57504, size: 0x8, addend: 0x0, symName: __ZNKSt3__16vectorIPN3olc4PGEXENS_9allocatorIS3_EEE31__annotate_contiguous_containerB8ue170006EPKvS8_S8_S8_, symObjAddr: 0x222E4, symBinAddr: 0x100023FD4, symSize: 0x20 }
  - { offsetInCU: 0x5755A, offset: 0x5755A, size: 0x8, addend: 0x0, symName: __ZNKSt3__16vectorIPN3olc4PGEXENS_9allocatorIS3_EEE4dataB8ue170006Ev, symObjAddr: 0x22304, symBinAddr: 0x100023FF4, symSize: 0x28 }
  - { offsetInCU: 0x57580, offset: 0x57580, size: 0x8, addend: 0x0, symName: __ZNKSt3__16vectorIPN3olc4PGEXENS_9allocatorIS3_EEE4sizeB8ue170006Ev, symObjAddr: 0x2232C, symBinAddr: 0x10002401C, symSize: 0x28 }
  - { offsetInCU: 0x575A6, offset: 0x575A6, size: 0x8, addend: 0x0, symName: __ZNSt3__19allocatorIPN3olc4PGEXEE10deallocateB8ue170006EPS3_m, symObjAddr: 0x22354, symBinAddr: 0x100024044, symSize: 0x40 }
  - { offsetInCU: 0x575E8, offset: 0x575E8, size: 0x8, addend: 0x0, symName: __ZNSt3__117__compressed_pairIPPN3olc4PGEXENS_9allocatorIS3_EEE6secondB8ue170006Ev, symObjAddr: 0x22394, symBinAddr: 0x100024084, symSize: 0x24 }
  - { offsetInCU: 0x5760E, offset: 0x5760E, size: 0x8, addend: 0x0, symName: __ZNSt3__122__compressed_pair_elemINS_9allocatorIPN3olc4PGEXEEELi1ELb1EE5__getB8ue170006Ev, symObjAddr: 0x223B8, symBinAddr: 0x1000240A8, symSize: 0x14 }
  - { offsetInCU: 0x57634, offset: 0x57634, size: 0x8, addend: 0x0, symName: __ZNKSt3__16vectorIPN3olc4PGEXENS_9allocatorIS3_EEE9__end_capB8ue170006Ev, symObjAddr: 0x223CC, symBinAddr: 0x1000240BC, symSize: 0x28 }
  - { offsetInCU: 0x5765A, offset: 0x5765A, size: 0x8, addend: 0x0, symName: __ZNKSt3__117__compressed_pairIPPN3olc4PGEXENS_9allocatorIS3_EEE5firstB8ue170006Ev, symObjAddr: 0x223F4, symBinAddr: 0x1000240E4, symSize: 0x24 }
  - { offsetInCU: 0x57680, offset: 0x57680, size: 0x8, addend: 0x0, symName: __ZNKSt3__122__compressed_pair_elemIPPN3olc4PGEXELi0ELb0EE5__getB8ue170006Ev, symObjAddr: 0x22418, symBinAddr: 0x100024108, symSize: 0x14 }
  - { offsetInCU: 0x576A6, offset: 0x576A6, size: 0x8, addend: 0x0, symName: __ZNSt3__16vectorINS_5tupleIJN3olc3KeyENS_12basic_stringIcNS_11char_traitsIcEENS_9allocatorIcEEEES9_EEENS7_ISA_EEED2B8ue170006Ev, symObjAddr: 0x2242C, symBinAddr: 0x10002411C, symSize: 0x44 }
  - { offsetInCU: 0x576D0, offset: 0x576D0, size: 0x8, addend: 0x0, symName: __ZNSt3__16vectorINS_5tupleIJN3olc3KeyENS_12basic_stringIcNS_11char_traitsIcEENS_9allocatorIcEEEES9_EEENS7_ISA_EEE16__destroy_vectorC1B8ue170006ERSC_, symObjAddr: 0x22470, symBinAddr: 0x100024160, symSize: 0x34 }
  - { offsetInCU: 0x57709, offset: 0x57709, size: 0x8, addend: 0x0, symName: __ZNSt3__16vectorINS_5tupleIJN3olc3KeyENS_12basic_stringIcNS_11char_traitsIcEENS_9allocatorIcEEEES9_EEENS7_ISA_EEE16__destroy_vectorclB8ue170006Ev, symObjAddr: 0x224A4, symBinAddr: 0x100024194, symSize: 0x90 }
  - { offsetInCU: 0x5772F, offset: 0x5772F, size: 0x8, addend: 0x0, symName: __ZNSt3__16vectorINS_5tupleIJN3olc3KeyENS_12basic_stringIcNS_11char_traitsIcEENS_9allocatorIcEEEES9_EEENS7_ISA_EEE16__destroy_vectorC2B8ue170006ERSC_, symObjAddr: 0x22534, symBinAddr: 0x100024224, symSize: 0x20 }
  - { offsetInCU: 0x57768, offset: 0x57768, size: 0x8, addend: 0x0, symName: __ZNSt3__16vectorINS_5tupleIJN3olc3KeyENS_12basic_stringIcNS_11char_traitsIcEENS_9allocatorIcEEEES9_EEENS7_ISA_EEE7__clearB8ue170006Ev, symObjAddr: 0x22554, symBinAddr: 0x100024244, symSize: 0x28 }
  - { offsetInCU: 0x5778E, offset: 0x5778E, size: 0x8, addend: 0x0, symName: __ZNKSt3__16vectorINS_5tupleIJN3olc3KeyENS_12basic_stringIcNS_11char_traitsIcEENS_9allocatorIcEEEES9_EEENS7_ISA_EEE17__annotate_deleteB8ue170006Ev, symObjAddr: 0x2257C, symBinAddr: 0x10002426C, symSize: 0xD4 }
  - { offsetInCU: 0x577B4, offset: 0x577B4, size: 0x8, addend: 0x0, symName: __ZNSt3__116allocator_traitsINS_9allocatorINS_5tupleIJN3olc3KeyENS_12basic_stringIcNS_11char_traitsIcEENS1_IcEEEES9_EEEEEE10deallocateB8ue170006ERSB_PSA_m, symObjAddr: 0x22650, symBinAddr: 0x100024340, symSize: 0x34 }
  - { offsetInCU: 0x577F6, offset: 0x577F6, size: 0x8, addend: 0x0, symName: __ZNSt3__16vectorINS_5tupleIJN3olc3KeyENS_12basic_stringIcNS_11char_traitsIcEENS_9allocatorIcEEEES9_EEENS7_ISA_EEE7__allocB8ue170006Ev, symObjAddr: 0x22684, symBinAddr: 0x100024374, symSize: 0x28 }
  - { offsetInCU: 0x5781C, offset: 0x5781C, size: 0x8, addend: 0x0, symName: __ZNKSt3__16vectorINS_5tupleIJN3olc3KeyENS_12basic_stringIcNS_11char_traitsIcEENS_9allocatorIcEEEES9_EEENS7_ISA_EEE8capacityB8ue170006Ev, symObjAddr: 0x226AC, symBinAddr: 0x10002439C, symSize: 0x40 }
  - { offsetInCU: 0x57842, offset: 0x57842, size: 0x8, addend: 0x0, symName: __ZNSt3__16vectorINS_5tupleIJN3olc3KeyENS_12basic_stringIcNS_11char_traitsIcEENS_9allocatorIcEEEES9_EEENS7_ISA_EEE22__base_destruct_at_endB8ue170006EPSA_, symObjAddr: 0x226EC, symBinAddr: 0x1000243DC, symSize: 0x8C }
  - { offsetInCU: 0x57886, offset: 0x57886, size: 0x8, addend: 0x0, symName: __ZNSt3__116allocator_traitsINS_9allocatorINS_5tupleIJN3olc3KeyENS_12basic_stringIcNS_11char_traitsIcEENS1_IcEEEES9_EEEEEE7destroyB8ue170006ISA_vvEEvRSB_PT_, symObjAddr: 0x22778, symBinAddr: 0x100024468, symSize: 0x28 }
  - { offsetInCU: 0x578C1, offset: 0x578C1, size: 0x8, addend: 0x0, symName: __ZNKSt3__16vectorINS_5tupleIJN3olc3KeyENS_12basic_stringIcNS_11char_traitsIcEENS_9allocatorIcEEEES9_EEENS7_ISA_EEE31__annotate_contiguous_containerB8ue170006EPKvSE_SE_SE_, symObjAddr: 0x227FC, symBinAddr: 0x1000244EC, symSize: 0x20 }
  - { offsetInCU: 0x57917, offset: 0x57917, size: 0x8, addend: 0x0, symName: __ZNKSt3__16vectorINS_5tupleIJN3olc3KeyENS_12basic_stringIcNS_11char_traitsIcEENS_9allocatorIcEEEES9_EEENS7_ISA_EEE4dataB8ue170006Ev, symObjAddr: 0x2281C, symBinAddr: 0x10002450C, symSize: 0x28 }
  - { offsetInCU: 0x5793D, offset: 0x5793D, size: 0x8, addend: 0x0, symName: __ZNKSt3__16vectorINS_5tupleIJN3olc3KeyENS_12basic_stringIcNS_11char_traitsIcEENS_9allocatorIcEEEES9_EEENS7_ISA_EEE4sizeB8ue170006Ev, symObjAddr: 0x22844, symBinAddr: 0x100024534, symSize: 0x28 }
  - { offsetInCU: 0x57963, offset: 0x57963, size: 0x8, addend: 0x0, symName: __ZNSt3__19allocatorINS_5tupleIJN3olc3KeyENS_12basic_stringIcNS_11char_traitsIcEENS0_IcEEEES8_EEEE10deallocateB8ue170006EPS9_m, symObjAddr: 0x2286C, symBinAddr: 0x10002455C, symSize: 0x44 }
  - { offsetInCU: 0x579A5, offset: 0x579A5, size: 0x8, addend: 0x0, symName: __ZNSt3__117__compressed_pairIPNS_5tupleIJN3olc3KeyENS_12basic_stringIcNS_11char_traitsIcEENS_9allocatorIcEEEES9_EEENS7_ISA_EEE6secondB8ue170006Ev, symObjAddr: 0x228B0, symBinAddr: 0x1000245A0, symSize: 0x24 }
  - { offsetInCU: 0x579CB, offset: 0x579CB, size: 0x8, addend: 0x0, symName: __ZNSt3__122__compressed_pair_elemINS_9allocatorINS_5tupleIJN3olc3KeyENS_12basic_stringIcNS_11char_traitsIcEENS1_IcEEEES9_EEEEELi1ELb1EE5__getB8ue170006Ev, symObjAddr: 0x228D4, symBinAddr: 0x1000245C4, symSize: 0x14 }
  - { offsetInCU: 0x579F1, offset: 0x579F1, size: 0x8, addend: 0x0, symName: __ZNKSt3__16vectorINS_5tupleIJN3olc3KeyENS_12basic_stringIcNS_11char_traitsIcEENS_9allocatorIcEEEES9_EEENS7_ISA_EEE9__end_capB8ue170006Ev, symObjAddr: 0x228E8, symBinAddr: 0x1000245D8, symSize: 0x28 }
  - { offsetInCU: 0x57A17, offset: 0x57A17, size: 0x8, addend: 0x0, symName: __ZNKSt3__117__compressed_pairIPNS_5tupleIJN3olc3KeyENS_12basic_stringIcNS_11char_traitsIcEENS_9allocatorIcEEEES9_EEENS7_ISA_EEE5firstB8ue170006Ev, symObjAddr: 0x22910, symBinAddr: 0x100024600, symSize: 0x24 }
  - { offsetInCU: 0x57A3D, offset: 0x57A3D, size: 0x8, addend: 0x0, symName: __ZNKSt3__122__compressed_pair_elemIPNS_5tupleIJN3olc3KeyENS_12basic_stringIcNS_11char_traitsIcEENS_9allocatorIcEEEES9_EEELi0ELb0EE5__getB8ue170006Ev, symObjAddr: 0x22934, symBinAddr: 0x100024624, symSize: 0x14 }
  - { offsetInCU: 0x57A63, offset: 0x57A63, size: 0x8, addend: 0x0, symName: __ZNSt3__14listINS_12basic_stringIcNS_11char_traitsIcEENS_9allocatorIcEEEENS4_IS6_EEED2Ev, symObjAddr: 0x22948, symBinAddr: 0x100024638, symSize: 0x2C }
  - { offsetInCU: 0x57A90, offset: 0x57A90, size: 0x8, addend: 0x0, symName: __ZNSt3__110__list_impINS_12basic_stringIcNS_11char_traitsIcEENS_9allocatorIcEEEENS4_IS6_EEED2Ev, symObjAddr: 0x22974, symBinAddr: 0x100024664, symSize: 0x2C }
  - { offsetInCU: 0x57ABC, offset: 0x57ABC, size: 0x8, addend: 0x0, symName: __ZNSt3__110__list_impINS_12basic_stringIcNS_11char_traitsIcEENS_9allocatorIcEEEENS4_IS6_EEE5clearEv, symObjAddr: 0x229A0, symBinAddr: 0x100024690, symSize: 0xE0 }
  - { offsetInCU: 0x57B2E, offset: 0x57B2E, size: 0x8, addend: 0x0, symName: __ZNKSt3__110__list_impINS_12basic_stringIcNS_11char_traitsIcEENS_9allocatorIcEEEENS4_IS6_EEE5emptyB8ue170006Ev, symObjAddr: 0x22A80, symBinAddr: 0x100024770, symSize: 0x34 }
  - { offsetInCU: 0x57B54, offset: 0x57B54, size: 0x8, addend: 0x0, symName: __ZNSt3__110__list_impINS_12basic_stringIcNS_11char_traitsIcEENS_9allocatorIcEEEENS4_IS6_EEE12__node_allocB8ue170006Ev, symObjAddr: 0x22AB4, symBinAddr: 0x1000247A4, symSize: 0x28 }
  - { offsetInCU: 0x57B7A, offset: 0x57B7A, size: 0x8, addend: 0x0, symName: __ZNKSt3__110__list_impINS_12basic_stringIcNS_11char_traitsIcEENS_9allocatorIcEEEENS4_IS6_EEE13__end_as_linkB8ue170006Ev, symObjAddr: 0x22ADC, symBinAddr: 0x1000247CC, symSize: 0x44 }
  - { offsetInCU: 0x57BA0, offset: 0x57BA0, size: 0x8, addend: 0x0, symName: __ZNSt3__110__list_impINS_12basic_stringIcNS_11char_traitsIcEENS_9allocatorIcEEEENS4_IS6_EEE14__unlink_nodesEPNS_16__list_node_baseIS6_PvEESC_, symObjAddr: 0x22B20, symBinAddr: 0x100024810, symSize: 0x3C }
  - { offsetInCU: 0x57BD5, offset: 0x57BD5, size: 0x8, addend: 0x0, symName: __ZNSt3__110__list_impINS_12basic_stringIcNS_11char_traitsIcEENS_9allocatorIcEEEENS4_IS6_EEE4__szB8ue170006Ev, symObjAddr: 0x22B5C, symBinAddr: 0x10002484C, symSize: 0x28 }
  - { offsetInCU: 0x57BFB, offset: 0x57BFB, size: 0x8, addend: 0x0, symName: __ZNSt3__116__list_node_baseINS_12basic_stringIcNS_11char_traitsIcEENS_9allocatorIcEEEEPvE9__as_nodeB8ue170006Ev, symObjAddr: 0x22B84, symBinAddr: 0x100024874, symSize: 0x24 }
  - { offsetInCU: 0x57C21, offset: 0x57C21, size: 0x8, addend: 0x0, symName: __ZNSt3__116allocator_traitsINS_9allocatorINS_11__list_nodeINS_12basic_stringIcNS_11char_traitsIcEENS1_IcEEEEPvEEEEE7destroyB8ue170006IS7_vvEEvRSA_PT_, symObjAddr: 0x22BA8, symBinAddr: 0x100024898, symSize: 0x28 }
  - { offsetInCU: 0x57C5C, offset: 0x57C5C, size: 0x8, addend: 0x0, symName: __ZNSt3__116allocator_traitsINS_9allocatorINS_11__list_nodeINS_12basic_stringIcNS_11char_traitsIcEENS1_IcEEEEPvEEEEE10deallocateB8ue170006ERSA_PS9_m, symObjAddr: 0x22BD0, symBinAddr: 0x1000248C0, symSize: 0x34 }
  - { offsetInCU: 0x57C9E, offset: 0x57C9E, size: 0x8, addend: 0x0, symName: __ZNKSt3__110__list_impINS_12basic_stringIcNS_11char_traitsIcEENS_9allocatorIcEEEENS4_IS6_EEE4__szB8ue170006Ev, symObjAddr: 0x22C04, symBinAddr: 0x1000248F4, symSize: 0x28 }
  - { offsetInCU: 0x57CC4, offset: 0x57CC4, size: 0x8, addend: 0x0, symName: __ZNKSt3__117__compressed_pairImNS_9allocatorINS_11__list_nodeINS_12basic_stringIcNS_11char_traitsIcEENS1_IcEEEEPvEEEEE5firstB8ue170006Ev, symObjAddr: 0x22C2C, symBinAddr: 0x10002491C, symSize: 0x24 }
  - { offsetInCU: 0x57CEA, offset: 0x57CEA, size: 0x8, addend: 0x0, symName: __ZNKSt3__122__compressed_pair_elemImLi0ELb0EE5__getB8ue170006Ev, symObjAddr: 0x22C50, symBinAddr: 0x100024940, symSize: 0x14 }
  - { offsetInCU: 0x57D10, offset: 0x57D10, size: 0x8, addend: 0x0, symName: __ZNSt3__117__compressed_pairImNS_9allocatorINS_11__list_nodeINS_12basic_stringIcNS_11char_traitsIcEENS1_IcEEEEPvEEEEE6secondB8ue170006Ev, symObjAddr: 0x22C64, symBinAddr: 0x100024954, symSize: 0x24 }
  - { offsetInCU: 0x57D36, offset: 0x57D36, size: 0x8, addend: 0x0, symName: __ZNSt3__122__compressed_pair_elemINS_9allocatorINS_11__list_nodeINS_12basic_stringIcNS_11char_traitsIcEENS1_IcEEEEPvEEEELi1ELb1EE5__getB8ue170006Ev, symObjAddr: 0x22C88, symBinAddr: 0x100024978, symSize: 0x14 }
  - { offsetInCU: 0x57D5C, offset: 0x57D5C, size: 0x8, addend: 0x0, symName: __ZNSt3__126__list_node_pointer_traitsINS_12basic_stringIcNS_11char_traitsIcEENS_9allocatorIcEEEEPvE26__unsafe_link_pointer_castB8ue170006EPNS_16__list_node_baseIS6_S7_EE, symObjAddr: 0x22C9C, symBinAddr: 0x10002498C, symSize: 0x14 }
  - { offsetInCU: 0x57D80, offset: 0x57D80, size: 0x8, addend: 0x0, symName: __ZNSt3__116__list_node_baseINS_12basic_stringIcNS_11char_traitsIcEENS_9allocatorIcEEEEPvE6__selfB8ue170006Ev, symObjAddr: 0x22CB0, symBinAddr: 0x1000249A0, symSize: 0x24 }
  - { offsetInCU: 0x57DAB, offset: 0x57DAB, size: 0x8, addend: 0x0, symName: __ZNSt3__114pointer_traitsIPNS_16__list_node_baseINS_12basic_stringIcNS_11char_traitsIcEENS_9allocatorIcEEEEPvEEE10pointer_toB8ue170006ERS9_, symObjAddr: 0x22CD4, symBinAddr: 0x1000249C4, symSize: 0x14 }
  - { offsetInCU: 0x57DCE, offset: 0x57DCE, size: 0x8, addend: 0x0, symName: __ZNSt3__117__compressed_pairImNS_9allocatorINS_11__list_nodeINS_12basic_stringIcNS_11char_traitsIcEENS1_IcEEEEPvEEEEE5firstB8ue170006Ev, symObjAddr: 0x22CE8, symBinAddr: 0x1000249D8, symSize: 0x24 }
  - { offsetInCU: 0x57DF4, offset: 0x57DF4, size: 0x8, addend: 0x0, symName: __ZNSt3__122__compressed_pair_elemImLi0ELb0EE5__getB8ue170006Ev, symObjAddr: 0x22D0C, symBinAddr: 0x1000249FC, symSize: 0x14 }
  - { offsetInCU: 0x57E1A, offset: 0x57E1A, size: 0x8, addend: 0x0, symName: __ZNSt3__19allocatorINS_11__list_nodeINS_12basic_stringIcNS_11char_traitsIcEENS0_IcEEEEPvEEE10deallocateB8ue170006EPS8_m, symObjAddr: 0x22D68, symBinAddr: 0x100024A58, symSize: 0x44 }
  - { offsetInCU: 0x57E5C, offset: 0x57E5C, size: 0x8, addend: 0x0, symName: __ZNSt3__16vectorINS_12basic_stringIcNS_11char_traitsIcEENS_9allocatorIcEEEENS4_IS6_EEED2B8ue170006Ev, symObjAddr: 0x22DAC, symBinAddr: 0x100024A9C, symSize: 0x44 }
  - { offsetInCU: 0x57E86, offset: 0x57E86, size: 0x8, addend: 0x0, symName: __ZNSt3__16vectorINS_12basic_stringIcNS_11char_traitsIcEENS_9allocatorIcEEEENS4_IS6_EEE16__destroy_vectorC1B8ue170006ERS8_, symObjAddr: 0x22DF0, symBinAddr: 0x100024AE0, symSize: 0x34 }
  - { offsetInCU: 0x57EBF, offset: 0x57EBF, size: 0x8, addend: 0x0, symName: __ZNSt3__16vectorINS_12basic_stringIcNS_11char_traitsIcEENS_9allocatorIcEEEENS4_IS6_EEE16__destroy_vectorclB8ue170006Ev, symObjAddr: 0x22E24, symBinAddr: 0x100024B14, symSize: 0x90 }
  - { offsetInCU: 0x57EE5, offset: 0x57EE5, size: 0x8, addend: 0x0, symName: __ZNSt3__16vectorINS_12basic_stringIcNS_11char_traitsIcEENS_9allocatorIcEEEENS4_IS6_EEE16__destroy_vectorC2B8ue170006ERS8_, symObjAddr: 0x22EB4, symBinAddr: 0x100024BA4, symSize: 0x20 }
  - { offsetInCU: 0x57F1E, offset: 0x57F1E, size: 0x8, addend: 0x0, symName: __ZNSt3__16vectorINS_12basic_stringIcNS_11char_traitsIcEENS_9allocatorIcEEEENS4_IS6_EEE7__clearB8ue170006Ev, symObjAddr: 0x22ED4, symBinAddr: 0x100024BC4, symSize: 0x28 }
  - { offsetInCU: 0x57F44, offset: 0x57F44, size: 0x8, addend: 0x0, symName: __ZNKSt3__16vectorINS_12basic_stringIcNS_11char_traitsIcEENS_9allocatorIcEEEENS4_IS6_EEE17__annotate_deleteB8ue170006Ev, symObjAddr: 0x22EFC, symBinAddr: 0x100024BEC, symSize: 0xD4 }
  - { offsetInCU: 0x57F6A, offset: 0x57F6A, size: 0x8, addend: 0x0, symName: __ZNSt3__116allocator_traitsINS_9allocatorINS_12basic_stringIcNS_11char_traitsIcEENS1_IcEEEEEEE10deallocateB8ue170006ERS7_PS6_m, symObjAddr: 0x22FD0, symBinAddr: 0x100024CC0, symSize: 0x34 }
  - { offsetInCU: 0x57FAC, offset: 0x57FAC, size: 0x8, addend: 0x0, symName: __ZNSt3__16vectorINS_12basic_stringIcNS_11char_traitsIcEENS_9allocatorIcEEEENS4_IS6_EEE7__allocB8ue170006Ev, symObjAddr: 0x23004, symBinAddr: 0x100024CF4, symSize: 0x28 }
  - { offsetInCU: 0x57FD2, offset: 0x57FD2, size: 0x8, addend: 0x0, symName: __ZNKSt3__16vectorINS_12basic_stringIcNS_11char_traitsIcEENS_9allocatorIcEEEENS4_IS6_EEE8capacityB8ue170006Ev, symObjAddr: 0x2302C, symBinAddr: 0x100024D1C, symSize: 0x40 }
  - { offsetInCU: 0x57FF8, offset: 0x57FF8, size: 0x8, addend: 0x0, symName: __ZNSt3__16vectorINS_12basic_stringIcNS_11char_traitsIcEENS_9allocatorIcEEEENS4_IS6_EEE22__base_destruct_at_endB8ue170006EPS6_, symObjAddr: 0x2306C, symBinAddr: 0x100024D5C, symSize: 0x8C }
  - { offsetInCU: 0x5803C, offset: 0x5803C, size: 0x8, addend: 0x0, symName: __ZNSt3__116allocator_traitsINS_9allocatorINS_12basic_stringIcNS_11char_traitsIcEENS1_IcEEEEEEE7destroyB8ue170006IS6_vvEEvRS7_PT_, symObjAddr: 0x230F8, symBinAddr: 0x100024DE8, symSize: 0x28 }
  - { offsetInCU: 0x58077, offset: 0x58077, size: 0x8, addend: 0x0, symName: __ZNKSt3__16vectorINS_12basic_stringIcNS_11char_traitsIcEENS_9allocatorIcEEEENS4_IS6_EEE31__annotate_contiguous_containerB8ue170006EPKvSA_SA_SA_, symObjAddr: 0x23134, symBinAddr: 0x100024E24, symSize: 0x20 }
  - { offsetInCU: 0x580CD, offset: 0x580CD, size: 0x8, addend: 0x0, symName: __ZNKSt3__16vectorINS_12basic_stringIcNS_11char_traitsIcEENS_9allocatorIcEEEENS4_IS6_EEE4dataB8ue170006Ev, symObjAddr: 0x23154, symBinAddr: 0x100024E44, symSize: 0x28 }
  - { offsetInCU: 0x580F3, offset: 0x580F3, size: 0x8, addend: 0x0, symName: __ZNSt3__19allocatorINS_12basic_stringIcNS_11char_traitsIcEENS0_IcEEEEE10deallocateB8ue170006EPS5_m, symObjAddr: 0x2317C, symBinAddr: 0x100024E6C, symSize: 0x44 }
  - { offsetInCU: 0x58135, offset: 0x58135, size: 0x8, addend: 0x0, symName: __ZNSt3__117__compressed_pairIPNS_12basic_stringIcNS_11char_traitsIcEENS_9allocatorIcEEEENS4_IS6_EEE6secondB8ue170006Ev, symObjAddr: 0x231C0, symBinAddr: 0x100024EB0, symSize: 0x24 }
  - { offsetInCU: 0x5815B, offset: 0x5815B, size: 0x8, addend: 0x0, symName: __ZNSt3__122__compressed_pair_elemINS_9allocatorINS_12basic_stringIcNS_11char_traitsIcEENS1_IcEEEEEELi1ELb1EE5__getB8ue170006Ev, symObjAddr: 0x231E4, symBinAddr: 0x100024ED4, symSize: 0x14 }
  - { offsetInCU: 0x58181, offset: 0x58181, size: 0x8, addend: 0x0, symName: __ZNKSt3__16vectorINS_12basic_stringIcNS_11char_traitsIcEENS_9allocatorIcEEEENS4_IS6_EEE9__end_capB8ue170006Ev, symObjAddr: 0x231F8, symBinAddr: 0x100024EE8, symSize: 0x28 }
  - { offsetInCU: 0x581A7, offset: 0x581A7, size: 0x8, addend: 0x0, symName: __ZNKSt3__117__compressed_pairIPNS_12basic_stringIcNS_11char_traitsIcEENS_9allocatorIcEEEENS4_IS6_EEE5firstB8ue170006Ev, symObjAddr: 0x23220, symBinAddr: 0x100024F10, symSize: 0x24 }
  - { offsetInCU: 0x581CD, offset: 0x581CD, size: 0x8, addend: 0x0, symName: __ZNKSt3__122__compressed_pair_elemIPNS_12basic_stringIcNS_11char_traitsIcEENS_9allocatorIcEEEELi0ELb0EE5__getB8ue170006Ev, symObjAddr: 0x23244, symBinAddr: 0x100024F34, symSize: 0x14 }
  - { offsetInCU: 0x581F3, offset: 0x581F3, size: 0x8, addend: 0x0, symName: __ZNSt3__118basic_stringstreamIcNS_11char_traitsIcEENS_9allocatorIcEEED2Ev, symObjAddr: 0x23258, symBinAddr: 0x100024F48, symSize: 0x6C }
  - { offsetInCU: 0x5822D, offset: 0x5822D, size: 0x8, addend: 0x0, symName: __ZThn16_NSt3__118basic_stringstreamIcNS_11char_traitsIcEENS_9allocatorIcEEED1Ev, symObjAddr: 0x232C4, symBinAddr: 0x100024FB4, symSize: 0x1C }
  - { offsetInCU: 0x58244, offset: 0x58244, size: 0x8, addend: 0x0, symName: __ZTv0_n24_NSt3__118basic_stringstreamIcNS_11char_traitsIcEENS_9allocatorIcEEED1Ev, symObjAddr: 0x232E0, symBinAddr: 0x100024FD0, symSize: 0x28 }
  - { offsetInCU: 0x58260, offset: 0x58260, size: 0x8, addend: 0x0, symName: __ZNSt3__115basic_stringbufIcNS_11char_traitsIcEENS_9allocatorIcEEED1Ev, symObjAddr: 0x23308, symBinAddr: 0x100024FF8, symSize: 0x2C }
  - { offsetInCU: 0x5828D, offset: 0x5828D, size: 0x8, addend: 0x0, symName: __ZNSt3__115basic_stringbufIcNS_11char_traitsIcEENS_9allocatorIcEEED2Ev, symObjAddr: 0x23334, symBinAddr: 0x100025024, symSize: 0x48 }
  - { offsetInCU: 0x582BA, offset: 0x582BA, size: 0x8, addend: 0x0, symName: __ZNSt3__16vectorIN3olc11v2d_genericIiEENS_9allocatorIS3_EEED2B8ue170006Ev, symObjAddr: 0x2337C, symBinAddr: 0x10002506C, symSize: 0x44 }
  - { offsetInCU: 0x582E4, offset: 0x582E4, size: 0x8, addend: 0x0, symName: __ZNSt3__16vectorIN3olc11v2d_genericIiEENS_9allocatorIS3_EEE16__destroy_vectorC1B8ue170006ERS6_, symObjAddr: 0x233C0, symBinAddr: 0x1000250B0, symSize: 0x34 }
  - { offsetInCU: 0x5831D, offset: 0x5831D, size: 0x8, addend: 0x0, symName: __ZNSt3__16vectorIN3olc11v2d_genericIiEENS_9allocatorIS3_EEE16__destroy_vectorclB8ue170006Ev, symObjAddr: 0x233F4, symBinAddr: 0x1000250E4, symSize: 0x90 }
  - { offsetInCU: 0x58343, offset: 0x58343, size: 0x8, addend: 0x0, symName: __ZNSt3__16vectorIN3olc11v2d_genericIiEENS_9allocatorIS3_EEE16__destroy_vectorC2B8ue170006ERS6_, symObjAddr: 0x23484, symBinAddr: 0x100025174, symSize: 0x20 }
  - { offsetInCU: 0x5837C, offset: 0x5837C, size: 0x8, addend: 0x0, symName: __ZNSt3__16vectorIN3olc11v2d_genericIiEENS_9allocatorIS3_EEE7__clearB8ue170006Ev, symObjAddr: 0x234A4, symBinAddr: 0x100025194, symSize: 0x28 }
  - { offsetInCU: 0x583A2, offset: 0x583A2, size: 0x8, addend: 0x0, symName: __ZNKSt3__16vectorIN3olc11v2d_genericIiEENS_9allocatorIS3_EEE17__annotate_deleteB8ue170006Ev, symObjAddr: 0x234CC, symBinAddr: 0x1000251BC, symSize: 0xB8 }
  - { offsetInCU: 0x583C8, offset: 0x583C8, size: 0x8, addend: 0x0, symName: __ZNSt3__116allocator_traitsINS_9allocatorIN3olc11v2d_genericIiEEEEE10deallocateB8ue170006ERS5_PS4_m, symObjAddr: 0x23584, symBinAddr: 0x100025274, symSize: 0x34 }
  - { offsetInCU: 0x5840A, offset: 0x5840A, size: 0x8, addend: 0x0, symName: __ZNSt3__16vectorIN3olc11v2d_genericIiEENS_9allocatorIS3_EEE7__allocB8ue170006Ev, symObjAddr: 0x235B8, symBinAddr: 0x1000252A8, symSize: 0x28 }
  - { offsetInCU: 0x58430, offset: 0x58430, size: 0x8, addend: 0x0, symName: __ZNKSt3__16vectorIN3olc11v2d_genericIiEENS_9allocatorIS3_EEE8capacityB8ue170006Ev, symObjAddr: 0x235E0, symBinAddr: 0x1000252D0, symSize: 0x40 }
  - { offsetInCU: 0x58456, offset: 0x58456, size: 0x8, addend: 0x0, symName: __ZNSt3__16vectorIN3olc11v2d_genericIiEENS_9allocatorIS3_EEE22__base_destruct_at_endB8ue170006EPS3_, symObjAddr: 0x23620, symBinAddr: 0x100025310, symSize: 0x8C }
  - { offsetInCU: 0x5849A, offset: 0x5849A, size: 0x8, addend: 0x0, symName: __ZNSt3__116allocator_traitsINS_9allocatorIN3olc11v2d_genericIiEEEEE7destroyB8ue170006IS4_vvEEvRS5_PT_, symObjAddr: 0x236AC, symBinAddr: 0x10002539C, symSize: 0x28 }
  - { offsetInCU: 0x584D5, offset: 0x584D5, size: 0x8, addend: 0x0, symName: __ZNKSt3__16vectorIN3olc11v2d_genericIiEENS_9allocatorIS3_EEE31__annotate_contiguous_containerB8ue170006EPKvS8_S8_S8_, symObjAddr: 0x2371C, symBinAddr: 0x10002540C, symSize: 0x20 }
  - { offsetInCU: 0x5852B, offset: 0x5852B, size: 0x8, addend: 0x0, symName: __ZNKSt3__16vectorIN3olc11v2d_genericIiEENS_9allocatorIS3_EEE4dataB8ue170006Ev, symObjAddr: 0x2373C, symBinAddr: 0x10002542C, symSize: 0x28 }
  - { offsetInCU: 0x58551, offset: 0x58551, size: 0x8, addend: 0x0, symName: __ZNKSt3__16vectorIN3olc11v2d_genericIiEENS_9allocatorIS3_EEE4sizeB8ue170006Ev, symObjAddr: 0x23764, symBinAddr: 0x100025454, symSize: 0x28 }
  - { offsetInCU: 0x58577, offset: 0x58577, size: 0x8, addend: 0x0, symName: __ZNSt3__19allocatorIN3olc11v2d_genericIiEEE10deallocateB8ue170006EPS3_m, symObjAddr: 0x2378C, symBinAddr: 0x10002547C, symSize: 0x40 }
  - { offsetInCU: 0x585B9, offset: 0x585B9, size: 0x8, addend: 0x0, symName: __ZNSt3__117__compressed_pairIPN3olc11v2d_genericIiEENS_9allocatorIS3_EEE6secondB8ue170006Ev, symObjAddr: 0x237CC, symBinAddr: 0x1000254BC, symSize: 0x24 }
  - { offsetInCU: 0x585DF, offset: 0x585DF, size: 0x8, addend: 0x0, symName: __ZNSt3__122__compressed_pair_elemINS_9allocatorIN3olc11v2d_genericIiEEEELi1ELb1EE5__getB8ue170006Ev, symObjAddr: 0x237F0, symBinAddr: 0x1000254E0, symSize: 0x14 }
  - { offsetInCU: 0x58605, offset: 0x58605, size: 0x8, addend: 0x0, symName: __ZNKSt3__16vectorIN3olc11v2d_genericIiEENS_9allocatorIS3_EEE9__end_capB8ue170006Ev, symObjAddr: 0x23804, symBinAddr: 0x1000254F4, symSize: 0x28 }
  - { offsetInCU: 0x5862B, offset: 0x5862B, size: 0x8, addend: 0x0, symName: __ZNKSt3__117__compressed_pairIPN3olc11v2d_genericIiEENS_9allocatorIS3_EEE5firstB8ue170006Ev, symObjAddr: 0x2382C, symBinAddr: 0x10002551C, symSize: 0x24 }
  - { offsetInCU: 0x58651, offset: 0x58651, size: 0x8, addend: 0x0, symName: __ZNKSt3__122__compressed_pair_elemIPN3olc11v2d_genericIiEELi0ELb0EE5__getB8ue170006Ev, symObjAddr: 0x23850, symBinAddr: 0x100025540, symSize: 0x14 }
  - { offsetInCU: 0x58677, offset: 0x58677, size: 0x8, addend: 0x0, symName: __ZNSt3__16vectorIN3olc9LayerDescENS_9allocatorIS2_EEED2B8ue170006Ev, symObjAddr: 0x23864, symBinAddr: 0x100025554, symSize: 0x44 }
  - { offsetInCU: 0x586A1, offset: 0x586A1, size: 0x8, addend: 0x0, symName: __ZNSt3__16vectorIN3olc9LayerDescENS_9allocatorIS2_EEE16__destroy_vectorC1B8ue170006ERS5_, symObjAddr: 0x238A8, symBinAddr: 0x100025598, symSize: 0x34 }
  - { offsetInCU: 0x586DA, offset: 0x586DA, size: 0x8, addend: 0x0, symName: __ZNSt3__16vectorIN3olc9LayerDescENS_9allocatorIS2_EEE16__destroy_vectorclB8ue170006Ev, symObjAddr: 0x238DC, symBinAddr: 0x1000255CC, symSize: 0x90 }
  - { offsetInCU: 0x58700, offset: 0x58700, size: 0x8, addend: 0x0, symName: __ZNSt3__16vectorIN3olc9LayerDescENS_9allocatorIS2_EEE16__destroy_vectorC2B8ue170006ERS5_, symObjAddr: 0x2396C, symBinAddr: 0x10002565C, symSize: 0x20 }
  - { offsetInCU: 0x58739, offset: 0x58739, size: 0x8, addend: 0x0, symName: __ZNSt3__16vectorIN3olc9LayerDescENS_9allocatorIS2_EEE7__clearB8ue170006Ev, symObjAddr: 0x2398C, symBinAddr: 0x10002567C, symSize: 0x28 }
  - { offsetInCU: 0x5875F, offset: 0x5875F, size: 0x8, addend: 0x0, symName: __ZNKSt3__16vectorIN3olc9LayerDescENS_9allocatorIS2_EEE17__annotate_deleteB8ue170006Ev, symObjAddr: 0x239B4, symBinAddr: 0x1000256A4, symSize: 0xD4 }
  - { offsetInCU: 0x58785, offset: 0x58785, size: 0x8, addend: 0x0, symName: __ZNSt3__116allocator_traitsINS_9allocatorIN3olc9LayerDescEEEE10deallocateB8ue170006ERS4_PS3_m, symObjAddr: 0x23A88, symBinAddr: 0x100025778, symSize: 0x34 }
  - { offsetInCU: 0x587C7, offset: 0x587C7, size: 0x8, addend: 0x0, symName: __ZNSt3__16vectorIN3olc9LayerDescENS_9allocatorIS2_EEE7__allocB8ue170006Ev, symObjAddr: 0x23ABC, symBinAddr: 0x1000257AC, symSize: 0x28 }
  - { offsetInCU: 0x587ED, offset: 0x587ED, size: 0x8, addend: 0x0, symName: __ZNKSt3__16vectorIN3olc9LayerDescENS_9allocatorIS2_EEE8capacityB8ue170006Ev, symObjAddr: 0x23AE4, symBinAddr: 0x1000257D4, symSize: 0x40 }
  - { offsetInCU: 0x58813, offset: 0x58813, size: 0x8, addend: 0x0, symName: __ZNSt3__16vectorIN3olc9LayerDescENS_9allocatorIS2_EEE22__base_destruct_at_endB8ue170006EPS2_, symObjAddr: 0x23B24, symBinAddr: 0x100025814, symSize: 0x8C }
  - { offsetInCU: 0x58857, offset: 0x58857, size: 0x8, addend: 0x0, symName: __ZNSt3__116allocator_traitsINS_9allocatorIN3olc9LayerDescEEEE7destroyB8ue170006IS3_vvEEvRS4_PT_, symObjAddr: 0x23BB0, symBinAddr: 0x1000258A0, symSize: 0x28 }
  - { offsetInCU: 0x58892, offset: 0x58892, size: 0x8, addend: 0x0, symName: __ZNKSt3__16vectorIN3olc9LayerDescENS_9allocatorIS2_EEE31__annotate_contiguous_containerB8ue170006EPKvS7_S7_S7_, symObjAddr: 0x23C34, symBinAddr: 0x100025924, symSize: 0x20 }
  - { offsetInCU: 0x588E8, offset: 0x588E8, size: 0x8, addend: 0x0, symName: __ZNKSt3__16vectorIN3olc9LayerDescENS_9allocatorIS2_EEE4dataB8ue170006Ev, symObjAddr: 0x23C54, symBinAddr: 0x100025944, symSize: 0x28 }
  - { offsetInCU: 0x5890E, offset: 0x5890E, size: 0x8, addend: 0x0, symName: __ZNSt3__19allocatorIN3olc9LayerDescEE10deallocateB8ue170006EPS2_m, symObjAddr: 0x23C7C, symBinAddr: 0x10002596C, symSize: 0x44 }
  - { offsetInCU: 0x58950, offset: 0x58950, size: 0x8, addend: 0x0, symName: __ZNSt3__117__compressed_pairIPN3olc9LayerDescENS_9allocatorIS2_EEE6secondB8ue170006Ev, symObjAddr: 0x23CC0, symBinAddr: 0x1000259B0, symSize: 0x24 }
  - { offsetInCU: 0x58976, offset: 0x58976, size: 0x8, addend: 0x0, symName: __ZNSt3__122__compressed_pair_elemINS_9allocatorIN3olc9LayerDescEEELi1ELb1EE5__getB8ue170006Ev, symObjAddr: 0x23CE4, symBinAddr: 0x1000259D4, symSize: 0x14 }
  - { offsetInCU: 0x5899C, offset: 0x5899C, size: 0x8, addend: 0x0, symName: __ZNKSt3__16vectorIN3olc9LayerDescENS_9allocatorIS2_EEE9__end_capB8ue170006Ev, symObjAddr: 0x23CF8, symBinAddr: 0x1000259E8, symSize: 0x28 }
  - { offsetInCU: 0x589C2, offset: 0x589C2, size: 0x8, addend: 0x0, symName: __ZNKSt3__117__compressed_pairIPN3olc9LayerDescENS_9allocatorIS2_EEE5firstB8ue170006Ev, symObjAddr: 0x23D20, symBinAddr: 0x100025A10, symSize: 0x24 }
  - { offsetInCU: 0x589E8, offset: 0x589E8, size: 0x8, addend: 0x0, symName: __ZNKSt3__122__compressed_pair_elemIPN3olc9LayerDescELi0ELb0EE5__getB8ue170006Ev, symObjAddr: 0x23D44, symBinAddr: 0x100025A34, symSize: 0x14 }
  - { offsetInCU: 0x58A0E, offset: 0x58A0E, size: 0x8, addend: 0x0, symName: __ZN3olc10RenderableD2Ev, symObjAddr: 0x23D58, symBinAddr: 0x100025A48, symSize: 0x38 }
  - { offsetInCU: 0x58A3B, offset: 0x58A3B, size: 0x8, addend: 0x0, symName: __ZNSt3__16vectorIN3olc9LayerDescENS_9allocatorIS2_EEE11__make_iterB8ue170006EPS2_, symObjAddr: 0x23D90, symBinAddr: 0x100025A80, symSize: 0x30 }
  - { offsetInCU: 0x58A70, offset: 0x58A70, size: 0x8, addend: 0x0, symName: __ZNSt3__111__wrap_iterIPN3olc9LayerDescEEC1B8ue170006ES3_, symObjAddr: 0x23DC0, symBinAddr: 0x100025AB0, symSize: 0x34 }
  - { offsetInCU: 0x58AA8, offset: 0x58AA8, size: 0x8, addend: 0x0, symName: __ZNSt3__111__wrap_iterIPN3olc9LayerDescEEC2B8ue170006ES3_, symObjAddr: 0x23DF4, symBinAddr: 0x100025AE4, symSize: 0x20 }
  - { offsetInCU: 0x58AE0, offset: 0x58AE0, size: 0x8, addend: 0x0, symName: __ZNKSt3__111__wrap_iterIPN3olc9LayerDescEE4baseB8ue170006Ev, symObjAddr: 0x23E5C, symBinAddr: 0x100025B4C, symSize: 0x18 }
  - { offsetInCU: 0x58B06, offset: 0x58B06, size: 0x8, addend: 0x0, symName: __ZN3olc9LayerDescC2Ev, symObjAddr: 0x23E74, symBinAddr: 0x100025B64, symSize: 0x88 }
  - { offsetInCU: 0x58B33, offset: 0x58B33, size: 0x8, addend: 0x0, symName: __ZNSt3__16vectorIN3olc13DecalInstanceENS_9allocatorIS2_EEEC1B8ue170006Ev, symObjAddr: 0x23EFC, symBinAddr: 0x100025BEC, symSize: 0x2C }
  - { offsetInCU: 0x58B5D, offset: 0x58B5D, size: 0x8, addend: 0x0, symName: __ZNSt3__18functionIFvvEEC1B8ue170006EDn, symObjAddr: 0x23F28, symBinAddr: 0x100025C18, symSize: 0x34 }
  - { offsetInCU: 0x58B93, offset: 0x58B93, size: 0x8, addend: 0x0, symName: __ZNSt3__16vectorIN3olc13DecalInstanceENS_9allocatorIS2_EEEC2B8ue170006Ev, symObjAddr: 0x23F5C, symBinAddr: 0x100025C4C, symSize: 0x4C }
  - { offsetInCU: 0x58BBD, offset: 0x58BBD, size: 0x8, addend: 0x0, symName: __ZNSt3__117__compressed_pairIPN3olc13DecalInstanceENS_9allocatorIS2_EEEC1B8ue170006IDnNS_18__default_init_tagEEEOT_OT0_, symObjAddr: 0x23FA8, symBinAddr: 0x100025C98, symSize: 0x3C }
  - { offsetInCU: 0x58C15, offset: 0x58C15, size: 0x8, addend: 0x0, symName: __ZNSt3__117__compressed_pairIPN3olc13DecalInstanceENS_9allocatorIS2_EEEC2B8ue170006IDnNS_18__default_init_tagEEEOT_OT0_, symObjAddr: 0x23FE4, symBinAddr: 0x100025CD4, symSize: 0x40 }
  - { offsetInCU: 0x58C6D, offset: 0x58C6D, size: 0x8, addend: 0x0, symName: __ZNSt3__122__compressed_pair_elemIPN3olc13DecalInstanceELi0ELb0EEC2B8ue170006IDnvEEOT_, symObjAddr: 0x24024, symBinAddr: 0x100025D14, symSize: 0x1C }
  - { offsetInCU: 0x58CAF, offset: 0x58CAF, size: 0x8, addend: 0x0, symName: __ZNSt3__122__compressed_pair_elemINS_9allocatorIN3olc13DecalInstanceEEELi1ELb1EEC2B8ue170006ENS_18__default_init_tagE, symObjAddr: 0x24040, symBinAddr: 0x100025D30, symSize: 0x2C }
  - { offsetInCU: 0x58CE3, offset: 0x58CE3, size: 0x8, addend: 0x0, symName: __ZNSt3__19allocatorIN3olc13DecalInstanceEEC2B8ue170006Ev, symObjAddr: 0x2406C, symBinAddr: 0x100025D5C, symSize: 0x2C }
  - { offsetInCU: 0x58D0D, offset: 0x58D0D, size: 0x8, addend: 0x0, symName: __ZNSt3__116__non_trivial_ifILb1ENS_9allocatorIN3olc13DecalInstanceEEEEC2B8ue170006Ev, symObjAddr: 0x24098, symBinAddr: 0x100025D88, symSize: 0x14 }
  - { offsetInCU: 0x58D37, offset: 0x58D37, size: 0x8, addend: 0x0, symName: __ZNSt3__18functionIFvvEEC2B8ue170006EDn, symObjAddr: 0x240AC, symBinAddr: 0x100025D9C, symSize: 0x30 }
  - { offsetInCU: 0x58D6D, offset: 0x58D6D, size: 0x8, addend: 0x0, symName: __ZNSt3__110__function12__value_funcIFvvEEC1B8ue170006Ev, symObjAddr: 0x240DC, symBinAddr: 0x100025DCC, symSize: 0x2C }
  - { offsetInCU: 0x58D97, offset: 0x58D97, size: 0x8, addend: 0x0, symName: __ZNSt3__110__function12__value_funcIFvvEEC2B8ue170006Ev, symObjAddr: 0x24108, symBinAddr: 0x100025DF8, symSize: 0x18 }
  - { offsetInCU: 0x58DC1, offset: 0x58DC1, size: 0x8, addend: 0x0, symName: __ZNSt3__16vectorIN3olc9LayerDescENS_9allocatorIS2_EEE9__end_capB8ue170006Ev, symObjAddr: 0x24120, symBinAddr: 0x100025E10, symSize: 0x28 }
  - { offsetInCU: 0x58DED, offset: 0x58DED, size: 0x8, addend: 0x0, symName: __ZNSt3__16vectorIN3olc9LayerDescENS_9allocatorIS2_EEE22__construct_one_at_endB8ue170006IJS2_EEEvDpOT_, symObjAddr: 0x24148, symBinAddr: 0x100025E38, symSize: 0x90 }
  - { offsetInCU: 0x58E3C, offset: 0x58E3C, size: 0x8, addend: 0x0, symName: __ZNSt3__16vectorIN3olc9LayerDescENS_9allocatorIS2_EEE21__push_back_slow_pathIS2_EEvOT_, symObjAddr: 0x241D8, symBinAddr: 0x100025EC8, symSize: 0xD8 }
  - { offsetInCU: 0x58E9A, offset: 0x58E9A, size: 0x8, addend: 0x0, symName: __ZNSt3__117__compressed_pairIPN3olc9LayerDescENS_9allocatorIS2_EEE5firstB8ue170006Ev, symObjAddr: 0x242B0, symBinAddr: 0x100025FA0, symSize: 0x24 }
  - { offsetInCU: 0x58EC0, offset: 0x58EC0, size: 0x8, addend: 0x0, symName: __ZNSt3__122__compressed_pair_elemIPN3olc9LayerDescELi0ELb0EE5__getB8ue170006Ev, symObjAddr: 0x242D4, symBinAddr: 0x100025FC4, symSize: 0x14 }
  - { offsetInCU: 0x58EFF, offset: 0x58EFF, size: 0x8, addend: 0x0, symName: __ZNSt3__16vectorIN3olc9LayerDescENS_9allocatorIS2_EEE21_ConstructTransactionC1B8ue170006ERS5_m, symObjAddr: 0x242E8, symBinAddr: 0x100025FD8, symSize: 0x3C }
  - { offsetInCU: 0x58F47, offset: 0x58F47, size: 0x8, addend: 0x0, symName: __ZNSt3__116allocator_traitsINS_9allocatorIN3olc9LayerDescEEEE9constructB8ue170006IS3_JS3_EvvEEvRS4_PT_DpOT0_, symObjAddr: 0x24324, symBinAddr: 0x100026014, symSize: 0x30 }
  - { offsetInCU: 0x58F9C, offset: 0x58F9C, size: 0x8, addend: 0x0, symName: __ZNSt3__16vectorIN3olc9LayerDescENS_9allocatorIS2_EEE21_ConstructTransactionD1B8ue170006Ev, symObjAddr: 0x24354, symBinAddr: 0x100026044, symSize: 0x2C }
  - { offsetInCU: 0x58FC6, offset: 0x58FC6, size: 0x8, addend: 0x0, symName: __ZNSt3__16vectorIN3olc9LayerDescENS_9allocatorIS2_EEE21_ConstructTransactionC2B8ue170006ERS5_m, symObjAddr: 0x24380, symBinAddr: 0x100026070, symSize: 0x4C }
  - { offsetInCU: 0x5900E, offset: 0x5900E, size: 0x8, addend: 0x0, symName: __ZN3olc9LayerDescC1EOS0_, symObjAddr: 0x24408, symBinAddr: 0x1000260F8, symSize: 0x34 }
  - { offsetInCU: 0x59044, offset: 0x59044, size: 0x8, addend: 0x0, symName: __ZN3olc9LayerDescC2EOS0_, symObjAddr: 0x2443C, symBinAddr: 0x10002612C, symSize: 0xA8 }
  - { offsetInCU: 0x5907A, offset: 0x5907A, size: 0x8, addend: 0x0, symName: __ZN3olc10RenderableC1EOS0_, symObjAddr: 0x244E4, symBinAddr: 0x1000261D4, symSize: 0x34 }
  - { offsetInCU: 0x590B3, offset: 0x590B3, size: 0x8, addend: 0x0, symName: __ZNSt3__16vectorIN3olc13DecalInstanceENS_9allocatorIS2_EEEC1B8ue170006EOS5_, symObjAddr: 0x24518, symBinAddr: 0x100026208, symSize: 0x34 }
  - { offsetInCU: 0x590EE, offset: 0x590EE, size: 0x8, addend: 0x0, symName: __ZNSt3__18functionIFvvEEC1EOS2_, symObjAddr: 0x2454C, symBinAddr: 0x10002623C, symSize: 0x34 }
  - { offsetInCU: 0x59129, offset: 0x59129, size: 0x8, addend: 0x0, symName: __ZN3olc10RenderableC2EOS0_, symObjAddr: 0x24580, symBinAddr: 0x100026270, symSize: 0x48 }
  - { offsetInCU: 0x59162, offset: 0x59162, size: 0x8, addend: 0x0, symName: __ZNSt3__110unique_ptrIN3olc6SpriteENS_14default_deleteIS2_EEEC1B8ue170006EOS5_, symObjAddr: 0x245C8, symBinAddr: 0x1000262B8, symSize: 0x34 }
  - { offsetInCU: 0x5919A, offset: 0x5919A, size: 0x8, addend: 0x0, symName: __ZNSt3__110unique_ptrIN3olc5DecalENS_14default_deleteIS2_EEEC1B8ue170006EOS5_, symObjAddr: 0x245FC, symBinAddr: 0x1000262EC, symSize: 0x34 }
  - { offsetInCU: 0x591D2, offset: 0x591D2, size: 0x8, addend: 0x0, symName: __ZNSt3__110unique_ptrIN3olc6SpriteENS_14default_deleteIS2_EEEC2B8ue170006EOS5_, symObjAddr: 0x24630, symBinAddr: 0x100026320, symSize: 0x60 }
  - { offsetInCU: 0x5920A, offset: 0x5920A, size: 0x8, addend: 0x0, symName: __ZNSt3__110unique_ptrIN3olc6SpriteENS_14default_deleteIS2_EEE11get_deleterB8ue170006Ev, symObjAddr: 0x24690, symBinAddr: 0x100026380, symSize: 0x24 }
  - { offsetInCU: 0x5923C, offset: 0x5923C, size: 0x8, addend: 0x0, symName: __ZNSt3__117__compressed_pairIPN3olc6SpriteENS_14default_deleteIS2_EEEC1B8ue170006IS3_S5_EEOT_OT0_, symObjAddr: 0x246B4, symBinAddr: 0x1000263A4, symSize: 0x3C }
  - { offsetInCU: 0x59294, offset: 0x59294, size: 0x8, addend: 0x0, symName: __ZNSt3__117__compressed_pairIPN3olc6SpriteENS_14default_deleteIS2_EEE6secondB8ue170006Ev, symObjAddr: 0x246F0, symBinAddr: 0x1000263E0, symSize: 0x24 }
  - { offsetInCU: 0x592BA, offset: 0x592BA, size: 0x8, addend: 0x0, symName: __ZNSt3__122__compressed_pair_elemINS_14default_deleteIN3olc6SpriteEEELi1ELb1EE5__getB8ue170006Ev, symObjAddr: 0x24714, symBinAddr: 0x100026404, symSize: 0x14 }
  - { offsetInCU: 0x592E0, offset: 0x592E0, size: 0x8, addend: 0x0, symName: __ZNSt3__117__compressed_pairIPN3olc6SpriteENS_14default_deleteIS2_EEEC2B8ue170006IS3_S5_EEOT_OT0_, symObjAddr: 0x24728, symBinAddr: 0x100026418, symSize: 0x44 }
  - { offsetInCU: 0x59338, offset: 0x59338, size: 0x8, addend: 0x0, symName: __ZNSt3__122__compressed_pair_elemIPN3olc6SpriteELi0ELb0EEC2B8ue170006IS3_vEEOT_, symObjAddr: 0x2476C, symBinAddr: 0x10002645C, symSize: 0x24 }
  - { offsetInCU: 0x5937A, offset: 0x5937A, size: 0x8, addend: 0x0, symName: __ZNSt3__122__compressed_pair_elemINS_14default_deleteIN3olc6SpriteEEELi1ELb1EEC2B8ue170006IS4_vEEOT_, symObjAddr: 0x24790, symBinAddr: 0x100026480, symSize: 0x18 }
  - { offsetInCU: 0x593BC, offset: 0x593BC, size: 0x8, addend: 0x0, symName: __ZNSt3__110unique_ptrIN3olc5DecalENS_14default_deleteIS2_EEEC2B8ue170006EOS5_, symObjAddr: 0x247A8, symBinAddr: 0x100026498, symSize: 0x60 }
  - { offsetInCU: 0x593F4, offset: 0x593F4, size: 0x8, addend: 0x0, symName: __ZNSt3__110unique_ptrIN3olc5DecalENS_14default_deleteIS2_EEE7releaseB8ue170006Ev, symObjAddr: 0x24808, symBinAddr: 0x1000264F8, symSize: 0x44 }
  - { offsetInCU: 0x59429, offset: 0x59429, size: 0x8, addend: 0x0, symName: __ZNSt3__110unique_ptrIN3olc5DecalENS_14default_deleteIS2_EEE11get_deleterB8ue170006Ev, symObjAddr: 0x2484C, symBinAddr: 0x10002653C, symSize: 0x24 }
  - { offsetInCU: 0x5945B, offset: 0x5945B, size: 0x8, addend: 0x0, symName: __ZNSt3__117__compressed_pairIPN3olc5DecalENS_14default_deleteIS2_EEEC1B8ue170006IS3_S5_EEOT_OT0_, symObjAddr: 0x24870, symBinAddr: 0x100026560, symSize: 0x3C }
  - { offsetInCU: 0x594B3, offset: 0x594B3, size: 0x8, addend: 0x0, symName: __ZNSt3__117__compressed_pairIPN3olc5DecalENS_14default_deleteIS2_EEE5firstB8ue170006Ev, symObjAddr: 0x248AC, symBinAddr: 0x10002659C, symSize: 0x24 }
  - { offsetInCU: 0x594D9, offset: 0x594D9, size: 0x8, addend: 0x0, symName: __ZNSt3__122__compressed_pair_elemIPN3olc5DecalELi0ELb0EE5__getB8ue170006Ev, symObjAddr: 0x248D0, symBinAddr: 0x1000265C0, symSize: 0x14 }
  - { offsetInCU: 0x594FF, offset: 0x594FF, size: 0x8, addend: 0x0, symName: __ZNSt3__117__compressed_pairIPN3olc5DecalENS_14default_deleteIS2_EEE6secondB8ue170006Ev, symObjAddr: 0x248E4, symBinAddr: 0x1000265D4, symSize: 0x24 }
  - { offsetInCU: 0x59525, offset: 0x59525, size: 0x8, addend: 0x0, symName: __ZNSt3__122__compressed_pair_elemINS_14default_deleteIN3olc5DecalEEELi1ELb1EE5__getB8ue170006Ev, symObjAddr: 0x24908, symBinAddr: 0x1000265F8, symSize: 0x14 }
  - { offsetInCU: 0x5954B, offset: 0x5954B, size: 0x8, addend: 0x0, symName: __ZNSt3__117__compressed_pairIPN3olc5DecalENS_14default_deleteIS2_EEEC2B8ue170006IS3_S5_EEOT_OT0_, symObjAddr: 0x2491C, symBinAddr: 0x10002660C, symSize: 0x44 }
  - { offsetInCU: 0x595A3, offset: 0x595A3, size: 0x8, addend: 0x0, symName: __ZNSt3__122__compressed_pair_elemIPN3olc5DecalELi0ELb0EEC2B8ue170006IS3_vEEOT_, symObjAddr: 0x24960, symBinAddr: 0x100026650, symSize: 0x24 }
  - { offsetInCU: 0x595E5, offset: 0x595E5, size: 0x8, addend: 0x0, symName: __ZNSt3__122__compressed_pair_elemINS_14default_deleteIN3olc5DecalEEELi1ELb1EEC2B8ue170006IS4_vEEOT_, symObjAddr: 0x24984, symBinAddr: 0x100026674, symSize: 0x18 }
  - { offsetInCU: 0x59627, offset: 0x59627, size: 0x8, addend: 0x0, symName: __ZNSt3__16vectorIN3olc13DecalInstanceENS_9allocatorIS2_EEEC2B8ue170006EOS5_, symObjAddr: 0x2499C, symBinAddr: 0x10002668C, symSize: 0xC4 }
  - { offsetInCU: 0x59662, offset: 0x59662, size: 0x8, addend: 0x0, symName: __ZNSt3__16vectorIN3olc13DecalInstanceENS_9allocatorIS2_EEE7__allocB8ue170006Ev, symObjAddr: 0x24A60, symBinAddr: 0x100026750, symSize: 0x28 }
  - { offsetInCU: 0x5968E, offset: 0x5968E, size: 0x8, addend: 0x0, symName: __ZNSt3__117__compressed_pairIPN3olc13DecalInstanceENS_9allocatorIS2_EEEC1B8ue170006IDnS5_EEOT_OT0_, symObjAddr: 0x24A88, symBinAddr: 0x100026778, symSize: 0x3C }
  - { offsetInCU: 0x596E6, offset: 0x596E6, size: 0x8, addend: 0x0, symName: __ZNSt3__16vectorIN3olc13DecalInstanceENS_9allocatorIS2_EEE9__end_capB8ue170006Ev, symObjAddr: 0x24AC4, symBinAddr: 0x1000267B4, symSize: 0x28 }
  - { offsetInCU: 0x5970C, offset: 0x5970C, size: 0x8, addend: 0x0, symName: __ZNSt3__117__compressed_pairIPN3olc13DecalInstanceENS_9allocatorIS2_EEE6secondB8ue170006Ev, symObjAddr: 0x24AEC, symBinAddr: 0x1000267DC, symSize: 0x24 }
  - { offsetInCU: 0x59732, offset: 0x59732, size: 0x8, addend: 0x0, symName: __ZNSt3__122__compressed_pair_elemINS_9allocatorIN3olc13DecalInstanceEEELi1ELb1EE5__getB8ue170006Ev, symObjAddr: 0x24B10, symBinAddr: 0x100026800, symSize: 0x14 }
  - { offsetInCU: 0x59758, offset: 0x59758, size: 0x8, addend: 0x0, symName: __ZNSt3__117__compressed_pairIPN3olc13DecalInstanceENS_9allocatorIS2_EEEC2B8ue170006IDnS5_EEOT_OT0_, symObjAddr: 0x24B24, symBinAddr: 0x100026814, symSize: 0x44 }
  - { offsetInCU: 0x597B0, offset: 0x597B0, size: 0x8, addend: 0x0, symName: __ZNSt3__122__compressed_pair_elemINS_9allocatorIN3olc13DecalInstanceEEELi1ELb1EEC2B8ue170006IS4_vEEOT_, symObjAddr: 0x24B68, symBinAddr: 0x100026858, symSize: 0x18 }
  - { offsetInCU: 0x597F2, offset: 0x597F2, size: 0x8, addend: 0x0, symName: __ZNSt3__117__compressed_pairIPN3olc13DecalInstanceENS_9allocatorIS2_EEE5firstB8ue170006Ev, symObjAddr: 0x24B80, symBinAddr: 0x100026870, symSize: 0x24 }
  - { offsetInCU: 0x59818, offset: 0x59818, size: 0x8, addend: 0x0, symName: __ZNSt3__122__compressed_pair_elemIPN3olc13DecalInstanceELi0ELb0EE5__getB8ue170006Ev, symObjAddr: 0x24BA4, symBinAddr: 0x100026894, symSize: 0x14 }
  - { offsetInCU: 0x5983E, offset: 0x5983E, size: 0x8, addend: 0x0, symName: __ZNSt3__18functionIFvvEEC2EOS2_, symObjAddr: 0x24BB8, symBinAddr: 0x1000268A8, symSize: 0x34 }
  - { offsetInCU: 0x59879, offset: 0x59879, size: 0x8, addend: 0x0, symName: __ZNSt3__110__function12__value_funcIFvvEEC1B8ue170006EOS3_, symObjAddr: 0x24BEC, symBinAddr: 0x1000268DC, symSize: 0x34 }
  - { offsetInCU: 0x598B2, offset: 0x598B2, size: 0x8, addend: 0x0, symName: __ZNSt3__110__function12__value_funcIFvvEEC2B8ue170006EOS3_, symObjAddr: 0x24C20, symBinAddr: 0x100026910, symSize: 0xD0 }
  - { offsetInCU: 0x598EB, offset: 0x598EB, size: 0x8, addend: 0x0, symName: __ZNSt3__110__function12__value_funcIFvvEE9__as_baseB8ue170006EPv, symObjAddr: 0x24CF0, symBinAddr: 0x1000269E0, symSize: 0x14 }
  - { offsetInCU: 0x5990F, offset: 0x5990F, size: 0x8, addend: 0x0, symName: __ZNSt3__16vectorIN3olc9LayerDescENS_9allocatorIS2_EEE21_ConstructTransactionD2B8ue170006Ev, symObjAddr: 0x24D04, symBinAddr: 0x1000269F4, symSize: 0x20 }
  - { offsetInCU: 0x59939, offset: 0x59939, size: 0x8, addend: 0x0, symName: __ZNKSt3__16vectorIN3olc9LayerDescENS_9allocatorIS2_EEE11__recommendB8ue170006Em, symObjAddr: 0x24D24, symBinAddr: 0x100026A14, symSize: 0xB4 }
  - { offsetInCU: 0x5998E, offset: 0x5998E, size: 0x8, addend: 0x0, symName: __ZNSt3__114__split_bufferIN3olc9LayerDescERNS_9allocatorIS2_EEEC1EmmS5_, symObjAddr: 0x24DD8, symBinAddr: 0x100026AC8, symSize: 0x44 }
  - { offsetInCU: 0x599E4, offset: 0x599E4, size: 0x8, addend: 0x0, symName: __ZNSt3__114__split_bufferIN3olc9LayerDescERNS_9allocatorIS2_EEED1Ev, symObjAddr: 0x24F2C, symBinAddr: 0x100026C1C, symSize: 0x2C }
  - { offsetInCU: 0x59A10, offset: 0x59A10, size: 0x8, addend: 0x0, symName: __ZNKSt3__16vectorIN3olc9LayerDescENS_9allocatorIS2_EEE8max_sizeEv, symObjAddr: 0x24F58, symBinAddr: 0x100026C48, symSize: 0x60 }
  - { offsetInCU: 0x59A38, offset: 0x59A38, size: 0x8, addend: 0x0, symName: __ZNKSt3__16vectorIN3olc9LayerDescENS_9allocatorIS2_EEE20__throw_length_errorB8ue170006Ev, symObjAddr: 0x24FB8, symBinAddr: 0x100026CA8, symSize: 0x1C }
  - { offsetInCU: 0x59A68, offset: 0x59A68, size: 0x8, addend: 0x0, symName: __ZNSt3__116allocator_traitsINS_9allocatorIN3olc9LayerDescEEEE8max_sizeB8ue170006IS4_vvEEmRKS4_, symObjAddr: 0x24FD4, symBinAddr: 0x100026CC4, symSize: 0x28 }
  - { offsetInCU: 0x59A94, offset: 0x59A94, size: 0x8, addend: 0x0, symName: __ZNKSt3__16vectorIN3olc9LayerDescENS_9allocatorIS2_EEE7__allocB8ue170006Ev, symObjAddr: 0x24FFC, symBinAddr: 0x100026CEC, symSize: 0x28 }
  - { offsetInCU: 0x59ABA, offset: 0x59ABA, size: 0x8, addend: 0x0, symName: __ZNKSt3__117__compressed_pairIPN3olc9LayerDescENS_9allocatorIS2_EEE6secondB8ue170006Ev, symObjAddr: 0x25024, symBinAddr: 0x100026D14, symSize: 0x24 }
  - { offsetInCU: 0x59AE0, offset: 0x59AE0, size: 0x8, addend: 0x0, symName: __ZNKSt3__122__compressed_pair_elemINS_9allocatorIN3olc9LayerDescEEELi1ELb1EE5__getB8ue170006Ev, symObjAddr: 0x25048, symBinAddr: 0x100026D38, symSize: 0x14 }
  - { offsetInCU: 0x59B06, offset: 0x59B06, size: 0x8, addend: 0x0, symName: __ZNSt3__114__split_bufferIN3olc9LayerDescERNS_9allocatorIS2_EEEC2EmmS5_, symObjAddr: 0x2505C, symBinAddr: 0x100026D4C, symSize: 0xE0 }
  - { offsetInCU: 0x59B7A, offset: 0x59B7A, size: 0x8, addend: 0x0, symName: __ZNSt3__117__compressed_pairIPN3olc9LayerDescERNS_9allocatorIS2_EEEC1B8ue170006IDnS6_EEOT_OT0_, symObjAddr: 0x2513C, symBinAddr: 0x100026E2C, symSize: 0x3C }
  - { offsetInCU: 0x59BD2, offset: 0x59BD2, size: 0x8, addend: 0x0, symName: __ZNSt3__114__split_bufferIN3olc9LayerDescERNS_9allocatorIS2_EEE7__allocB8ue170006Ev, symObjAddr: 0x251B8, symBinAddr: 0x100026EA8, symSize: 0x28 }
  - { offsetInCU: 0x59BF8, offset: 0x59BF8, size: 0x8, addend: 0x0, symName: __ZNSt3__114__split_bufferIN3olc9LayerDescERNS_9allocatorIS2_EEE9__end_capB8ue170006Ev, symObjAddr: 0x251E0, symBinAddr: 0x100026ED0, symSize: 0x28 }
  - { offsetInCU: 0x59C1E, offset: 0x59C1E, size: 0x8, addend: 0x0, symName: __ZNSt3__117__compressed_pairIPN3olc9LayerDescERNS_9allocatorIS2_EEEC2B8ue170006IDnS6_EEOT_OT0_, symObjAddr: 0x25208, symBinAddr: 0x100026EF8, symSize: 0x48 }
  - { offsetInCU: 0x59C76, offset: 0x59C76, size: 0x8, addend: 0x0, symName: __ZNSt3__122__compressed_pair_elemIRNS_9allocatorIN3olc9LayerDescEEELi1ELb0EEC2B8ue170006IS5_vEEOT_, symObjAddr: 0x25250, symBinAddr: 0x100026F40, symSize: 0x20 }
  - { offsetInCU: 0x59CB8, offset: 0x59CB8, size: 0x8, addend: 0x0, symName: __ZNSt3__19allocatorIN3olc9LayerDescEE8allocateB8ue170006Em, symObjAddr: 0x25270, symBinAddr: 0x100026F60, symSize: 0x5C }
  - { offsetInCU: 0x59CEC, offset: 0x59CEC, size: 0x8, addend: 0x0, symName: __ZNSt3__117__compressed_pairIPN3olc9LayerDescERNS_9allocatorIS2_EEE6secondB8ue170006Ev, symObjAddr: 0x252CC, symBinAddr: 0x100026FBC, symSize: 0x28 }
  - { offsetInCU: 0x59D12, offset: 0x59D12, size: 0x8, addend: 0x0, symName: __ZNSt3__122__compressed_pair_elemIRNS_9allocatorIN3olc9LayerDescEEELi1ELb0EE5__getB8ue170006Ev, symObjAddr: 0x252F4, symBinAddr: 0x100026FE4, symSize: 0x18 }
  - { offsetInCU: 0x59D38, offset: 0x59D38, size: 0x8, addend: 0x0, symName: __ZNSt3__117__compressed_pairIPN3olc9LayerDescERNS_9allocatorIS2_EEE5firstB8ue170006Ev, symObjAddr: 0x2530C, symBinAddr: 0x100026FFC, symSize: 0x24 }
  - { offsetInCU: 0x59D5E, offset: 0x59D5E, size: 0x8, addend: 0x0, symName: __ZNSt3__116reverse_iteratorIPN3olc9LayerDescEEC1B8ue170006ES3_, symObjAddr: 0x2545C, symBinAddr: 0x10002714C, symSize: 0x34 }
  - { offsetInCU: 0x59D96, offset: 0x59D96, size: 0x8, addend: 0x0, symName: __ZNKSt3__116reverse_iteratorIPN3olc9LayerDescEE4baseB8ue170006Ev, symObjAddr: 0x25490, symBinAddr: 0x100027180, symSize: 0x18 }
  - { offsetInCU: 0x59DBC, offset: 0x59DBC, size: 0x8, addend: 0x0, symName: __ZNKSt3__16vectorIN3olc9LayerDescENS_9allocatorIS2_EEE14__annotate_newB8ue170006Em, symObjAddr: 0x254E4, symBinAddr: 0x1000271D4, symSize: 0xC8 }
  - { offsetInCU: 0x59DF1, offset: 0x59DF1, size: 0x8, addend: 0x0, symName: __ZNSt3__129_AllocatorDestroyRangeReverseINS_9allocatorIN3olc9LayerDescEEENS_16reverse_iteratorIPS3_EEEC1B8ue170006ERS4_RS7_SA_, symObjAddr: 0x255F8, symBinAddr: 0x1000272E8, symSize: 0x44 }
  - { offsetInCU: 0x59E48, offset: 0x59E48, size: 0x8, addend: 0x0, symName: __ZNKSt3__116reverse_iteratorIPN3olc9LayerDescEEdeB8ue170006Ev, symObjAddr: 0x256A8, symBinAddr: 0x100027398, symSize: 0x28 }
  - { offsetInCU: 0x59E7D, offset: 0x59E7D, size: 0x8, addend: 0x0, symName: __ZNSt3__116reverse_iteratorIPN3olc9LayerDescEEppB8ue170006Ev, symObjAddr: 0x256D0, symBinAddr: 0x1000273C0, symSize: 0x20 }
  - { offsetInCU: 0x59EA3, offset: 0x59EA3, size: 0x8, addend: 0x0, symName: __ZNSt3__128__exception_guard_exceptionsINS_29_AllocatorDestroyRangeReverseINS_9allocatorIN3olc9LayerDescEEENS_16reverse_iteratorIPS4_EEEEE10__completeB8ue170006Ev, symObjAddr: 0x256F0, symBinAddr: 0x1000273E0, symSize: 0x1C }
  - { offsetInCU: 0x59EC9, offset: 0x59EC9, size: 0x8, addend: 0x0, symName: __ZNSt3__128__exception_guard_exceptionsINS_29_AllocatorDestroyRangeReverseINS_9allocatorIN3olc9LayerDescEEENS_16reverse_iteratorIPS4_EEEEED1B8ue170006Ev, symObjAddr: 0x2570C, symBinAddr: 0x1000273FC, symSize: 0x2C }
  - { offsetInCU: 0x59EF3, offset: 0x59EF3, size: 0x8, addend: 0x0, symName: __ZNSt3__128__exception_guard_exceptionsINS_29_AllocatorDestroyRangeReverseINS_9allocatorIN3olc9LayerDescEEENS_16reverse_iteratorIPS4_EEEEEC1B8ue170006ES9_, symObjAddr: 0x25738, symBinAddr: 0x100027428, symSize: 0x34 }
  - { offsetInCU: 0x59F2C, offset: 0x59F2C, size: 0x8, addend: 0x0, symName: __ZNSt3__128__exception_guard_exceptionsINS_29_AllocatorDestroyRangeReverseINS_9allocatorIN3olc9LayerDescEEENS_16reverse_iteratorIPS4_EEEEEC2B8ue170006ES9_, symObjAddr: 0x2576C, symBinAddr: 0x10002745C, symSize: 0x30 }
  - { offsetInCU: 0x59F65, offset: 0x59F65, size: 0x8, addend: 0x0, symName: __ZNSt3__129_AllocatorDestroyRangeReverseINS_9allocatorIN3olc9LayerDescEEENS_16reverse_iteratorIPS3_EEEC2B8ue170006ERS4_RS7_SA_, symObjAddr: 0x2579C, symBinAddr: 0x10002748C, symSize: 0x38 }
  - { offsetInCU: 0x59FC1, offset: 0x59FC1, size: 0x8, addend: 0x0, symName: __ZNSt3__119__to_address_helperINS_16reverse_iteratorIPN3olc9LayerDescEEEvE6__callB8ue170006ERKS5_, symObjAddr: 0x257D4, symBinAddr: 0x1000274C4, symSize: 0x38 }
  - { offsetInCU: 0x59FE4, offset: 0x59FE4, size: 0x8, addend: 0x0, symName: __ZNKSt3__116reverse_iteratorIPN3olc9LayerDescEEptB8ue170006Ev, symObjAddr: 0x2580C, symBinAddr: 0x1000274FC, symSize: 0x2C }
  - { offsetInCU: 0x5A00A, offset: 0x5A00A, size: 0x8, addend: 0x0, symName: __ZNSt3__128__exception_guard_exceptionsINS_29_AllocatorDestroyRangeReverseINS_9allocatorIN3olc9LayerDescEEENS_16reverse_iteratorIPS4_EEEEED2B8ue170006Ev, symObjAddr: 0x258F0, symBinAddr: 0x1000275E0, symSize: 0x50 }
  - { offsetInCU: 0x5A034, offset: 0x5A034, size: 0x8, addend: 0x0, symName: __ZNKSt3__129_AllocatorDestroyRangeReverseINS_9allocatorIN3olc9LayerDescEEENS_16reverse_iteratorIPS3_EEEclB8ue170006Ev, symObjAddr: 0x25940, symBinAddr: 0x100027630, symSize: 0xB4 }
  - { offsetInCU: 0x5A05B, offset: 0x5A05B, size: 0x8, addend: 0x0, symName: __ZNSt3__116reverse_iteratorINS0_IPN3olc9LayerDescEEEEC1B8ue170006ES4_, symObjAddr: 0x25A64, symBinAddr: 0x100027754, symSize: 0x3C }
  - { offsetInCU: 0x5A093, offset: 0x5A093, size: 0x8, addend: 0x0, symName: __ZNSt3__116reverse_iteratorINS0_IPN3olc9LayerDescEEEEppB8ue170006Ev, symObjAddr: 0x25B24, symBinAddr: 0x100027814, symSize: 0x30 }
  - { offsetInCU: 0x5A0B9, offset: 0x5A0B9, size: 0x8, addend: 0x0, symName: __ZNKSt3__116reverse_iteratorINS0_IPN3olc9LayerDescEEEE4baseB8ue170006Ev, symObjAddr: 0x25B54, symBinAddr: 0x100027844, symSize: 0x24 }
  - { offsetInCU: 0x5A0E4, offset: 0x5A0E4, size: 0x8, addend: 0x0, symName: __ZNSt3__119__to_address_helperINS_16reverse_iteratorINS1_IPN3olc9LayerDescEEEEEvE6__callB8ue170006ERKS6_, symObjAddr: 0x25B78, symBinAddr: 0x100027868, symSize: 0x38 }
  - { offsetInCU: 0x5A107, offset: 0x5A107, size: 0x8, addend: 0x0, symName: __ZNKSt3__116reverse_iteratorINS0_IPN3olc9LayerDescEEEEptB8ue170006Ev, symObjAddr: 0x25BB0, symBinAddr: 0x1000278A0, symSize: 0x4C }
  - { offsetInCU: 0x5A12D, offset: 0x5A12D, size: 0x8, addend: 0x0, symName: __ZNSt3__116reverse_iteratorIPN3olc9LayerDescEEpLB8ue170006El, symObjAddr: 0x25CAC, symBinAddr: 0x10002799C, symSize: 0x30 }
  - { offsetInCU: 0x5A161, offset: 0x5A161, size: 0x8, addend: 0x0, symName: __ZNSt3__116reverse_iteratorIPN3olc9LayerDescEEmmB8ue170006Ev, symObjAddr: 0x25CDC, symBinAddr: 0x1000279CC, symSize: 0x20 }
  - { offsetInCU: 0x5A187, offset: 0x5A187, size: 0x8, addend: 0x0, symName: __ZNSt3__116reverse_iteratorINS0_IPN3olc9LayerDescEEEEC2B8ue170006ES4_, symObjAddr: 0x25CFC, symBinAddr: 0x1000279EC, symSize: 0x2C }
  - { offsetInCU: 0x5A1BF, offset: 0x5A1BF, size: 0x8, addend: 0x0, symName: __ZNSt3__116reverse_iteratorIPN3olc9LayerDescEEC2B8ue170006ES3_, symObjAddr: 0x25D28, symBinAddr: 0x100027A18, symSize: 0x28 }
  - { offsetInCU: 0x5A1F7, offset: 0x5A1F7, size: 0x8, addend: 0x0, symName: __ZNSt3__114__split_bufferIN3olc9LayerDescERNS_9allocatorIS2_EEED2Ev, symObjAddr: 0x25D50, symBinAddr: 0x100027A40, symSize: 0x8C }
  - { offsetInCU: 0x5A223, offset: 0x5A223, size: 0x8, addend: 0x0, symName: __ZNSt3__114__split_bufferIN3olc9LayerDescERNS_9allocatorIS2_EEE5clearB8ue170006Ev, symObjAddr: 0x25DDC, symBinAddr: 0x100027ACC, symSize: 0x28 }
  - { offsetInCU: 0x5A249, offset: 0x5A249, size: 0x8, addend: 0x0, symName: __ZNKSt3__114__split_bufferIN3olc9LayerDescERNS_9allocatorIS2_EEE8capacityB8ue170006Ev, symObjAddr: 0x25E04, symBinAddr: 0x100027AF4, symSize: 0x40 }
  - { offsetInCU: 0x5A26F, offset: 0x5A26F, size: 0x8, addend: 0x0, symName: __ZNSt3__114__split_bufferIN3olc9LayerDescERNS_9allocatorIS2_EEE17__destruct_at_endB8ue170006EPS2_, symObjAddr: 0x25E44, symBinAddr: 0x100027B34, symSize: 0x2C }
  - { offsetInCU: 0x5A2A3, offset: 0x5A2A3, size: 0x8, addend: 0x0, symName: __ZNSt3__114__split_bufferIN3olc9LayerDescERNS_9allocatorIS2_EEE17__destruct_at_endB8ue170006EPS2_NS_17integral_constantIbLb0EEE, symObjAddr: 0x25E70, symBinAddr: 0x100027B60, symSize: 0x80 }
  - { offsetInCU: 0x5A2E3, offset: 0x5A2E3, size: 0x8, addend: 0x0, symName: __ZNKSt3__114__split_bufferIN3olc9LayerDescERNS_9allocatorIS2_EEE9__end_capB8ue170006Ev, symObjAddr: 0x25EF0, symBinAddr: 0x100027BE0, symSize: 0x28 }
  - { offsetInCU: 0x5A309, offset: 0x5A309, size: 0x8, addend: 0x0, symName: __ZNKSt3__117__compressed_pairIPN3olc9LayerDescERNS_9allocatorIS2_EEE5firstB8ue170006Ev, symObjAddr: 0x25F18, symBinAddr: 0x100027C08, symSize: 0x24 }
  - { offsetInCU: 0x5A32F, offset: 0x5A32F, size: 0x8, addend: 0x0, symName: __ZN3olc9LayerDescD2Ev, symObjAddr: 0x25F3C, symBinAddr: 0x100027C2C, symSize: 0x48 }
  - { offsetInCU: 0x5A35C, offset: 0x5A35C, size: 0x8, addend: 0x0, symName: __ZNSt3__18functionIFvvEED1Ev, symObjAddr: 0x25F84, symBinAddr: 0x100027C74, symSize: 0x2C }
  - { offsetInCU: 0x5A388, offset: 0x5A388, size: 0x8, addend: 0x0, symName: __ZNSt3__16vectorIN3olc13DecalInstanceENS_9allocatorIS2_EEED1B8ue170006Ev, symObjAddr: 0x25FB0, symBinAddr: 0x100027CA0, symSize: 0x2C }
  - { offsetInCU: 0x5A3B2, offset: 0x5A3B2, size: 0x8, addend: 0x0, symName: __ZNSt3__18functionIFvvEED2Ev, symObjAddr: 0x25FDC, symBinAddr: 0x100027CCC, symSize: 0x2C }
  - { offsetInCU: 0x5A3DE, offset: 0x5A3DE, size: 0x8, addend: 0x0, symName: __ZNSt3__110__function12__value_funcIFvvEED1B8ue170006Ev, symObjAddr: 0x26008, symBinAddr: 0x100027CF8, symSize: 0x2C }
  - { offsetInCU: 0x5A408, offset: 0x5A408, size: 0x8, addend: 0x0, symName: __ZNSt3__110__function12__value_funcIFvvEED2B8ue170006Ev, symObjAddr: 0x26034, symBinAddr: 0x100027D24, symSize: 0x90 }
  - { offsetInCU: 0x5A432, offset: 0x5A432, size: 0x8, addend: 0x0, symName: __ZNSt3__16vectorIN3olc13DecalInstanceENS_9allocatorIS2_EEED2B8ue170006Ev, symObjAddr: 0x260C4, symBinAddr: 0x100027DB4, symSize: 0x44 }
  - { offsetInCU: 0x5A45C, offset: 0x5A45C, size: 0x8, addend: 0x0, symName: __ZNSt3__16vectorIN3olc13DecalInstanceENS_9allocatorIS2_EEE16__destroy_vectorC1B8ue170006ERS5_, symObjAddr: 0x26108, symBinAddr: 0x100027DF8, symSize: 0x34 }
  - { offsetInCU: 0x5A495, offset: 0x5A495, size: 0x8, addend: 0x0, symName: __ZNSt3__16vectorIN3olc13DecalInstanceENS_9allocatorIS2_EEE16__destroy_vectorclB8ue170006Ev, symObjAddr: 0x2613C, symBinAddr: 0x100027E2C, symSize: 0x90 }
  - { offsetInCU: 0x5A4BB, offset: 0x5A4BB, size: 0x8, addend: 0x0, symName: __ZNSt3__16vectorIN3olc13DecalInstanceENS_9allocatorIS2_EEE16__destroy_vectorC2B8ue170006ERS5_, symObjAddr: 0x261CC, symBinAddr: 0x100027EBC, symSize: 0x20 }
  - { offsetInCU: 0x5A4F4, offset: 0x5A4F4, size: 0x8, addend: 0x0, symName: __ZNSt3__16vectorIN3olc13DecalInstanceENS_9allocatorIS2_EEE7__clearB8ue170006Ev, symObjAddr: 0x261EC, symBinAddr: 0x100027EDC, symSize: 0x28 }
  - { offsetInCU: 0x5A51A, offset: 0x5A51A, size: 0x8, addend: 0x0, symName: __ZNKSt3__16vectorIN3olc13DecalInstanceENS_9allocatorIS2_EEE17__annotate_deleteB8ue170006Ev, symObjAddr: 0x26214, symBinAddr: 0x100027F04, symSize: 0xD4 }
  - { offsetInCU: 0x5A540, offset: 0x5A540, size: 0x8, addend: 0x0, symName: __ZNSt3__116allocator_traitsINS_9allocatorIN3olc13DecalInstanceEEEE10deallocateB8ue170006ERS4_PS3_m, symObjAddr: 0x262E8, symBinAddr: 0x100027FD8, symSize: 0x34 }
  - { offsetInCU: 0x5A582, offset: 0x5A582, size: 0x8, addend: 0x0, symName: __ZNKSt3__16vectorIN3olc13DecalInstanceENS_9allocatorIS2_EEE8capacityB8ue170006Ev, symObjAddr: 0x2631C, symBinAddr: 0x10002800C, symSize: 0x40 }
  - { offsetInCU: 0x5A5A8, offset: 0x5A5A8, size: 0x8, addend: 0x0, symName: __ZNSt3__16vectorIN3olc13DecalInstanceENS_9allocatorIS2_EEE22__base_destruct_at_endB8ue170006EPS2_, symObjAddr: 0x2635C, symBinAddr: 0x10002804C, symSize: 0x8C }
  - { offsetInCU: 0x5A5EC, offset: 0x5A5EC, size: 0x8, addend: 0x0, symName: __ZNSt3__116allocator_traitsINS_9allocatorIN3olc13DecalInstanceEEEE7destroyB8ue170006IS3_vvEEvRS4_PT_, symObjAddr: 0x263E8, symBinAddr: 0x1000280D8, symSize: 0x28 }
  - { offsetInCU: 0x5A627, offset: 0x5A627, size: 0x8, addend: 0x0, symName: __ZNKSt3__16vectorIN3olc13DecalInstanceENS_9allocatorIS2_EEE31__annotate_contiguous_containerB8ue170006EPKvS7_S7_S7_, symObjAddr: 0x2646C, symBinAddr: 0x10002815C, symSize: 0x20 }
  - { offsetInCU: 0x5A67D, offset: 0x5A67D, size: 0x8, addend: 0x0, symName: __ZNKSt3__16vectorIN3olc13DecalInstanceENS_9allocatorIS2_EEE4dataB8ue170006Ev, symObjAddr: 0x2648C, symBinAddr: 0x10002817C, symSize: 0x28 }
  - { offsetInCU: 0x5A6A3, offset: 0x5A6A3, size: 0x8, addend: 0x0, symName: __ZNKSt3__16vectorIN3olc13DecalInstanceENS_9allocatorIS2_EEE4sizeB8ue170006Ev, symObjAddr: 0x264B4, symBinAddr: 0x1000281A4, symSize: 0x28 }
  - { offsetInCU: 0x5A6C9, offset: 0x5A6C9, size: 0x8, addend: 0x0, symName: __ZNSt3__19allocatorIN3olc13DecalInstanceEE10deallocateB8ue170006EPS2_m, symObjAddr: 0x264DC, symBinAddr: 0x1000281CC, symSize: 0x44 }
  - { offsetInCU: 0x5A70B, offset: 0x5A70B, size: 0x8, addend: 0x0, symName: __ZNKSt3__16vectorIN3olc13DecalInstanceENS_9allocatorIS2_EEE9__end_capB8ue170006Ev, symObjAddr: 0x26520, symBinAddr: 0x100028210, symSize: 0x28 }
  - { offsetInCU: 0x5A731, offset: 0x5A731, size: 0x8, addend: 0x0, symName: __ZNKSt3__117__compressed_pairIPN3olc13DecalInstanceENS_9allocatorIS2_EEE5firstB8ue170006Ev, symObjAddr: 0x26548, symBinAddr: 0x100028238, symSize: 0x24 }
  - { offsetInCU: 0x5A757, offset: 0x5A757, size: 0x8, addend: 0x0, symName: __ZNKSt3__122__compressed_pair_elemIPN3olc13DecalInstanceELi0ELb0EE5__getB8ue170006Ev, symObjAddr: 0x2656C, symBinAddr: 0x10002825C, symSize: 0x14 }
  - { offsetInCU: 0x5A77D, offset: 0x5A77D, size: 0x8, addend: 0x0, symName: __ZNSt3__16vectorIN3olc11v2d_genericIfEENS_9allocatorIS3_EEEC2B8ue170006ESt16initializer_listIS3_E, symObjAddr: 0x26580, symBinAddr: 0x100028270, symSize: 0x120 }
  - { offsetInCU: 0x5A7CE, offset: 0x5A7CE, size: 0x8, addend: 0x0, symName: __ZNSt3__117__compressed_pairIPN3olc11v2d_genericIfEENS_9allocatorIS3_EEEC1B8ue170006IDnNS_18__default_init_tagEEEOT_OT0_, symObjAddr: 0x266A0, symBinAddr: 0x100028390, symSize: 0x3C }
  - { offsetInCU: 0x5A826, offset: 0x5A826, size: 0x8, addend: 0x0, symName: __ZNSt3__16vectorIN3olc11v2d_genericIfEENS_9allocatorIS3_EEE16__destroy_vectorC1B8ue170006ERS6_, symObjAddr: 0x2671C, symBinAddr: 0x10002840C, symSize: 0x34 }
  - { offsetInCU: 0x5A85F, offset: 0x5A85F, size: 0x8, addend: 0x0, symName: __ZNKSt16initializer_listIN3olc11v2d_genericIfEEE4sizeB8ue170006Ev, symObjAddr: 0x26750, symBinAddr: 0x100028440, symSize: 0x18 }
  - { offsetInCU: 0x5A885, offset: 0x5A885, size: 0x8, addend: 0x0, symName: __ZNSt3__16vectorIN3olc11v2d_genericIfEENS_9allocatorIS3_EEE11__vallocateB8ue170006Em, symObjAddr: 0x26768, symBinAddr: 0x100028458, symSize: 0xAC }
  - { offsetInCU: 0x5A8C9, offset: 0x5A8C9, size: 0x8, addend: 0x0, symName: __ZNSt3__16vectorIN3olc11v2d_genericIfEENS_9allocatorIS3_EEE18__construct_at_endIPKS3_S9_EEvT_T0_m, symObjAddr: 0x26814, symBinAddr: 0x100028504, symSize: 0x8C }
  - { offsetInCU: 0x5A93F, offset: 0x5A93F, size: 0x8, addend: 0x0, symName: __ZNKSt16initializer_listIN3olc11v2d_genericIfEEE5beginB8ue170006Ev, symObjAddr: 0x268A0, symBinAddr: 0x100028590, symSize: 0x18 }
  - { offsetInCU: 0x5A965, offset: 0x5A965, size: 0x8, addend: 0x0, symName: __ZNKSt16initializer_listIN3olc11v2d_genericIfEEE3endB8ue170006Ev, symObjAddr: 0x268B8, symBinAddr: 0x1000285A8, symSize: 0x20 }
  - { offsetInCU: 0x5A98B, offset: 0x5A98B, size: 0x8, addend: 0x0, symName: __ZNSt3__128__exception_guard_exceptionsINS_6vectorIN3olc11v2d_genericIfEENS_9allocatorIS4_EEE16__destroy_vectorEE10__completeB8ue170006Ev, symObjAddr: 0x268D8, symBinAddr: 0x1000285C8, symSize: 0x1C }
  - { offsetInCU: 0x5A9B1, offset: 0x5A9B1, size: 0x8, addend: 0x0, symName: __ZNSt3__128__exception_guard_exceptionsINS_6vectorIN3olc11v2d_genericIfEENS_9allocatorIS4_EEE16__destroy_vectorEED1B8ue170006Ev, symObjAddr: 0x268F4, symBinAddr: 0x1000285E4, symSize: 0x2C }
  - { offsetInCU: 0x5A9DB, offset: 0x5A9DB, size: 0x8, addend: 0x0, symName: __ZNSt3__117__compressed_pairIPN3olc11v2d_genericIfEENS_9allocatorIS3_EEEC2B8ue170006IDnNS_18__default_init_tagEEEOT_OT0_, symObjAddr: 0x26920, symBinAddr: 0x100028610, symSize: 0x40 }
  - { offsetInCU: 0x5AA33, offset: 0x5AA33, size: 0x8, addend: 0x0, symName: __ZNSt3__122__compressed_pair_elemIPN3olc11v2d_genericIfEELi0ELb0EEC2B8ue170006IDnvEEOT_, symObjAddr: 0x26960, symBinAddr: 0x100028650, symSize: 0x1C }
  - { offsetInCU: 0x5AA75, offset: 0x5AA75, size: 0x8, addend: 0x0, symName: __ZNSt3__122__compressed_pair_elemINS_9allocatorIN3olc11v2d_genericIfEEEELi1ELb1EEC2B8ue170006ENS_18__default_init_tagE, symObjAddr: 0x2697C, symBinAddr: 0x10002866C, symSize: 0x2C }
  - { offsetInCU: 0x5AAA9, offset: 0x5AAA9, size: 0x8, addend: 0x0, symName: __ZNSt3__19allocatorIN3olc11v2d_genericIfEEEC2B8ue170006Ev, symObjAddr: 0x269A8, symBinAddr: 0x100028698, symSize: 0x2C }
  - { offsetInCU: 0x5AAD3, offset: 0x5AAD3, size: 0x8, addend: 0x0, symName: __ZNSt3__116__non_trivial_ifILb1ENS_9allocatorIN3olc11v2d_genericIfEEEEEC2B8ue170006Ev, symObjAddr: 0x269D4, symBinAddr: 0x1000286C4, symSize: 0x14 }
  - { offsetInCU: 0x5AAFD, offset: 0x5AAFD, size: 0x8, addend: 0x0, symName: __ZNSt3__128__exception_guard_exceptionsINS_6vectorIN3olc11v2d_genericIfEENS_9allocatorIS4_EEE16__destroy_vectorEEC1B8ue170006ES8_, symObjAddr: 0x269E8, symBinAddr: 0x1000286D8, symSize: 0x34 }
  - { offsetInCU: 0x5AB35, offset: 0x5AB35, size: 0x8, addend: 0x0, symName: __ZNSt3__128__exception_guard_exceptionsINS_6vectorIN3olc11v2d_genericIfEENS_9allocatorIS4_EEE16__destroy_vectorEEC2B8ue170006ES8_, symObjAddr: 0x26A1C, symBinAddr: 0x10002870C, symSize: 0x24 }
  - { offsetInCU: 0x5AB6D, offset: 0x5AB6D, size: 0x8, addend: 0x0, symName: __ZNSt3__16vectorIN3olc11v2d_genericIfEENS_9allocatorIS3_EEE16__destroy_vectorC2B8ue170006ERS6_, symObjAddr: 0x26A40, symBinAddr: 0x100028730, symSize: 0x20 }
  - { offsetInCU: 0x5ABA6, offset: 0x5ABA6, size: 0x8, addend: 0x0, symName: __ZNKSt3__16vectorIN3olc11v2d_genericIfEENS_9allocatorIS3_EEE8max_sizeEv, symObjAddr: 0x26A60, symBinAddr: 0x100028750, symSize: 0x60 }
  - { offsetInCU: 0x5ABCE, offset: 0x5ABCE, size: 0x8, addend: 0x0, symName: __ZNKSt3__16vectorIN3olc11v2d_genericIfEENS_9allocatorIS3_EEE20__throw_length_errorB8ue170006Ev, symObjAddr: 0x26AC0, symBinAddr: 0x1000287B0, symSize: 0x1C }
  - { offsetInCU: 0x5ABF4, offset: 0x5ABF4, size: 0x8, addend: 0x0, symName: __ZNSt3__16vectorIN3olc11v2d_genericIfEENS_9allocatorIS3_EEE7__allocB8ue170006Ev, symObjAddr: 0x26B1C, symBinAddr: 0x10002880C, symSize: 0x28 }
  - { offsetInCU: 0x5AC1A, offset: 0x5AC1A, size: 0x8, addend: 0x0, symName: __ZNSt3__16vectorIN3olc11v2d_genericIfEENS_9allocatorIS3_EEE9__end_capB8ue170006Ev, symObjAddr: 0x26B44, symBinAddr: 0x100028834, symSize: 0x28 }
  - { offsetInCU: 0x5AC40, offset: 0x5AC40, size: 0x8, addend: 0x0, symName: __ZNKSt3__16vectorIN3olc11v2d_genericIfEENS_9allocatorIS3_EEE14__annotate_newB8ue170006Em, symObjAddr: 0x26B6C, symBinAddr: 0x10002885C, symSize: 0xAC }
  - { offsetInCU: 0x5AC7F, offset: 0x5AC7F, size: 0x8, addend: 0x0, symName: __ZNSt3__116allocator_traitsINS_9allocatorIN3olc11v2d_genericIfEEEEE8max_sizeB8ue170006IS5_vvEEmRKS5_, symObjAddr: 0x26C18, symBinAddr: 0x100028908, symSize: 0x28 }
  - { offsetInCU: 0x5ACAB, offset: 0x5ACAB, size: 0x8, addend: 0x0, symName: __ZNKSt3__16vectorIN3olc11v2d_genericIfEENS_9allocatorIS3_EEE7__allocB8ue170006Ev, symObjAddr: 0x26C40, symBinAddr: 0x100028930, symSize: 0x28 }
  - { offsetInCU: 0x5ACD1, offset: 0x5ACD1, size: 0x8, addend: 0x0, symName: __ZNKSt3__117__compressed_pairIPN3olc11v2d_genericIfEENS_9allocatorIS3_EEE6secondB8ue170006Ev, symObjAddr: 0x26C68, symBinAddr: 0x100028958, symSize: 0x24 }
  - { offsetInCU: 0x5ACF7, offset: 0x5ACF7, size: 0x8, addend: 0x0, symName: __ZNKSt3__122__compressed_pair_elemINS_9allocatorIN3olc11v2d_genericIfEEEELi1ELb1EE5__getB8ue170006Ev, symObjAddr: 0x26C8C, symBinAddr: 0x10002897C, symSize: 0x14 }
  - { offsetInCU: 0x5AD1D, offset: 0x5AD1D, size: 0x8, addend: 0x0, symName: __ZNSt3__19allocatorIN3olc11v2d_genericIfEEE8allocateB8ue170006Em, symObjAddr: 0x26CA0, symBinAddr: 0x100028990, symSize: 0x58 }
  - { offsetInCU: 0x5AD51, offset: 0x5AD51, size: 0x8, addend: 0x0, symName: __ZNSt3__117__compressed_pairIPN3olc11v2d_genericIfEENS_9allocatorIS3_EEE6secondB8ue170006Ev, symObjAddr: 0x26CF8, symBinAddr: 0x1000289E8, symSize: 0x24 }
  - { offsetInCU: 0x5AD77, offset: 0x5AD77, size: 0x8, addend: 0x0, symName: __ZNSt3__122__compressed_pair_elemINS_9allocatorIN3olc11v2d_genericIfEEEELi1ELb1EE5__getB8ue170006Ev, symObjAddr: 0x26D1C, symBinAddr: 0x100028A0C, symSize: 0x14 }
  - { offsetInCU: 0x5AD9D, offset: 0x5AD9D, size: 0x8, addend: 0x0, symName: __ZNSt3__117__compressed_pairIPN3olc11v2d_genericIfEENS_9allocatorIS3_EEE5firstB8ue170006Ev, symObjAddr: 0x26D30, symBinAddr: 0x100028A20, symSize: 0x24 }
  - { offsetInCU: 0x5ADC3, offset: 0x5ADC3, size: 0x8, addend: 0x0, symName: __ZNSt3__122__compressed_pair_elemIPN3olc11v2d_genericIfEELi0ELb0EE5__getB8ue170006Ev, symObjAddr: 0x26D54, symBinAddr: 0x100028A44, symSize: 0x14 }
  - { offsetInCU: 0x5ADE9, offset: 0x5ADE9, size: 0x8, addend: 0x0, symName: __ZNKSt3__16vectorIN3olc11v2d_genericIfEENS_9allocatorIS3_EEE31__annotate_contiguous_containerB8ue170006EPKvS8_S8_S8_, symObjAddr: 0x26D68, symBinAddr: 0x100028A58, symSize: 0x20 }
  - { offsetInCU: 0x5AE3F, offset: 0x5AE3F, size: 0x8, addend: 0x0, symName: __ZNKSt3__16vectorIN3olc11v2d_genericIfEENS_9allocatorIS3_EEE4dataB8ue170006Ev, symObjAddr: 0x26D88, symBinAddr: 0x100028A78, symSize: 0x28 }
  - { offsetInCU: 0x5AE65, offset: 0x5AE65, size: 0x8, addend: 0x0, symName: __ZNKSt3__16vectorIN3olc11v2d_genericIfEENS_9allocatorIS3_EEE8capacityB8ue170006Ev, symObjAddr: 0x26DB0, symBinAddr: 0x100028AA0, symSize: 0x40 }
  - { offsetInCU: 0x5AE8B, offset: 0x5AE8B, size: 0x8, addend: 0x0, symName: __ZNKSt3__16vectorIN3olc11v2d_genericIfEENS_9allocatorIS3_EEE9__end_capB8ue170006Ev, symObjAddr: 0x26E04, symBinAddr: 0x100028AF4, symSize: 0x28 }
  - { offsetInCU: 0x5AEB1, offset: 0x5AEB1, size: 0x8, addend: 0x0, symName: __ZNKSt3__117__compressed_pairIPN3olc11v2d_genericIfEENS_9allocatorIS3_EEE5firstB8ue170006Ev, symObjAddr: 0x26E2C, symBinAddr: 0x100028B1C, symSize: 0x24 }
  - { offsetInCU: 0x5AED7, offset: 0x5AED7, size: 0x8, addend: 0x0, symName: __ZNKSt3__122__compressed_pair_elemIPN3olc11v2d_genericIfEELi0ELb0EE5__getB8ue170006Ev, symObjAddr: 0x26E50, symBinAddr: 0x100028B40, symSize: 0x14 }
  - { offsetInCU: 0x5AF16, offset: 0x5AF16, size: 0x8, addend: 0x0, symName: __ZNSt3__16vectorIN3olc11v2d_genericIfEENS_9allocatorIS3_EEE21_ConstructTransactionC1B8ue170006ERS6_m, symObjAddr: 0x26E64, symBinAddr: 0x100028B54, symSize: 0x3C }
  - { offsetInCU: 0x5AF5E, offset: 0x5AF5E, size: 0x8, addend: 0x0, symName: __ZNSt3__16vectorIN3olc11v2d_genericIfEENS_9allocatorIS3_EEE21_ConstructTransactionD1B8ue170006Ev, symObjAddr: 0x26F20, symBinAddr: 0x100028C10, symSize: 0x2C }
  - { offsetInCU: 0x5AF88, offset: 0x5AF88, size: 0x8, addend: 0x0, symName: __ZNSt3__16vectorIN3olc11v2d_genericIfEENS_9allocatorIS3_EEE21_ConstructTransactionC2B8ue170006ERS6_m, symObjAddr: 0x26F4C, symBinAddr: 0x100028C3C, symSize: 0x44 }
  - { offsetInCU: 0x5AFEA, offset: 0x5AFEA, size: 0x8, addend: 0x0, symName: __ZNSt3__119__unwrap_range_implIPKN3olc11v2d_genericIfEES5_E8__unwrapB8ue170006ES5_S5_, symObjAddr: 0x27120, symBinAddr: 0x100028E10, symSize: 0x58 }
  - { offsetInCU: 0x5B021, offset: 0x5B021, size: 0x8, addend: 0x0, symName: __ZNSt3__14pairIPKN3olc11v2d_genericIfEES5_EC1B8ue170006IS5_S5_LPv0EEEOT_OT0_, symObjAddr: 0x2719C, symBinAddr: 0x100028E8C, symSize: 0x3C }
  - { offsetInCU: 0x5B07F, offset: 0x5B07F, size: 0x8, addend: 0x0, symName: __ZNSt3__118__unwrap_iter_implIPKN3olc11v2d_genericIfEELb1EE8__unwrapB8ue170006ES5_, symObjAddr: 0x271D8, symBinAddr: 0x100028EC8, symSize: 0x24 }
  - { offsetInCU: 0x5B0A2, offset: 0x5B0A2, size: 0x8, addend: 0x0, symName: __ZNSt3__14pairIPKN3olc11v2d_genericIfEES5_EC2B8ue170006IS5_S5_LPv0EEEOT_OT0_, symObjAddr: 0x27210, symBinAddr: 0x100028F00, symSize: 0x34 }
  - { offsetInCU: 0x5B100, offset: 0x5B100, size: 0x8, addend: 0x0, symName: __ZNSt3__129_AllocatorDestroyRangeReverseINS_9allocatorIN3olc11v2d_genericIfEEEEPS4_EC1B8ue170006ERS5_RS6_S9_, symObjAddr: 0x27290, symBinAddr: 0x100028F80, symSize: 0x44 }
  - { offsetInCU: 0x5B157, offset: 0x5B157, size: 0x8, addend: 0x0, symName: __ZNSt3__116allocator_traitsINS_9allocatorIN3olc11v2d_genericIfEEEEE9constructB8ue170006IS4_JRKS4_EvvEEvRS5_PT_DpOT0_, symObjAddr: 0x272D4, symBinAddr: 0x100028FC4, symSize: 0x30 }
  - { offsetInCU: 0x5B1AC, offset: 0x5B1AC, size: 0x8, addend: 0x0, symName: __ZNSt3__128__exception_guard_exceptionsINS_29_AllocatorDestroyRangeReverseINS_9allocatorIN3olc11v2d_genericIfEEEEPS5_EEE10__completeB8ue170006Ev, symObjAddr: 0x27304, symBinAddr: 0x100028FF4, symSize: 0x1C }
  - { offsetInCU: 0x5B1D2, offset: 0x5B1D2, size: 0x8, addend: 0x0, symName: __ZNSt3__128__exception_guard_exceptionsINS_29_AllocatorDestroyRangeReverseINS_9allocatorIN3olc11v2d_genericIfEEEEPS5_EEED1B8ue170006Ev, symObjAddr: 0x27320, symBinAddr: 0x100029010, symSize: 0x2C }
  - { offsetInCU: 0x5B1FC, offset: 0x5B1FC, size: 0x8, addend: 0x0, symName: __ZNSt3__128__exception_guard_exceptionsINS_29_AllocatorDestroyRangeReverseINS_9allocatorIN3olc11v2d_genericIfEEEEPS5_EEEC1B8ue170006ES8_, symObjAddr: 0x2734C, symBinAddr: 0x10002903C, symSize: 0x34 }
  - { offsetInCU: 0x5B235, offset: 0x5B235, size: 0x8, addend: 0x0, symName: __ZNSt3__128__exception_guard_exceptionsINS_29_AllocatorDestroyRangeReverseINS_9allocatorIN3olc11v2d_genericIfEEEEPS5_EEEC2B8ue170006ES8_, symObjAddr: 0x27380, symBinAddr: 0x100029070, symSize: 0x30 }
  - { offsetInCU: 0x5B26E, offset: 0x5B26E, size: 0x8, addend: 0x0, symName: __ZNSt3__129_AllocatorDestroyRangeReverseINS_9allocatorIN3olc11v2d_genericIfEEEEPS4_EC2B8ue170006ERS5_RS6_S9_, symObjAddr: 0x273B0, symBinAddr: 0x1000290A0, symSize: 0x38 }
  - { offsetInCU: 0x5B2C5, offset: 0x5B2C5, size: 0x8, addend: 0x0, symName: __ZNSt3__128__exception_guard_exceptionsINS_29_AllocatorDestroyRangeReverseINS_9allocatorIN3olc11v2d_genericIfEEEEPS5_EEED2B8ue170006Ev, symObjAddr: 0x27424, symBinAddr: 0x100029114, symSize: 0x50 }
  - { offsetInCU: 0x5B2EF, offset: 0x5B2EF, size: 0x8, addend: 0x0, symName: __ZNKSt3__129_AllocatorDestroyRangeReverseINS_9allocatorIN3olc11v2d_genericIfEEEEPS4_EclB8ue170006Ev, symObjAddr: 0x27474, symBinAddr: 0x100029164, symSize: 0x68 }
  - { offsetInCU: 0x5B315, offset: 0x5B315, size: 0x8, addend: 0x0, symName: __ZNSt3__116reverse_iteratorIPN3olc11v2d_genericIfEEEC1B8ue170006ES4_, symObjAddr: 0x2754C, symBinAddr: 0x10002923C, symSize: 0x34 }
  - { offsetInCU: 0x5B34D, offset: 0x5B34D, size: 0x8, addend: 0x0, symName: __ZNSt3__116allocator_traitsINS_9allocatorIN3olc11v2d_genericIfEEEEE7destroyB8ue170006IS4_vvEEvRS5_PT_, symObjAddr: 0x275C8, symBinAddr: 0x1000292B8, symSize: 0x28 }
  - { offsetInCU: 0x5B388, offset: 0x5B388, size: 0x8, addend: 0x0, symName: __ZNSt3__116reverse_iteratorIPN3olc11v2d_genericIfEEEppB8ue170006Ev, symObjAddr: 0x27614, symBinAddr: 0x100029304, symSize: 0x20 }
  - { offsetInCU: 0x5B3AE, offset: 0x5B3AE, size: 0x8, addend: 0x0, symName: __ZNKSt3__116reverse_iteratorIPN3olc11v2d_genericIfEEE4baseB8ue170006Ev, symObjAddr: 0x27634, symBinAddr: 0x100029324, symSize: 0x18 }
  - { offsetInCU: 0x5B3D9, offset: 0x5B3D9, size: 0x8, addend: 0x0, symName: __ZNSt3__119__to_address_helperINS_16reverse_iteratorIPN3olc11v2d_genericIfEEEEvE6__callB8ue170006ERKS6_, symObjAddr: 0x27680, symBinAddr: 0x100029370, symSize: 0x38 }
  - { offsetInCU: 0x5B3FC, offset: 0x5B3FC, size: 0x8, addend: 0x0, symName: __ZNKSt3__116reverse_iteratorIPN3olc11v2d_genericIfEEEptB8ue170006Ev, symObjAddr: 0x276B8, symBinAddr: 0x1000293A8, symSize: 0x2C }
  - { offsetInCU: 0x5B422, offset: 0x5B422, size: 0x8, addend: 0x0, symName: __ZNSt3__116reverse_iteratorIPN3olc11v2d_genericIfEEEC2B8ue170006ES4_, symObjAddr: 0x27780, symBinAddr: 0x100029470, symSize: 0x28 }
  - { offsetInCU: 0x5B45A, offset: 0x5B45A, size: 0x8, addend: 0x0, symName: __ZNSt3__118__unwrap_iter_implIPN3olc11v2d_genericIfEELb1EE8__unwrapB8ue170006ES4_, symObjAddr: 0x277A8, symBinAddr: 0x100029498, symSize: 0x24 }
  - { offsetInCU: 0x5B47D, offset: 0x5B47D, size: 0x8, addend: 0x0, symName: __ZNSt3__118__unwrap_iter_implIPN3olc11v2d_genericIfEELb1EE8__rewrapB8ue170006ES4_S4_, symObjAddr: 0x277CC, symBinAddr: 0x1000294BC, symSize: 0x50 }
  - { offsetInCU: 0x5B4AE, offset: 0x5B4AE, size: 0x8, addend: 0x0, symName: __ZNSt3__16vectorIN3olc11v2d_genericIfEENS_9allocatorIS3_EEE21_ConstructTransactionD2B8ue170006Ev, symObjAddr: 0x2781C, symBinAddr: 0x10002950C, symSize: 0x20 }
  - { offsetInCU: 0x5B4D8, offset: 0x5B4D8, size: 0x8, addend: 0x0, symName: __ZNSt3__128__exception_guard_exceptionsINS_6vectorIN3olc11v2d_genericIfEENS_9allocatorIS4_EEE16__destroy_vectorEED2B8ue170006Ev, symObjAddr: 0x2783C, symBinAddr: 0x10002952C, symSize: 0x50 }
  - { offsetInCU: 0x5B502, offset: 0x5B502, size: 0x8, addend: 0x0, symName: __ZNSt3__16vectorIN3olc11v2d_genericIfEENS_9allocatorIS3_EEE16__destroy_vectorclB8ue170006Ev, symObjAddr: 0x2788C, symBinAddr: 0x10002957C, symSize: 0x90 }
  - { offsetInCU: 0x5B528, offset: 0x5B528, size: 0x8, addend: 0x0, symName: __ZNSt3__16vectorIN3olc11v2d_genericIfEENS_9allocatorIS3_EEE7__clearB8ue170006Ev, symObjAddr: 0x2791C, symBinAddr: 0x10002960C, symSize: 0x28 }
  - { offsetInCU: 0x5B54E, offset: 0x5B54E, size: 0x8, addend: 0x0, symName: __ZNKSt3__16vectorIN3olc11v2d_genericIfEENS_9allocatorIS3_EEE17__annotate_deleteB8ue170006Ev, symObjAddr: 0x27944, symBinAddr: 0x100029634, symSize: 0xB8 }
  - { offsetInCU: 0x5B574, offset: 0x5B574, size: 0x8, addend: 0x0, symName: __ZNSt3__116allocator_traitsINS_9allocatorIN3olc11v2d_genericIfEEEEE10deallocateB8ue170006ERS5_PS4_m, symObjAddr: 0x279FC, symBinAddr: 0x1000296EC, symSize: 0x34 }
  - { offsetInCU: 0x5B5B6, offset: 0x5B5B6, size: 0x8, addend: 0x0, symName: __ZNSt3__16vectorIN3olc11v2d_genericIfEENS_9allocatorIS3_EEE22__base_destruct_at_endB8ue170006EPS3_, symObjAddr: 0x27A30, symBinAddr: 0x100029720, symSize: 0x8C }
  - { offsetInCU: 0x5B5FA, offset: 0x5B5FA, size: 0x8, addend: 0x0, symName: __ZNSt3__19allocatorIN3olc11v2d_genericIfEEE10deallocateB8ue170006EPS3_m, symObjAddr: 0x27ABC, symBinAddr: 0x1000297AC, symSize: 0x40 }
  - { offsetInCU: 0x5B63C, offset: 0x5B63C, size: 0x8, addend: 0x0, symName: __ZNSt3__16vectorIN3olc5PixelENS_9allocatorIS2_EEEC2B8ue170006ESt16initializer_listIS2_E, symObjAddr: 0x27AFC, symBinAddr: 0x1000297EC, symSize: 0x120 }
  - { offsetInCU: 0x5B68D, offset: 0x5B68D, size: 0x8, addend: 0x0, symName: __ZNKSt16initializer_listIN3olc5PixelEE4sizeB8ue170006Ev, symObjAddr: 0x27C5C, symBinAddr: 0x10002994C, symSize: 0x18 }
  - { offsetInCU: 0x5B6B3, offset: 0x5B6B3, size: 0x8, addend: 0x0, symName: __ZNSt3__16vectorIN3olc5PixelENS_9allocatorIS2_EEE11__vallocateB8ue170006Em, symObjAddr: 0x27C74, symBinAddr: 0x100029964, symSize: 0xAC }
  - { offsetInCU: 0x5B6F7, offset: 0x5B6F7, size: 0x8, addend: 0x0, symName: __ZNSt3__16vectorIN3olc5PixelENS_9allocatorIS2_EEE18__construct_at_endIPKS2_S8_EEvT_T0_m, symObjAddr: 0x27D20, symBinAddr: 0x100029A10, symSize: 0x8C }
  - { offsetInCU: 0x5B76D, offset: 0x5B76D, size: 0x8, addend: 0x0, symName: __ZNKSt16initializer_listIN3olc5PixelEE5beginB8ue170006Ev, symObjAddr: 0x27DAC, symBinAddr: 0x100029A9C, symSize: 0x18 }
  - { offsetInCU: 0x5B793, offset: 0x5B793, size: 0x8, addend: 0x0, symName: __ZNKSt16initializer_listIN3olc5PixelEE3endB8ue170006Ev, symObjAddr: 0x27DC4, symBinAddr: 0x100029AB4, symSize: 0x20 }
  - { offsetInCU: 0x5B7B9, offset: 0x5B7B9, size: 0x8, addend: 0x0, symName: __ZNSt3__128__exception_guard_exceptionsINS_6vectorIN3olc5PixelENS_9allocatorIS3_EEE16__destroy_vectorEE10__completeB8ue170006Ev, symObjAddr: 0x27DE4, symBinAddr: 0x100029AD4, symSize: 0x1C }
  - { offsetInCU: 0x5B7DF, offset: 0x5B7DF, size: 0x8, addend: 0x0, symName: __ZNSt3__128__exception_guard_exceptionsINS_6vectorIN3olc5PixelENS_9allocatorIS3_EEE16__destroy_vectorEED1B8ue170006Ev, symObjAddr: 0x27E00, symBinAddr: 0x100029AF0, symSize: 0x2C }
  - { offsetInCU: 0x5B809, offset: 0x5B809, size: 0x8, addend: 0x0, symName: __ZNSt3__128__exception_guard_exceptionsINS_6vectorIN3olc5PixelENS_9allocatorIS3_EEE16__destroy_vectorEEC1B8ue170006ES7_, symObjAddr: 0x27E2C, symBinAddr: 0x100029B1C, symSize: 0x34 }
  - { offsetInCU: 0x5B841, offset: 0x5B841, size: 0x8, addend: 0x0, symName: __ZNSt3__128__exception_guard_exceptionsINS_6vectorIN3olc5PixelENS_9allocatorIS3_EEE16__destroy_vectorEEC2B8ue170006ES7_, symObjAddr: 0x27E60, symBinAddr: 0x100029B50, symSize: 0x24 }
  - { offsetInCU: 0x5B893, offset: 0x5B893, size: 0x8, addend: 0x0, symName: __ZNSt3__119__unwrap_range_implIPKN3olc5PixelES4_E8__unwrapB8ue170006ES4_S4_, symObjAddr: 0x27FD8, symBinAddr: 0x100029CC8, symSize: 0x58 }
  - { offsetInCU: 0x5B8CA, offset: 0x5B8CA, size: 0x8, addend: 0x0, symName: __ZNSt3__14pairIPKN3olc5PixelES4_EC1B8ue170006IS4_S4_LPv0EEEOT_OT0_, symObjAddr: 0x28054, symBinAddr: 0x100029D44, symSize: 0x3C }
  - { offsetInCU: 0x5B928, offset: 0x5B928, size: 0x8, addend: 0x0, symName: __ZNSt3__118__unwrap_iter_implIPKN3olc5PixelELb1EE8__unwrapB8ue170006ES4_, symObjAddr: 0x28090, symBinAddr: 0x100029D80, symSize: 0x24 }
  - { offsetInCU: 0x5B94B, offset: 0x5B94B, size: 0x8, addend: 0x0, symName: __ZNSt3__14pairIPKN3olc5PixelES4_EC2B8ue170006IS4_S4_LPv0EEEOT_OT0_, symObjAddr: 0x280C8, symBinAddr: 0x100029DB8, symSize: 0x34 }
  - { offsetInCU: 0x5B9C3, offset: 0x5B9C3, size: 0x8, addend: 0x0, symName: __ZNKSt3__114__copy_trivialclB8ue170006IKN3olc5PixelES3_Li0EEENS_4pairIPT_PT0_EES7_S7_S9_, symObjAddr: 0x28278, symBinAddr: 0x100029F68, symSize: 0x48 }
  - { offsetInCU: 0x5BA36, offset: 0x5BA36, size: 0x8, addend: 0x0, symName: __ZNSt3__14pairIPKN3olc5PixelEPS2_EC1B8ue170006IRS4_S5_LPv0EEEOT_OT0_, symObjAddr: 0x28440, symBinAddr: 0x10002A130, symSize: 0x3C }
  - { offsetInCU: 0x5BA94, offset: 0x5BA94, size: 0x8, addend: 0x0, symName: __ZNSt3__14pairIPKN3olc5PixelEPS2_EC2B8ue170006IRS4_S5_LPv0EEEOT_OT0_, symObjAddr: 0x2847C, symBinAddr: 0x10002A16C, symSize: 0x34 }
  - { offsetInCU: 0x5BAF2, offset: 0x5BAF2, size: 0x8, addend: 0x0, symName: __ZNSt3__14pairIPKN3olc5PixelEPS2_EC1B8ue170006IS4_S5_LPv0EEEOT_OT0_, symObjAddr: 0x284B0, symBinAddr: 0x10002A1A0, symSize: 0x3C }
  - { offsetInCU: 0x5BB50, offset: 0x5BB50, size: 0x8, addend: 0x0, symName: __ZNSt3__14pairIPKN3olc5PixelEPS2_EC2B8ue170006IS4_S5_LPv0EEEOT_OT0_, symObjAddr: 0x284EC, symBinAddr: 0x10002A1DC, symSize: 0x34 }
  - { offsetInCU: 0x5BBAE, offset: 0x5BBAE, size: 0x8, addend: 0x0, symName: __ZNSt3__119__unwrap_range_implIPKN3olc5PixelES4_E8__rewrapB8ue170006ES4_S4_, symObjAddr: 0x28520, symBinAddr: 0x10002A210, symSize: 0x2C }
  - { offsetInCU: 0x5BBDF, offset: 0x5BBDF, size: 0x8, addend: 0x0, symName: __ZNSt3__118__unwrap_iter_implIPKN3olc5PixelELb1EE8__rewrapB8ue170006ES4_S4_, symObjAddr: 0x28588, symBinAddr: 0x10002A278, symSize: 0x50 }
  - { offsetInCU: 0x5BC10, offset: 0x5BC10, size: 0x8, addend: 0x0, symName: __ZNSt3__118__unwrap_iter_implIPN3olc5PixelELb1EE8__unwrapB8ue170006ES3_, symObjAddr: 0x285D8, symBinAddr: 0x10002A2C8, symSize: 0x24 }
  - { offsetInCU: 0x5BC33, offset: 0x5BC33, size: 0x8, addend: 0x0, symName: __ZNSt3__118__unwrap_iter_implIPN3olc5PixelELb1EE8__rewrapB8ue170006ES3_S3_, symObjAddr: 0x285FC, symBinAddr: 0x10002A2EC, symSize: 0x50 }
  - { offsetInCU: 0x5BC64, offset: 0x5BC64, size: 0x8, addend: 0x0, symName: __ZNSt3__128__exception_guard_exceptionsINS_6vectorIN3olc5PixelENS_9allocatorIS3_EEE16__destroy_vectorEED2B8ue170006Ev, symObjAddr: 0x2864C, symBinAddr: 0x10002A33C, symSize: 0x48 }
  - { offsetInCU: 0x5BC8E, offset: 0x5BC8E, size: 0x8, addend: 0x0, symName: __ZNSt3__16vectorIN3olc11v2d_genericIfEENS_9allocatorIS3_EEEC2ERKS6_, symObjAddr: 0x28694, symBinAddr: 0x10002A384, symSize: 0x94 }
  - { offsetInCU: 0x5BCC9, offset: 0x5BCC9, size: 0x8, addend: 0x0, symName: __ZNSt3__116allocator_traitsINS_9allocatorIN3olc11v2d_genericIfEEEEE37select_on_container_copy_constructionB8ue170006IS5_vvEES5_RKS5_, symObjAddr: 0x28728, symBinAddr: 0x10002A418, symSize: 0x10 }
  - { offsetInCU: 0x5BCFE, offset: 0x5BCFE, size: 0x8, addend: 0x0, symName: __ZNSt3__117__compressed_pairIPN3olc11v2d_genericIfEENS_9allocatorIS3_EEEC1B8ue170006IDnS6_EEOT_OT0_, symObjAddr: 0x28738, symBinAddr: 0x10002A428, symSize: 0x3C }
  - { offsetInCU: 0x5BD56, offset: 0x5BD56, size: 0x8, addend: 0x0, symName: __ZNSt3__16vectorIN3olc11v2d_genericIfEENS_9allocatorIS3_EEE16__init_with_sizeB8ue170006IPS3_S8_EEvT_T0_m, symObjAddr: 0x28774, symBinAddr: 0x10002A464, symSize: 0xB8 }
  - { offsetInCU: 0x5BDCA, offset: 0x5BDCA, size: 0x8, addend: 0x0, symName: __ZNSt3__117__compressed_pairIPN3olc11v2d_genericIfEENS_9allocatorIS3_EEEC2B8ue170006IDnS6_EEOT_OT0_, symObjAddr: 0x2882C, symBinAddr: 0x10002A51C, symSize: 0x44 }
  - { offsetInCU: 0x5BE22, offset: 0x5BE22, size: 0x8, addend: 0x0, symName: __ZNSt3__122__compressed_pair_elemINS_9allocatorIN3olc11v2d_genericIfEEEELi1ELb1EEC2B8ue170006IS5_vEEOT_, symObjAddr: 0x28870, symBinAddr: 0x10002A560, symSize: 0x18 }
  - { offsetInCU: 0x5BE64, offset: 0x5BE64, size: 0x8, addend: 0x0, symName: __ZNSt3__16vectorIN3olc11v2d_genericIfEENS_9allocatorIS3_EEE18__construct_at_endIPS3_S8_EEvT_T0_m, symObjAddr: 0x28888, symBinAddr: 0x10002A578, symSize: 0x8C }
  - { offsetInCU: 0x5BEF4, offset: 0x5BEF4, size: 0x8, addend: 0x0, symName: __ZNSt3__119__unwrap_range_implIPN3olc11v2d_genericIfEES4_E8__unwrapB8ue170006ES4_S4_, symObjAddr: 0x28AC4, symBinAddr: 0x10002A7B4, symSize: 0x58 }
  - { offsetInCU: 0x5BF2B, offset: 0x5BF2B, size: 0x8, addend: 0x0, symName: __ZNSt3__14pairIPN3olc11v2d_genericIfEES4_EC1B8ue170006IS4_S4_LPv0EEEOT_OT0_, symObjAddr: 0x28B1C, symBinAddr: 0x10002A80C, symSize: 0x3C }
  - { offsetInCU: 0x5BF89, offset: 0x5BF89, size: 0x8, addend: 0x0, symName: __ZNSt3__14pairIPN3olc11v2d_genericIfEES4_EC2B8ue170006IS4_S4_LPv0EEEOT_OT0_, symObjAddr: 0x28B58, symBinAddr: 0x10002A848, symSize: 0x34 }
  - { offsetInCU: 0x5BFE7, offset: 0x5BFE7, size: 0x8, addend: 0x0, symName: __ZNSt3__116allocator_traitsINS_9allocatorIN3olc11v2d_genericIfEEEEE9constructB8ue170006IS4_JRS4_EvvEEvRS5_PT_DpOT0_, symObjAddr: 0x28B8C, symBinAddr: 0x10002A87C, symSize: 0x30 }
  - { offsetInCU: 0x5C03C, offset: 0x5C03C, size: 0x8, addend: 0x0, symName: __ZNSt3__16vectorIN3olc5PixelENS_9allocatorIS2_EEEC2ERKS5_, symObjAddr: 0x28BF8, symBinAddr: 0x10002A8E8, symSize: 0x94 }
  - { offsetInCU: 0x5C077, offset: 0x5C077, size: 0x8, addend: 0x0, symName: __ZNSt3__116allocator_traitsINS_9allocatorIN3olc5PixelEEEE37select_on_container_copy_constructionB8ue170006IS4_vvEES4_RKS4_, symObjAddr: 0x28C8C, symBinAddr: 0x10002A97C, symSize: 0x10 }
  - { offsetInCU: 0x5C0AC, offset: 0x5C0AC, size: 0x8, addend: 0x0, symName: __ZNSt3__117__compressed_pairIPN3olc5PixelENS_9allocatorIS2_EEEC1B8ue170006IDnS5_EEOT_OT0_, symObjAddr: 0x28C9C, symBinAddr: 0x10002A98C, symSize: 0x3C }
  - { offsetInCU: 0x5C104, offset: 0x5C104, size: 0x8, addend: 0x0, symName: __ZNSt3__16vectorIN3olc5PixelENS_9allocatorIS2_EEE16__init_with_sizeB8ue170006IPS2_S7_EEvT_T0_m, symObjAddr: 0x28CD8, symBinAddr: 0x10002A9C8, symSize: 0xB8 }
  - { offsetInCU: 0x5C178, offset: 0x5C178, size: 0x8, addend: 0x0, symName: __ZNSt3__117__compressed_pairIPN3olc5PixelENS_9allocatorIS2_EEEC2B8ue170006IDnS5_EEOT_OT0_, symObjAddr: 0x28D90, symBinAddr: 0x10002AA80, symSize: 0x44 }
  - { offsetInCU: 0x5C1D0, offset: 0x5C1D0, size: 0x8, addend: 0x0, symName: __ZNSt3__122__compressed_pair_elemINS_9allocatorIN3olc5PixelEEELi1ELb1EEC2B8ue170006IS4_vEEOT_, symObjAddr: 0x28DD4, symBinAddr: 0x10002AAC4, symSize: 0x18 }
  - { offsetInCU: 0x5C212, offset: 0x5C212, size: 0x8, addend: 0x0, symName: __ZNSt3__16vectorIN3olc5PixelENS_9allocatorIS2_EEE18__construct_at_endIPS2_S7_EEvT_T0_m, symObjAddr: 0x28DEC, symBinAddr: 0x10002AADC, symSize: 0x8C }
  - { offsetInCU: 0x5C2A2, offset: 0x5C2A2, size: 0x8, addend: 0x0, symName: __ZNSt3__119__unwrap_range_implIPN3olc5PixelES3_E8__unwrapB8ue170006ES3_S3_, symObjAddr: 0x28F6C, symBinAddr: 0x10002AC5C, symSize: 0x58 }
  - { offsetInCU: 0x5C2D3, offset: 0x5C2D3, size: 0x8, addend: 0x0, symName: __ZNSt3__14pairIPN3olc5PixelES3_EC1B8ue170006IS3_S3_LPv0EEEOT_OT0_, symObjAddr: 0x28FC4, symBinAddr: 0x10002ACB4, symSize: 0x3C }
  - { offsetInCU: 0x5C331, offset: 0x5C331, size: 0x8, addend: 0x0, symName: __ZNSt3__14pairIPN3olc5PixelES3_EC2B8ue170006IS3_S3_LPv0EEEOT_OT0_, symObjAddr: 0x29000, symBinAddr: 0x10002ACF0, symSize: 0x34 }
  - { offsetInCU: 0x5C38F, offset: 0x5C38F, size: 0x8, addend: 0x0, symName: __ZNKSt3__114__copy_trivialclB8ue170006IN3olc5PixelES3_Li0EEENS_4pairIPT_PT0_EES6_S6_S8_, symObjAddr: 0x291B0, symBinAddr: 0x10002AEA0, symSize: 0x48 }
  - { offsetInCU: 0x5C3F7, offset: 0x5C3F7, size: 0x8, addend: 0x0, symName: __ZNSt3__14pairIPN3olc5PixelES3_EC1B8ue170006IRS3_S3_LPv0EEEOT_OT0_, symObjAddr: 0x29378, symBinAddr: 0x10002B068, symSize: 0x3C }
  - { offsetInCU: 0x5C455, offset: 0x5C455, size: 0x8, addend: 0x0, symName: __ZNSt3__14pairIPN3olc5PixelES3_EC2B8ue170006IRS3_S3_LPv0EEEOT_OT0_, symObjAddr: 0x293B4, symBinAddr: 0x10002B0A4, symSize: 0x34 }
  - { offsetInCU: 0x5C4B3, offset: 0x5C4B3, size: 0x8, addend: 0x0, symName: __ZNSt3__119__unwrap_range_implIPN3olc5PixelES3_E8__rewrapB8ue170006ES3_S3_, symObjAddr: 0x293E8, symBinAddr: 0x10002B0D8, symSize: 0x2C }
  - { offsetInCU: 0x5C4E4, offset: 0x5C4E4, size: 0x8, addend: 0x0, symName: __ZNSt3__16vectorIN3olc11v2d_genericIfEENS_9allocatorIS3_EEED2B8ue170006Ev, symObjAddr: 0x29414, symBinAddr: 0x10002B104, symSize: 0x40 }
  - { offsetInCU: 0x5C50E, offset: 0x5C50E, size: 0x8, addend: 0x0, symName: __ZN3olc13DecalInstanceC2Ev, symObjAddr: 0x29454, symBinAddr: 0x10002B144, symSize: 0x68 }
  - { offsetInCU: 0x5C53B, offset: 0x5C53B, size: 0x8, addend: 0x0, symName: __ZNSt3__16vectorIN3olc11v2d_genericIfEENS_9allocatorIS3_EEEC1B8ue170006Ev, symObjAddr: 0x294BC, symBinAddr: 0x10002B1AC, symSize: 0x2C }
  - { offsetInCU: 0x5C565, offset: 0x5C565, size: 0x8, addend: 0x0, symName: __ZNSt3__16vectorIfNS_9allocatorIfEEEC1B8ue170006Ev, symObjAddr: 0x294E8, symBinAddr: 0x10002B1D8, symSize: 0x2C }
  - { offsetInCU: 0x5C58F, offset: 0x5C58F, size: 0x8, addend: 0x0, symName: __ZNSt3__16vectorIN3olc11v2d_genericIfEENS_9allocatorIS3_EEEC2B8ue170006Ev, symObjAddr: 0x29514, symBinAddr: 0x10002B204, symSize: 0x4C }
  - { offsetInCU: 0x5C5B9, offset: 0x5C5B9, size: 0x8, addend: 0x0, symName: __ZNSt3__16vectorIfNS_9allocatorIfEEEC2B8ue170006Ev, symObjAddr: 0x29560, symBinAddr: 0x10002B250, symSize: 0x4C }
  - { offsetInCU: 0x5C5E3, offset: 0x5C5E3, size: 0x8, addend: 0x0, symName: __ZNSt3__117__compressed_pairIPfNS_9allocatorIfEEEC1B8ue170006IDnNS_18__default_init_tagEEEOT_OT0_, symObjAddr: 0x295AC, symBinAddr: 0x10002B29C, symSize: 0x3C }
  - { offsetInCU: 0x5C63B, offset: 0x5C63B, size: 0x8, addend: 0x0, symName: __ZNSt3__117__compressed_pairIPfNS_9allocatorIfEEEC2B8ue170006IDnNS_18__default_init_tagEEEOT_OT0_, symObjAddr: 0x295E8, symBinAddr: 0x10002B2D8, symSize: 0x40 }
  - { offsetInCU: 0x5C693, offset: 0x5C693, size: 0x8, addend: 0x0, symName: __ZNSt3__122__compressed_pair_elemIPfLi0ELb0EEC2B8ue170006IDnvEEOT_, symObjAddr: 0x29628, symBinAddr: 0x10002B318, symSize: 0x1C }
  - { offsetInCU: 0x5C6D5, offset: 0x5C6D5, size: 0x8, addend: 0x0, symName: __ZNSt3__122__compressed_pair_elemINS_9allocatorIfEELi1ELb1EEC2B8ue170006ENS_18__default_init_tagE, symObjAddr: 0x29644, symBinAddr: 0x10002B334, symSize: 0x2C }
  - { offsetInCU: 0x5C709, offset: 0x5C709, size: 0x8, addend: 0x0, symName: __ZNSt3__19allocatorIfEC2B8ue170006Ev, symObjAddr: 0x29670, symBinAddr: 0x10002B360, symSize: 0x2C }
  - { offsetInCU: 0x5C733, offset: 0x5C733, size: 0x8, addend: 0x0, symName: __ZNSt3__116__non_trivial_ifILb1ENS_9allocatorIfEEEC2B8ue170006Ev, symObjAddr: 0x2969C, symBinAddr: 0x10002B38C, symSize: 0x14 }
  - { offsetInCU: 0x5C75D, offset: 0x5C75D, size: 0x8, addend: 0x0, symName: __ZNSt3__16vectorIN3olc5PixelENS_9allocatorIS2_EEE6assignIPKS2_Li0EEEvT_S9_, symObjAddr: 0x296B0, symBinAddr: 0x10002B3A0, symSize: 0x5C }
  - { offsetInCU: 0x5C7B2, offset: 0x5C7B2, size: 0x8, addend: 0x0, symName: __ZNSt3__16vectorIN3olc5PixelENS_9allocatorIS2_EEE18__assign_with_sizeB8ue170006IPKS2_S8_EEvT_T0_l, symObjAddr: 0x2970C, symBinAddr: 0x10002B3FC, symSize: 0x164 }
  - { offsetInCU: 0x5C864, offset: 0x5C864, size: 0x8, addend: 0x0, symName: __ZNSt3__16vectorIN3olc5PixelENS_9allocatorIS2_EEE13__vdeallocateEv, symObjAddr: 0x298D0, symBinAddr: 0x10002B5C0, symSize: 0x94 }
  - { offsetInCU: 0x5C88C, offset: 0x5C88C, size: 0x8, addend: 0x0, symName: __ZNSt3__16vectorIN3olc11v2d_genericIfEENS_9allocatorIS3_EEE6assignIPKS3_Li0EEEvT_SA_, symObjAddr: 0x299EC, symBinAddr: 0x10002B6DC, symSize: 0x5C }
  - { offsetInCU: 0x5C8E1, offset: 0x5C8E1, size: 0x8, addend: 0x0, symName: __ZNSt3__16vectorIN3olc11v2d_genericIfEENS_9allocatorIS3_EEE18__assign_with_sizeB8ue170006IPKS3_S9_EEvT_T0_l, symObjAddr: 0x29A48, symBinAddr: 0x10002B738, symSize: 0x164 }
  - { offsetInCU: 0x5C993, offset: 0x5C993, size: 0x8, addend: 0x0, symName: __ZNSt3__16vectorIN3olc11v2d_genericIfEENS_9allocatorIS3_EEE17__destruct_at_endB8ue170006EPS3_, symObjAddr: 0x29C90, symBinAddr: 0x10002B980, symSize: 0x4C }
  - { offsetInCU: 0x5C9D7, offset: 0x5C9D7, size: 0x8, addend: 0x0, symName: __ZNSt3__16vectorIN3olc11v2d_genericIfEENS_9allocatorIS3_EEE13__vdeallocateEv, symObjAddr: 0x29CDC, symBinAddr: 0x10002B9CC, symSize: 0x94 }
  - { offsetInCU: 0x5C9FF, offset: 0x5C9FF, size: 0x8, addend: 0x0, symName: __ZNKSt3__16vectorIN3olc11v2d_genericIfEENS_9allocatorIS3_EEE11__recommendB8ue170006Em, symObjAddr: 0x29D70, symBinAddr: 0x10002BA60, symSize: 0xB4 }
  - { offsetInCU: 0x5CA78, offset: 0x5CA78, size: 0x8, addend: 0x0, symName: __ZNKSt3__111__copy_loopINS_17_ClassicAlgPolicyEEclB8ue170006IPKN3olc11v2d_genericIfEES8_PS6_EENS_4pairIT_T1_EESB_T0_SC_, symObjAddr: 0x29F7C, symBinAddr: 0x10002BC6C, symSize: 0x8C }
  - { offsetInCU: 0x5CAE3, offset: 0x5CAE3, size: 0x8, addend: 0x0, symName: __ZNSt3__14pairIPKN3olc11v2d_genericIfEEPS3_EC1B8ue170006IS5_S6_LPv0EEEOT_OT0_, symObjAddr: 0x2A06C, symBinAddr: 0x10002BD5C, symSize: 0x3C }
  - { offsetInCU: 0x5CB41, offset: 0x5CB41, size: 0x8, addend: 0x0, symName: __ZNSt3__14pairIPKN3olc11v2d_genericIfEEPS3_EC2B8ue170006IS5_S6_LPv0EEEOT_OT0_, symObjAddr: 0x2A0A8, symBinAddr: 0x10002BD98, symSize: 0x34 }
  - { offsetInCU: 0x5CB9F, offset: 0x5CB9F, size: 0x8, addend: 0x0, symName: __ZNSt3__119__unwrap_range_implIPKN3olc11v2d_genericIfEES5_E8__rewrapB8ue170006ES5_S5_, symObjAddr: 0x2A0DC, symBinAddr: 0x10002BDCC, symSize: 0x2C }
  - { offsetInCU: 0x5CBD0, offset: 0x5CBD0, size: 0x8, addend: 0x0, symName: __ZNSt3__118__unwrap_iter_implIPKN3olc11v2d_genericIfEELb1EE8__rewrapB8ue170006ES5_S5_, symObjAddr: 0x2A144, symBinAddr: 0x10002BE34, symSize: 0x50 }
  - { offsetInCU: 0x5CC01, offset: 0x5CC01, size: 0x8, addend: 0x0, symName: __ZNKSt3__16vectorIN3olc11v2d_genericIfEENS_9allocatorIS3_EEE17__annotate_shrinkB8ue170006Em, symObjAddr: 0x2A194, symBinAddr: 0x10002BE84, symSize: 0xB4 }
  - { offsetInCU: 0x5CC36, offset: 0x5CC36, size: 0x8, addend: 0x0, symName: __ZNSt3__16vectorIN3olc11v2d_genericIfEENS_9allocatorIS3_EEE5clearB8ue170006Ev, symObjAddr: 0x2A248, symBinAddr: 0x10002BF38, symSize: 0x44 }
  - { offsetInCU: 0x5CC6B, offset: 0x5CC6B, size: 0x8, addend: 0x0, symName: __ZNSt3__16vectorIfNS_9allocatorIfEEE6assignIPKfLi0EEEvT_S7_, symObjAddr: 0x2A2B4, symBinAddr: 0x10002BFA4, symSize: 0x5C }
  - { offsetInCU: 0x5CCC0, offset: 0x5CCC0, size: 0x8, addend: 0x0, symName: __ZNKSt16initializer_listIfE5beginB8ue170006Ev, symObjAddr: 0x2A310, symBinAddr: 0x10002C000, symSize: 0x18 }
  - { offsetInCU: 0x5CCE6, offset: 0x5CCE6, size: 0x8, addend: 0x0, symName: __ZNKSt16initializer_listIfE3endB8ue170006Ev, symObjAddr: 0x2A328, symBinAddr: 0x10002C018, symSize: 0x20 }
  - { offsetInCU: 0x5CD0C, offset: 0x5CD0C, size: 0x8, addend: 0x0, symName: __ZNSt3__16vectorIfNS_9allocatorIfEEE18__assign_with_sizeB8ue170006IPKfS6_EEvT_T0_l, symObjAddr: 0x2A348, symBinAddr: 0x10002C038, symSize: 0x164 }
  - { offsetInCU: 0x5CDBE, offset: 0x5CDBE, size: 0x8, addend: 0x0, symName: __ZNKSt3__16vectorIfNS_9allocatorIfEEE8capacityB8ue170006Ev, symObjAddr: 0x2A4D8, symBinAddr: 0x10002C1C8, symSize: 0x40 }
  - { offsetInCU: 0x5CDE4, offset: 0x5CDE4, size: 0x8, addend: 0x0, symName: __ZNKSt3__16vectorIfNS_9allocatorIfEEE4sizeB8ue170006Ev, symObjAddr: 0x2A518, symBinAddr: 0x10002C208, symSize: 0x28 }
  - { offsetInCU: 0x5CE0A, offset: 0x5CE0A, size: 0x8, addend: 0x0, symName: __ZNSt3__16vectorIfNS_9allocatorIfEEE18__construct_at_endIPKfS6_EEvT_T0_m, symObjAddr: 0x2A5B4, symBinAddr: 0x10002C2A4, symSize: 0x8C }
  - { offsetInCU: 0x5CE80, offset: 0x5CE80, size: 0x8, addend: 0x0, symName: __ZNSt3__16vectorIfNS_9allocatorIfEEE17__destruct_at_endB8ue170006EPf, symObjAddr: 0x2A684, symBinAddr: 0x10002C374, symSize: 0x4C }
  - { offsetInCU: 0x5CEC4, offset: 0x5CEC4, size: 0x8, addend: 0x0, symName: __ZNSt3__16vectorIfNS_9allocatorIfEEE13__vdeallocateEv, symObjAddr: 0x2A6D0, symBinAddr: 0x10002C3C0, symSize: 0x94 }
  - { offsetInCU: 0x5CEEC, offset: 0x5CEEC, size: 0x8, addend: 0x0, symName: __ZNSt3__16vectorIfNS_9allocatorIfEEE11__vallocateB8ue170006Em, symObjAddr: 0x2A764, symBinAddr: 0x10002C454, symSize: 0xAC }
  - { offsetInCU: 0x5CF30, offset: 0x5CF30, size: 0x8, addend: 0x0, symName: __ZNKSt3__16vectorIfNS_9allocatorIfEEE11__recommendB8ue170006Em, symObjAddr: 0x2A810, symBinAddr: 0x10002C500, symSize: 0xB4 }
  - { offsetInCU: 0x5CF85, offset: 0x5CF85, size: 0x8, addend: 0x0, symName: __ZNKSt3__16vectorIfNS_9allocatorIfEEE9__end_capB8ue170006Ev, symObjAddr: 0x2A8C4, symBinAddr: 0x10002C5B4, symSize: 0x28 }
  - { offsetInCU: 0x5CFAB, offset: 0x5CFAB, size: 0x8, addend: 0x0, symName: __ZNKSt3__117__compressed_pairIPfNS_9allocatorIfEEE5firstB8ue170006Ev, symObjAddr: 0x2A8EC, symBinAddr: 0x10002C5DC, symSize: 0x24 }
  - { offsetInCU: 0x5CFD1, offset: 0x5CFD1, size: 0x8, addend: 0x0, symName: __ZNKSt3__122__compressed_pair_elemIPfLi0ELb0EE5__getB8ue170006Ev, symObjAddr: 0x2A910, symBinAddr: 0x10002C600, symSize: 0x14 }
  - { offsetInCU: 0x5D010, offset: 0x5D010, size: 0x8, addend: 0x0, symName: __ZNSt3__16vectorIfNS_9allocatorIfEEE21_ConstructTransactionC1B8ue170006ERS3_m, symObjAddr: 0x2A984, symBinAddr: 0x10002C674, symSize: 0x3C }
  - { offsetInCU: 0x5D058, offset: 0x5D058, size: 0x8, addend: 0x0, symName: __ZNSt3__16vectorIfNS_9allocatorIfEEE7__allocB8ue170006Ev, symObjAddr: 0x2AA40, symBinAddr: 0x10002C730, symSize: 0x28 }
  - { offsetInCU: 0x5D07E, offset: 0x5D07E, size: 0x8, addend: 0x0, symName: __ZNSt3__16vectorIfNS_9allocatorIfEEE21_ConstructTransactionD1B8ue170006Ev, symObjAddr: 0x2AA68, symBinAddr: 0x10002C758, symSize: 0x2C }
  - { offsetInCU: 0x5D0A8, offset: 0x5D0A8, size: 0x8, addend: 0x0, symName: __ZNSt3__16vectorIfNS_9allocatorIfEEE21_ConstructTransactionC2B8ue170006ERS3_m, symObjAddr: 0x2AA94, symBinAddr: 0x10002C784, symSize: 0x44 }
  - { offsetInCU: 0x5D10A, offset: 0x5D10A, size: 0x8, addend: 0x0, symName: __ZNSt3__119__unwrap_range_implIPKfS2_E8__unwrapB8ue170006ES2_S2_, symObjAddr: 0x2ABAC, symBinAddr: 0x10002C89C, symSize: 0x58 }
  - { offsetInCU: 0x5D141, offset: 0x5D141, size: 0x8, addend: 0x0, symName: __ZNSt3__14pairIPKfS2_EC1B8ue170006IS2_S2_LPv0EEEOT_OT0_, symObjAddr: 0x2AC28, symBinAddr: 0x10002C918, symSize: 0x3C }
  - { offsetInCU: 0x5D19F, offset: 0x5D19F, size: 0x8, addend: 0x0, symName: __ZNSt3__118__unwrap_iter_implIPKfLb1EE8__unwrapB8ue170006ES2_, symObjAddr: 0x2AC64, symBinAddr: 0x10002C954, symSize: 0x24 }
  - { offsetInCU: 0x5D1C2, offset: 0x5D1C2, size: 0x8, addend: 0x0, symName: __ZNSt3__14pairIPKfS2_EC2B8ue170006IS2_S2_LPv0EEEOT_OT0_, symObjAddr: 0x2AC9C, symBinAddr: 0x10002C98C, symSize: 0x34 }
  - { offsetInCU: 0x5D220, offset: 0x5D220, size: 0x8, addend: 0x0, symName: __ZNSt3__118__unwrap_iter_implIPfLb1EE8__unwrapB8ue170006ES1_, symObjAddr: 0x2ACD0, symBinAddr: 0x10002C9C0, symSize: 0x24 }
  - { offsetInCU: 0x5D243, offset: 0x5D243, size: 0x8, addend: 0x0, symName: __ZNSt3__118__unwrap_iter_implIPfLb1EE8__rewrapB8ue170006ES1_S1_, symObjAddr: 0x2AD08, symBinAddr: 0x10002C9F8, symSize: 0x50 }
  - { offsetInCU: 0x5D274, offset: 0x5D274, size: 0x8, addend: 0x0, symName: __ZNSt3__117__compressed_pairIPfNS_9allocatorIfEEE6secondB8ue170006Ev, symObjAddr: 0x2AD58, symBinAddr: 0x10002CA48, symSize: 0x24 }
  - { offsetInCU: 0x5D29A, offset: 0x5D29A, size: 0x8, addend: 0x0, symName: __ZNSt3__122__compressed_pair_elemINS_9allocatorIfEELi1ELb1EE5__getB8ue170006Ev, symObjAddr: 0x2AD7C, symBinAddr: 0x10002CA6C, symSize: 0x14 }
  - { offsetInCU: 0x5D2C0, offset: 0x5D2C0, size: 0x8, addend: 0x0, symName: __ZNSt3__16vectorIfNS_9allocatorIfEEE21_ConstructTransactionD2B8ue170006Ev, symObjAddr: 0x2AD90, symBinAddr: 0x10002CA80, symSize: 0x20 }
  - { offsetInCU: 0x5D304, offset: 0x5D304, size: 0x8, addend: 0x0, symName: __ZNKSt3__114__copy_trivialclB8ue170006IKffLi0EEENS_4pairIPT_PT0_EES5_S5_S7_, symObjAddr: 0x2AEA8, symBinAddr: 0x10002CB98, symSize: 0x48 }
  - { offsetInCU: 0x5D377, offset: 0x5D377, size: 0x8, addend: 0x0, symName: __ZNSt3__14pairIPKfPfEC1B8ue170006IRS2_S3_LPv0EEEOT_OT0_, symObjAddr: 0x2B070, symBinAddr: 0x10002CD60, symSize: 0x3C }
  - { offsetInCU: 0x5D3D5, offset: 0x5D3D5, size: 0x8, addend: 0x0, symName: __ZNSt3__14pairIPKfPfEC2B8ue170006IRS2_S3_LPv0EEEOT_OT0_, symObjAddr: 0x2B0AC, symBinAddr: 0x10002CD9C, symSize: 0x34 }
  - { offsetInCU: 0x5D433, offset: 0x5D433, size: 0x8, addend: 0x0, symName: __ZNSt3__14pairIPKfPfEC1B8ue170006IS2_S3_LPv0EEEOT_OT0_, symObjAddr: 0x2B0E0, symBinAddr: 0x10002CDD0, symSize: 0x3C }
  - { offsetInCU: 0x5D491, offset: 0x5D491, size: 0x8, addend: 0x0, symName: __ZNSt3__14pairIPKfPfEC2B8ue170006IS2_S3_LPv0EEEOT_OT0_, symObjAddr: 0x2B11C, symBinAddr: 0x10002CE0C, symSize: 0x34 }
  - { offsetInCU: 0x5D4EF, offset: 0x5D4EF, size: 0x8, addend: 0x0, symName: __ZNSt3__119__unwrap_range_implIPKfS2_E8__rewrapB8ue170006ES2_S2_, symObjAddr: 0x2B150, symBinAddr: 0x10002CE40, symSize: 0x2C }
  - { offsetInCU: 0x5D520, offset: 0x5D520, size: 0x8, addend: 0x0, symName: __ZNSt3__118__unwrap_iter_implIPKfLb1EE8__rewrapB8ue170006ES2_S2_, symObjAddr: 0x2B1B8, symBinAddr: 0x10002CEA8, symSize: 0x50 }
  - { offsetInCU: 0x5D551, offset: 0x5D551, size: 0x8, addend: 0x0, symName: __ZNSt3__16vectorIfNS_9allocatorIfEEE22__base_destruct_at_endB8ue170006EPf, symObjAddr: 0x2B208, symBinAddr: 0x10002CEF8, symSize: 0x8C }
  - { offsetInCU: 0x5D595, offset: 0x5D595, size: 0x8, addend: 0x0, symName: __ZNKSt3__16vectorIfNS_9allocatorIfEEE17__annotate_shrinkB8ue170006Em, symObjAddr: 0x2B294, symBinAddr: 0x10002CF84, symSize: 0xB4 }
  - { offsetInCU: 0x5D5CA, offset: 0x5D5CA, size: 0x8, addend: 0x0, symName: __ZNSt3__116allocator_traitsINS_9allocatorIfEEE7destroyB8ue170006IfvvEEvRS2_PT_, symObjAddr: 0x2B348, symBinAddr: 0x10002D038, symSize: 0x28 }
  - { offsetInCU: 0x5D605, offset: 0x5D605, size: 0x8, addend: 0x0, symName: __ZNKSt3__16vectorIfNS_9allocatorIfEEE31__annotate_contiguous_containerB8ue170006EPKvS5_S5_S5_, symObjAddr: 0x2B3A4, symBinAddr: 0x10002D094, symSize: 0x20 }
  - { offsetInCU: 0x5D65B, offset: 0x5D65B, size: 0x8, addend: 0x0, symName: __ZNKSt3__16vectorIfNS_9allocatorIfEEE4dataB8ue170006Ev, symObjAddr: 0x2B3C4, symBinAddr: 0x10002D0B4, symSize: 0x28 }
  - { offsetInCU: 0x5D681, offset: 0x5D681, size: 0x8, addend: 0x0, symName: __ZNSt3__16vectorIfNS_9allocatorIfEEE5clearB8ue170006Ev, symObjAddr: 0x2B3EC, symBinAddr: 0x10002D0DC, symSize: 0x44 }
  - { offsetInCU: 0x5D6B6, offset: 0x5D6B6, size: 0x8, addend: 0x0, symName: __ZNKSt3__16vectorIfNS_9allocatorIfEEE17__annotate_deleteB8ue170006Ev, symObjAddr: 0x2B430, symBinAddr: 0x10002D120, symSize: 0xB8 }
  - { offsetInCU: 0x5D6DC, offset: 0x5D6DC, size: 0x8, addend: 0x0, symName: __ZNSt3__116allocator_traitsINS_9allocatorIfEEE10deallocateB8ue170006ERS2_Pfm, symObjAddr: 0x2B4E8, symBinAddr: 0x10002D1D8, symSize: 0x34 }
  - { offsetInCU: 0x5D71E, offset: 0x5D71E, size: 0x8, addend: 0x0, symName: __ZNSt3__16vectorIfNS_9allocatorIfEEE9__end_capB8ue170006Ev, symObjAddr: 0x2B51C, symBinAddr: 0x10002D20C, symSize: 0x28 }
  - { offsetInCU: 0x5D744, offset: 0x5D744, size: 0x8, addend: 0x0, symName: __ZNSt3__16vectorIfNS_9allocatorIfEEE7__clearB8ue170006Ev, symObjAddr: 0x2B544, symBinAddr: 0x10002D234, symSize: 0x28 }
  - { offsetInCU: 0x5D76A, offset: 0x5D76A, size: 0x8, addend: 0x0, symName: __ZNSt3__19allocatorIfE10deallocateB8ue170006EPfm, symObjAddr: 0x2B56C, symBinAddr: 0x10002D25C, symSize: 0x40 }
  - { offsetInCU: 0x5D7AC, offset: 0x5D7AC, size: 0x8, addend: 0x0, symName: __ZNSt3__117__compressed_pairIPfNS_9allocatorIfEEE5firstB8ue170006Ev, symObjAddr: 0x2B5AC, symBinAddr: 0x10002D29C, symSize: 0x24 }
  - { offsetInCU: 0x5D7D2, offset: 0x5D7D2, size: 0x8, addend: 0x0, symName: __ZNSt3__122__compressed_pair_elemIPfLi0ELb0EE5__getB8ue170006Ev, symObjAddr: 0x2B5D0, symBinAddr: 0x10002D2C0, symSize: 0x14 }
  - { offsetInCU: 0x5D7F8, offset: 0x5D7F8, size: 0x8, addend: 0x0, symName: __ZNKSt3__16vectorIfNS_9allocatorIfEEE8max_sizeEv, symObjAddr: 0x2B5E4, symBinAddr: 0x10002D2D4, symSize: 0x60 }
  - { offsetInCU: 0x5D820, offset: 0x5D820, size: 0x8, addend: 0x0, symName: __ZNKSt3__16vectorIfNS_9allocatorIfEEE20__throw_length_errorB8ue170006Ev, symObjAddr: 0x2B644, symBinAddr: 0x10002D334, symSize: 0x1C }
  - { offsetInCU: 0x5D846, offset: 0x5D846, size: 0x8, addend: 0x0, symName: __ZNKSt3__16vectorIfNS_9allocatorIfEEE14__annotate_newB8ue170006Em, symObjAddr: 0x2B6A0, symBinAddr: 0x10002D390, symSize: 0xAC }
  - { offsetInCU: 0x5D885, offset: 0x5D885, size: 0x8, addend: 0x0, symName: __ZNSt3__116allocator_traitsINS_9allocatorIfEEE8max_sizeB8ue170006IS2_vvEEmRKS2_, symObjAddr: 0x2B74C, symBinAddr: 0x10002D43C, symSize: 0x28 }
  - { offsetInCU: 0x5D8B1, offset: 0x5D8B1, size: 0x8, addend: 0x0, symName: __ZNKSt3__16vectorIfNS_9allocatorIfEEE7__allocB8ue170006Ev, symObjAddr: 0x2B774, symBinAddr: 0x10002D464, symSize: 0x28 }
  - { offsetInCU: 0x5D8D7, offset: 0x5D8D7, size: 0x8, addend: 0x0, symName: __ZNKSt3__117__compressed_pairIPfNS_9allocatorIfEEE6secondB8ue170006Ev, symObjAddr: 0x2B79C, symBinAddr: 0x10002D48C, symSize: 0x24 }
  - { offsetInCU: 0x5D8FD, offset: 0x5D8FD, size: 0x8, addend: 0x0, symName: __ZNKSt3__122__compressed_pair_elemINS_9allocatorIfEELi1ELb1EE5__getB8ue170006Ev, symObjAddr: 0x2B7C0, symBinAddr: 0x10002D4B0, symSize: 0x14 }
  - { offsetInCU: 0x5D923, offset: 0x5D923, size: 0x8, addend: 0x0, symName: __ZNSt3__19allocatorIfE8allocateB8ue170006Em, symObjAddr: 0x2B7D4, symBinAddr: 0x10002D4C4, symSize: 0x58 }
  - { offsetInCU: 0x5D957, offset: 0x5D957, size: 0x8, addend: 0x0, symName: __ZNSt3__16vectorIN3olc13DecalInstanceENS_9allocatorIS2_EEE22__construct_one_at_endB8ue170006IJRKS2_EEEvDpOT_, symObjAddr: 0x2B854, symBinAddr: 0x10002D544, symSize: 0x90 }
  - { offsetInCU: 0x5D9A6, offset: 0x5D9A6, size: 0x8, addend: 0x0, symName: __ZNSt3__16vectorIN3olc13DecalInstanceENS_9allocatorIS2_EEE21__push_back_slow_pathIRKS2_EEvOT_, symObjAddr: 0x2B8E4, symBinAddr: 0x10002D5D4, symSize: 0xD8 }
  - { offsetInCU: 0x5DA1D, offset: 0x5DA1D, size: 0x8, addend: 0x0, symName: __ZNSt3__16vectorIN3olc13DecalInstanceENS_9allocatorIS2_EEE21_ConstructTransactionC1B8ue170006ERS5_m, symObjAddr: 0x2B9BC, symBinAddr: 0x10002D6AC, symSize: 0x3C }
  - { offsetInCU: 0x5DA65, offset: 0x5DA65, size: 0x8, addend: 0x0, symName: __ZNSt3__116allocator_traitsINS_9allocatorIN3olc13DecalInstanceEEEE9constructB8ue170006IS3_JRKS3_EvvEEvRS4_PT_DpOT0_, symObjAddr: 0x2B9F8, symBinAddr: 0x10002D6E8, symSize: 0x30 }
  - { offsetInCU: 0x5DABA, offset: 0x5DABA, size: 0x8, addend: 0x0, symName: __ZNSt3__16vectorIN3olc13DecalInstanceENS_9allocatorIS2_EEE21_ConstructTransactionD1B8ue170006Ev, symObjAddr: 0x2BA28, symBinAddr: 0x10002D718, symSize: 0x2C }
  - { offsetInCU: 0x5DAE4, offset: 0x5DAE4, size: 0x8, addend: 0x0, symName: __ZNSt3__16vectorIN3olc13DecalInstanceENS_9allocatorIS2_EEE21_ConstructTransactionC2B8ue170006ERS5_m, symObjAddr: 0x2BA54, symBinAddr: 0x10002D744, symSize: 0x4C }
  - { offsetInCU: 0x5DB2C, offset: 0x5DB2C, size: 0x8, addend: 0x0, symName: __ZN3olc13DecalInstanceC1ERKS0_, symObjAddr: 0x2BADC, symBinAddr: 0x10002D7CC, symSize: 0x34 }
  - { offsetInCU: 0x5DB62, offset: 0x5DB62, size: 0x8, addend: 0x0, symName: __ZN3olc13DecalInstanceC2ERKS0_, symObjAddr: 0x2BB10, symBinAddr: 0x10002D800, symSize: 0x10C }
  - { offsetInCU: 0x5DB98, offset: 0x5DB98, size: 0x8, addend: 0x0, symName: __ZNSt3__16vectorIfNS_9allocatorIfEEEC1ERKS3_, symObjAddr: 0x2BC1C, symBinAddr: 0x10002D90C, symSize: 0x34 }
  - { offsetInCU: 0x5DBD3, offset: 0x5DBD3, size: 0x8, addend: 0x0, symName: __ZNSt3__16vectorIfNS_9allocatorIfEEED1B8ue170006Ev, symObjAddr: 0x2BC50, symBinAddr: 0x10002D940, symSize: 0x2C }
  - { offsetInCU: 0x5DBFD, offset: 0x5DBFD, size: 0x8, addend: 0x0, symName: __ZNSt3__16vectorIfNS_9allocatorIfEEEC2ERKS3_, symObjAddr: 0x2BC7C, symBinAddr: 0x10002D96C, symSize: 0x94 }
  - { offsetInCU: 0x5DC38, offset: 0x5DC38, size: 0x8, addend: 0x0, symName: __ZNSt3__116allocator_traitsINS_9allocatorIfEEE37select_on_container_copy_constructionB8ue170006IS2_vvEES2_RKS2_, symObjAddr: 0x2BD10, symBinAddr: 0x10002DA00, symSize: 0x10 }
  - { offsetInCU: 0x5DC6D, offset: 0x5DC6D, size: 0x8, addend: 0x0, symName: __ZNSt3__117__compressed_pairIPfNS_9allocatorIfEEEC1B8ue170006IDnS3_EEOT_OT0_, symObjAddr: 0x2BD20, symBinAddr: 0x10002DA10, symSize: 0x3C }
  - { offsetInCU: 0x5DCC5, offset: 0x5DCC5, size: 0x8, addend: 0x0, symName: __ZNSt3__16vectorIfNS_9allocatorIfEEE16__init_with_sizeB8ue170006IPfS5_EEvT_T0_m, symObjAddr: 0x2BD5C, symBinAddr: 0x10002DA4C, symSize: 0xB8 }
  - { offsetInCU: 0x5DD39, offset: 0x5DD39, size: 0x8, addend: 0x0, symName: __ZNSt3__117__compressed_pairIPfNS_9allocatorIfEEEC2B8ue170006IDnS3_EEOT_OT0_, symObjAddr: 0x2BE14, symBinAddr: 0x10002DB04, symSize: 0x44 }
  - { offsetInCU: 0x5DD91, offset: 0x5DD91, size: 0x8, addend: 0x0, symName: __ZNSt3__122__compressed_pair_elemINS_9allocatorIfEELi1ELb1EEC2B8ue170006IS2_vEEOT_, symObjAddr: 0x2BE58, symBinAddr: 0x10002DB48, symSize: 0x18 }
  - { offsetInCU: 0x5DDD3, offset: 0x5DDD3, size: 0x8, addend: 0x0, symName: __ZNSt3__16vectorIfNS_9allocatorIfEEE16__destroy_vectorC1B8ue170006ERS3_, symObjAddr: 0x2BEB0, symBinAddr: 0x10002DBA0, symSize: 0x34 }
  - { offsetInCU: 0x5DE0C, offset: 0x5DE0C, size: 0x8, addend: 0x0, symName: __ZNSt3__16vectorIfNS_9allocatorIfEEE18__construct_at_endIPfS5_EEvT_T0_m, symObjAddr: 0x2BEE4, symBinAddr: 0x10002DBD4, symSize: 0x8C }
  - { offsetInCU: 0x5DE82, offset: 0x5DE82, size: 0x8, addend: 0x0, symName: __ZNSt3__128__exception_guard_exceptionsINS_6vectorIfNS_9allocatorIfEEE16__destroy_vectorEE10__completeB8ue170006Ev, symObjAddr: 0x2BF70, symBinAddr: 0x10002DC60, symSize: 0x1C }
  - { offsetInCU: 0x5DEA8, offset: 0x5DEA8, size: 0x8, addend: 0x0, symName: __ZNSt3__128__exception_guard_exceptionsINS_6vectorIfNS_9allocatorIfEEE16__destroy_vectorEED1B8ue170006Ev, symObjAddr: 0x2BF8C, symBinAddr: 0x10002DC7C, symSize: 0x2C }
  - { offsetInCU: 0x5DED2, offset: 0x5DED2, size: 0x8, addend: 0x0, symName: __ZNSt3__128__exception_guard_exceptionsINS_6vectorIfNS_9allocatorIfEEE16__destroy_vectorEEC1B8ue170006ES5_, symObjAddr: 0x2BFB8, symBinAddr: 0x10002DCA8, symSize: 0x34 }
  - { offsetInCU: 0x5DF0A, offset: 0x5DF0A, size: 0x8, addend: 0x0, symName: __ZNSt3__128__exception_guard_exceptionsINS_6vectorIfNS_9allocatorIfEEE16__destroy_vectorEEC2B8ue170006ES5_, symObjAddr: 0x2BFEC, symBinAddr: 0x10002DCDC, symSize: 0x24 }
  - { offsetInCU: 0x5DF42, offset: 0x5DF42, size: 0x8, addend: 0x0, symName: __ZNSt3__16vectorIfNS_9allocatorIfEEE16__destroy_vectorC2B8ue170006ERS3_, symObjAddr: 0x2C010, symBinAddr: 0x10002DD00, symSize: 0x20 }
  - { offsetInCU: 0x5DF95, offset: 0x5DF95, size: 0x8, addend: 0x0, symName: __ZNSt3__119__unwrap_range_implIPfS1_E8__unwrapB8ue170006ES1_S1_, symObjAddr: 0x2C124, symBinAddr: 0x10002DE14, symSize: 0x58 }
  - { offsetInCU: 0x5DFC6, offset: 0x5DFC6, size: 0x8, addend: 0x0, symName: __ZNSt3__14pairIPfS1_EC1B8ue170006IS1_S1_LPv0EEEOT_OT0_, symObjAddr: 0x2C17C, symBinAddr: 0x10002DE6C, symSize: 0x3C }
  - { offsetInCU: 0x5E024, offset: 0x5E024, size: 0x8, addend: 0x0, symName: __ZNSt3__14pairIPfS1_EC2B8ue170006IS1_S1_LPv0EEEOT_OT0_, symObjAddr: 0x2C1B8, symBinAddr: 0x10002DEA8, symSize: 0x34 }
  - { offsetInCU: 0x5E082, offset: 0x5E082, size: 0x8, addend: 0x0, symName: __ZNKSt3__114__copy_trivialclB8ue170006IffLi0EEENS_4pairIPT_PT0_EES4_S4_S6_, symObjAddr: 0x2C368, symBinAddr: 0x10002E058, symSize: 0x48 }
  - { offsetInCU: 0x5E0EA, offset: 0x5E0EA, size: 0x8, addend: 0x0, symName: __ZNSt3__14pairIPfS1_EC1B8ue170006IRS1_S1_LPv0EEEOT_OT0_, symObjAddr: 0x2C530, symBinAddr: 0x10002E220, symSize: 0x3C }
  - { offsetInCU: 0x5E148, offset: 0x5E148, size: 0x8, addend: 0x0, symName: __ZNSt3__14pairIPfS1_EC2B8ue170006IRS1_S1_LPv0EEEOT_OT0_, symObjAddr: 0x2C56C, symBinAddr: 0x10002E25C, symSize: 0x34 }
  - { offsetInCU: 0x5E1A6, offset: 0x5E1A6, size: 0x8, addend: 0x0, symName: __ZNSt3__119__unwrap_range_implIPfS1_E8__rewrapB8ue170006ES1_S1_, symObjAddr: 0x2C5A0, symBinAddr: 0x10002E290, symSize: 0x2C }
  - { offsetInCU: 0x5E1D7, offset: 0x5E1D7, size: 0x8, addend: 0x0, symName: __ZNSt3__128__exception_guard_exceptionsINS_6vectorIfNS_9allocatorIfEEE16__destroy_vectorEED2B8ue170006Ev, symObjAddr: 0x2C5CC, symBinAddr: 0x10002E2BC, symSize: 0x50 }
  - { offsetInCU: 0x5E201, offset: 0x5E201, size: 0x8, addend: 0x0, symName: __ZNSt3__16vectorIfNS_9allocatorIfEEE16__destroy_vectorclB8ue170006Ev, symObjAddr: 0x2C61C, symBinAddr: 0x10002E30C, symSize: 0x90 }
  - { offsetInCU: 0x5E227, offset: 0x5E227, size: 0x8, addend: 0x0, symName: __ZNSt3__16vectorIfNS_9allocatorIfEEED2B8ue170006Ev, symObjAddr: 0x2C6AC, symBinAddr: 0x10002E39C, symSize: 0x40 }
  - { offsetInCU: 0x5E251, offset: 0x5E251, size: 0x8, addend: 0x0, symName: __ZNSt3__16vectorIN3olc13DecalInstanceENS_9allocatorIS2_EEE21_ConstructTransactionD2B8ue170006Ev, symObjAddr: 0x2C6EC, symBinAddr: 0x10002E3DC, symSize: 0x20 }
  - { offsetInCU: 0x5E27B, offset: 0x5E27B, size: 0x8, addend: 0x0, symName: __ZNKSt3__16vectorIN3olc13DecalInstanceENS_9allocatorIS2_EEE11__recommendB8ue170006Em, symObjAddr: 0x2C70C, symBinAddr: 0x10002E3FC, symSize: 0xB4 }
  - { offsetInCU: 0x5E2D0, offset: 0x5E2D0, size: 0x8, addend: 0x0, symName: __ZNSt3__114__split_bufferIN3olc13DecalInstanceERNS_9allocatorIS2_EEEC1EmmS5_, symObjAddr: 0x2C7C0, symBinAddr: 0x10002E4B0, symSize: 0x44 }
  - { offsetInCU: 0x5E326, offset: 0x5E326, size: 0x8, addend: 0x0, symName: __ZNSt3__114__split_bufferIN3olc13DecalInstanceERNS_9allocatorIS2_EEED1Ev, symObjAddr: 0x2C914, symBinAddr: 0x10002E604, symSize: 0x2C }
  - { offsetInCU: 0x5E352, offset: 0x5E352, size: 0x8, addend: 0x0, symName: __ZNKSt3__16vectorIN3olc13DecalInstanceENS_9allocatorIS2_EEE8max_sizeEv, symObjAddr: 0x2C940, symBinAddr: 0x10002E630, symSize: 0x60 }
  - { offsetInCU: 0x5E37A, offset: 0x5E37A, size: 0x8, addend: 0x0, symName: __ZNKSt3__16vectorIN3olc13DecalInstanceENS_9allocatorIS2_EEE20__throw_length_errorB8ue170006Ev, symObjAddr: 0x2C9A0, symBinAddr: 0x10002E690, symSize: 0x1C }
  - { offsetInCU: 0x5E3AA, offset: 0x5E3AA, size: 0x8, addend: 0x0, symName: __ZNSt3__116allocator_traitsINS_9allocatorIN3olc13DecalInstanceEEEE8max_sizeB8ue170006IS4_vvEEmRKS4_, symObjAddr: 0x2C9BC, symBinAddr: 0x10002E6AC, symSize: 0x28 }
  - { offsetInCU: 0x5E3D6, offset: 0x5E3D6, size: 0x8, addend: 0x0, symName: __ZNKSt3__16vectorIN3olc13DecalInstanceENS_9allocatorIS2_EEE7__allocB8ue170006Ev, symObjAddr: 0x2C9E4, symBinAddr: 0x10002E6D4, symSize: 0x28 }
  - { offsetInCU: 0x5E3FC, offset: 0x5E3FC, size: 0x8, addend: 0x0, symName: __ZNKSt3__117__compressed_pairIPN3olc13DecalInstanceENS_9allocatorIS2_EEE6secondB8ue170006Ev, symObjAddr: 0x2CA0C, symBinAddr: 0x10002E6FC, symSize: 0x24 }
  - { offsetInCU: 0x5E422, offset: 0x5E422, size: 0x8, addend: 0x0, symName: __ZNKSt3__122__compressed_pair_elemINS_9allocatorIN3olc13DecalInstanceEEELi1ELb1EE5__getB8ue170006Ev, symObjAddr: 0x2CA30, symBinAddr: 0x10002E720, symSize: 0x14 }
  - { offsetInCU: 0x5E448, offset: 0x5E448, size: 0x8, addend: 0x0, symName: __ZNSt3__114__split_bufferIN3olc13DecalInstanceERNS_9allocatorIS2_EEEC2EmmS5_, symObjAddr: 0x2CA44, symBinAddr: 0x10002E734, symSize: 0xE0 }
  - { offsetInCU: 0x5E4BC, offset: 0x5E4BC, size: 0x8, addend: 0x0, symName: __ZNSt3__117__compressed_pairIPN3olc13DecalInstanceERNS_9allocatorIS2_EEEC1B8ue170006IDnS6_EEOT_OT0_, symObjAddr: 0x2CB24, symBinAddr: 0x10002E814, symSize: 0x3C }
  - { offsetInCU: 0x5E514, offset: 0x5E514, size: 0x8, addend: 0x0, symName: __ZNSt3__114__split_bufferIN3olc13DecalInstanceERNS_9allocatorIS2_EEE7__allocB8ue170006Ev, symObjAddr: 0x2CBA0, symBinAddr: 0x10002E890, symSize: 0x28 }
  - { offsetInCU: 0x5E53A, offset: 0x5E53A, size: 0x8, addend: 0x0, symName: __ZNSt3__114__split_bufferIN3olc13DecalInstanceERNS_9allocatorIS2_EEE9__end_capB8ue170006Ev, symObjAddr: 0x2CBC8, symBinAddr: 0x10002E8B8, symSize: 0x28 }
  - { offsetInCU: 0x5E560, offset: 0x5E560, size: 0x8, addend: 0x0, symName: __ZNSt3__117__compressed_pairIPN3olc13DecalInstanceERNS_9allocatorIS2_EEEC2B8ue170006IDnS6_EEOT_OT0_, symObjAddr: 0x2CBF0, symBinAddr: 0x10002E8E0, symSize: 0x48 }
  - { offsetInCU: 0x5E5B8, offset: 0x5E5B8, size: 0x8, addend: 0x0, symName: __ZNSt3__122__compressed_pair_elemIRNS_9allocatorIN3olc13DecalInstanceEEELi1ELb0EEC2B8ue170006IS5_vEEOT_, symObjAddr: 0x2CC38, symBinAddr: 0x10002E928, symSize: 0x20 }
  - { offsetInCU: 0x5E5FA, offset: 0x5E5FA, size: 0x8, addend: 0x0, symName: __ZNSt3__19allocatorIN3olc13DecalInstanceEE8allocateB8ue170006Em, symObjAddr: 0x2CC58, symBinAddr: 0x10002E948, symSize: 0x5C }
  - { offsetInCU: 0x5E62E, offset: 0x5E62E, size: 0x8, addend: 0x0, symName: __ZNSt3__117__compressed_pairIPN3olc13DecalInstanceERNS_9allocatorIS2_EEE6secondB8ue170006Ev, symObjAddr: 0x2CCB4, symBinAddr: 0x10002E9A4, symSize: 0x28 }
  - { offsetInCU: 0x5E654, offset: 0x5E654, size: 0x8, addend: 0x0, symName: __ZNSt3__122__compressed_pair_elemIRNS_9allocatorIN3olc13DecalInstanceEEELi1ELb0EE5__getB8ue170006Ev, symObjAddr: 0x2CCDC, symBinAddr: 0x10002E9CC, symSize: 0x18 }
  - { offsetInCU: 0x5E67A, offset: 0x5E67A, size: 0x8, addend: 0x0, symName: __ZNSt3__117__compressed_pairIPN3olc13DecalInstanceERNS_9allocatorIS2_EEE5firstB8ue170006Ev, symObjAddr: 0x2CCF4, symBinAddr: 0x10002E9E4, symSize: 0x24 }
  - { offsetInCU: 0x5E6A0, offset: 0x5E6A0, size: 0x8, addend: 0x0, symName: __ZNSt3__116reverse_iteratorIPN3olc13DecalInstanceEEC1B8ue170006ES3_, symObjAddr: 0x2CE44, symBinAddr: 0x10002EB34, symSize: 0x34 }
  - { offsetInCU: 0x5E6D8, offset: 0x5E6D8, size: 0x8, addend: 0x0, symName: __ZNKSt3__116reverse_iteratorIPN3olc13DecalInstanceEE4baseB8ue170006Ev, symObjAddr: 0x2CE78, symBinAddr: 0x10002EB68, symSize: 0x18 }
  - { offsetInCU: 0x5E6FE, offset: 0x5E6FE, size: 0x8, addend: 0x0, symName: __ZNKSt3__16vectorIN3olc13DecalInstanceENS_9allocatorIS2_EEE14__annotate_newB8ue170006Em, symObjAddr: 0x2CECC, symBinAddr: 0x10002EBBC, symSize: 0xC8 }
  - { offsetInCU: 0x5E733, offset: 0x5E733, size: 0x8, addend: 0x0, symName: __ZNSt3__129_AllocatorDestroyRangeReverseINS_9allocatorIN3olc13DecalInstanceEEENS_16reverse_iteratorIPS3_EEEC1B8ue170006ERS4_RS7_SA_, symObjAddr: 0x2CFE0, symBinAddr: 0x10002ECD0, symSize: 0x44 }
  - { offsetInCU: 0x5E790, offset: 0x5E790, size: 0x8, addend: 0x0, symName: __ZNSt3__116allocator_traitsINS_9allocatorIN3olc13DecalInstanceEEEE9constructB8ue170006IS3_JS3_EvvEEvRS4_PT_DpOT0_, symObjAddr: 0x2D06C, symBinAddr: 0x10002ED5C, symSize: 0x30 }
  - { offsetInCU: 0x5E7E5, offset: 0x5E7E5, size: 0x8, addend: 0x0, symName: __ZNKSt3__116reverse_iteratorIPN3olc13DecalInstanceEEdeB8ue170006Ev, symObjAddr: 0x2D0C0, symBinAddr: 0x10002EDB0, symSize: 0x28 }
  - { offsetInCU: 0x5E81A, offset: 0x5E81A, size: 0x8, addend: 0x0, symName: __ZNSt3__116reverse_iteratorIPN3olc13DecalInstanceEEppB8ue170006Ev, symObjAddr: 0x2D0E8, symBinAddr: 0x10002EDD8, symSize: 0x20 }
  - { offsetInCU: 0x5E840, offset: 0x5E840, size: 0x8, addend: 0x0, symName: __ZNSt3__128__exception_guard_exceptionsINS_29_AllocatorDestroyRangeReverseINS_9allocatorIN3olc13DecalInstanceEEENS_16reverse_iteratorIPS4_EEEEE10__completeB8ue170006Ev, symObjAddr: 0x2D108, symBinAddr: 0x10002EDF8, symSize: 0x1C }
  - { offsetInCU: 0x5E866, offset: 0x5E866, size: 0x8, addend: 0x0, symName: __ZNSt3__128__exception_guard_exceptionsINS_29_AllocatorDestroyRangeReverseINS_9allocatorIN3olc13DecalInstanceEEENS_16reverse_iteratorIPS4_EEEEED1B8ue170006Ev, symObjAddr: 0x2D124, symBinAddr: 0x10002EE14, symSize: 0x2C }
  - { offsetInCU: 0x5E890, offset: 0x5E890, size: 0x8, addend: 0x0, symName: __ZNSt3__128__exception_guard_exceptionsINS_29_AllocatorDestroyRangeReverseINS_9allocatorIN3olc13DecalInstanceEEENS_16reverse_iteratorIPS4_EEEEEC1B8ue170006ES9_, symObjAddr: 0x2D150, symBinAddr: 0x10002EE40, symSize: 0x34 }
  - { offsetInCU: 0x5E8C9, offset: 0x5E8C9, size: 0x8, addend: 0x0, symName: __ZNSt3__128__exception_guard_exceptionsINS_29_AllocatorDestroyRangeReverseINS_9allocatorIN3olc13DecalInstanceEEENS_16reverse_iteratorIPS4_EEEEEC2B8ue170006ES9_, symObjAddr: 0x2D184, symBinAddr: 0x10002EE74, symSize: 0x30 }
  - { offsetInCU: 0x5E902, offset: 0x5E902, size: 0x8, addend: 0x0, symName: __ZNSt3__129_AllocatorDestroyRangeReverseINS_9allocatorIN3olc13DecalInstanceEEENS_16reverse_iteratorIPS3_EEEC2B8ue170006ERS4_RS7_SA_, symObjAddr: 0x2D1B4, symBinAddr: 0x10002EEA4, symSize: 0x38 }
  - { offsetInCU: 0x5E959, offset: 0x5E959, size: 0x8, addend: 0x0, symName: __ZN3olc13DecalInstanceC1EOS0_, symObjAddr: 0x2D228, symBinAddr: 0x10002EF18, symSize: 0x34 }
  - { offsetInCU: 0x5E98F, offset: 0x5E98F, size: 0x8, addend: 0x0, symName: __ZN3olc13DecalInstanceC2EOS0_, symObjAddr: 0x2D25C, symBinAddr: 0x10002EF4C, symSize: 0x98 }
  - { offsetInCU: 0x5E9C5, offset: 0x5E9C5, size: 0x8, addend: 0x0, symName: __ZNSt3__16vectorIN3olc11v2d_genericIfEENS_9allocatorIS3_EEEC1B8ue170006EOS6_, symObjAddr: 0x2D2F4, symBinAddr: 0x10002EFE4, symSize: 0x34 }
  - { offsetInCU: 0x5EA00, offset: 0x5EA00, size: 0x8, addend: 0x0, symName: __ZNSt3__16vectorIfNS_9allocatorIfEEEC1B8ue170006EOS3_, symObjAddr: 0x2D328, symBinAddr: 0x10002F018, symSize: 0x34 }
  - { offsetInCU: 0x5EA3B, offset: 0x5EA3B, size: 0x8, addend: 0x0, symName: __ZNSt3__16vectorIN3olc5PixelENS_9allocatorIS2_EEEC1B8ue170006EOS5_, symObjAddr: 0x2D35C, symBinAddr: 0x10002F04C, symSize: 0x34 }
  - { offsetInCU: 0x5EA76, offset: 0x5EA76, size: 0x8, addend: 0x0, symName: __ZNSt3__16vectorIN3olc11v2d_genericIfEENS_9allocatorIS3_EEEC2B8ue170006EOS6_, symObjAddr: 0x2D390, symBinAddr: 0x10002F080, symSize: 0xC4 }
  - { offsetInCU: 0x5EAB1, offset: 0x5EAB1, size: 0x8, addend: 0x0, symName: __ZNSt3__16vectorIfNS_9allocatorIfEEEC2B8ue170006EOS3_, symObjAddr: 0x2D454, symBinAddr: 0x10002F144, symSize: 0xC4 }
  - { offsetInCU: 0x5EAEC, offset: 0x5EAEC, size: 0x8, addend: 0x0, symName: __ZNSt3__16vectorIN3olc5PixelENS_9allocatorIS2_EEEC2B8ue170006EOS5_, symObjAddr: 0x2D518, symBinAddr: 0x10002F208, symSize: 0xC4 }
  - { offsetInCU: 0x5EB2C, offset: 0x5EB2C, size: 0x8, addend: 0x0, symName: __ZNSt3__119__to_address_helperINS_16reverse_iteratorIPN3olc13DecalInstanceEEEvE6__callB8ue170006ERKS5_, symObjAddr: 0x2D5DC, symBinAddr: 0x10002F2CC, symSize: 0x38 }
  - { offsetInCU: 0x5EB4F, offset: 0x5EB4F, size: 0x8, addend: 0x0, symName: __ZNKSt3__116reverse_iteratorIPN3olc13DecalInstanceEEptB8ue170006Ev, symObjAddr: 0x2D614, symBinAddr: 0x10002F304, symSize: 0x2C }
  - { offsetInCU: 0x5EB75, offset: 0x5EB75, size: 0x8, addend: 0x0, symName: __ZNSt3__128__exception_guard_exceptionsINS_29_AllocatorDestroyRangeReverseINS_9allocatorIN3olc13DecalInstanceEEENS_16reverse_iteratorIPS4_EEEEED2B8ue170006Ev, symObjAddr: 0x2D6E4, symBinAddr: 0x10002F3D4, symSize: 0x50 }
  - { offsetInCU: 0x5EB9F, offset: 0x5EB9F, size: 0x8, addend: 0x0, symName: __ZNKSt3__129_AllocatorDestroyRangeReverseINS_9allocatorIN3olc13DecalInstanceEEENS_16reverse_iteratorIPS3_EEEclB8ue170006Ev, symObjAddr: 0x2D734, symBinAddr: 0x10002F424, symSize: 0xB4 }
  - { offsetInCU: 0x5EBC6, offset: 0x5EBC6, size: 0x8, addend: 0x0, symName: __ZNSt3__116reverse_iteratorINS0_IPN3olc13DecalInstanceEEEEC1B8ue170006ES4_, symObjAddr: 0x2D858, symBinAddr: 0x10002F548, symSize: 0x3C }
  - { offsetInCU: 0x5EBFE, offset: 0x5EBFE, size: 0x8, addend: 0x0, symName: __ZNSt3__116reverse_iteratorINS0_IPN3olc13DecalInstanceEEEEppB8ue170006Ev, symObjAddr: 0x2D918, symBinAddr: 0x10002F608, symSize: 0x30 }
  - { offsetInCU: 0x5EC24, offset: 0x5EC24, size: 0x8, addend: 0x0, symName: __ZNKSt3__116reverse_iteratorINS0_IPN3olc13DecalInstanceEEEE4baseB8ue170006Ev, symObjAddr: 0x2D948, symBinAddr: 0x10002F638, symSize: 0x24 }
  - { offsetInCU: 0x5EC4F, offset: 0x5EC4F, size: 0x8, addend: 0x0, symName: __ZNSt3__119__to_address_helperINS_16reverse_iteratorINS1_IPN3olc13DecalInstanceEEEEEvE6__callB8ue170006ERKS6_, symObjAddr: 0x2D96C, symBinAddr: 0x10002F65C, symSize: 0x38 }
  - { offsetInCU: 0x5EC72, offset: 0x5EC72, size: 0x8, addend: 0x0, symName: __ZNKSt3__116reverse_iteratorINS0_IPN3olc13DecalInstanceEEEEptB8ue170006Ev, symObjAddr: 0x2D9A4, symBinAddr: 0x10002F694, symSize: 0x4C }
  - { offsetInCU: 0x5EC98, offset: 0x5EC98, size: 0x8, addend: 0x0, symName: __ZNSt3__116reverse_iteratorIPN3olc13DecalInstanceEEpLB8ue170006El, symObjAddr: 0x2DAA0, symBinAddr: 0x10002F790, symSize: 0x30 }
  - { offsetInCU: 0x5ECCC, offset: 0x5ECCC, size: 0x8, addend: 0x0, symName: __ZNSt3__116reverse_iteratorIPN3olc13DecalInstanceEEmmB8ue170006Ev, symObjAddr: 0x2DAD0, symBinAddr: 0x10002F7C0, symSize: 0x20 }
  - { offsetInCU: 0x5ECF2, offset: 0x5ECF2, size: 0x8, addend: 0x0, symName: __ZNSt3__116reverse_iteratorINS0_IPN3olc13DecalInstanceEEEEC2B8ue170006ES4_, symObjAddr: 0x2DAF0, symBinAddr: 0x10002F7E0, symSize: 0x2C }
  - { offsetInCU: 0x5ED2A, offset: 0x5ED2A, size: 0x8, addend: 0x0, symName: __ZNSt3__116reverse_iteratorIPN3olc13DecalInstanceEEC2B8ue170006ES3_, symObjAddr: 0x2DB1C, symBinAddr: 0x10002F80C, symSize: 0x28 }
  - { offsetInCU: 0x5ED62, offset: 0x5ED62, size: 0x8, addend: 0x0, symName: __ZNSt3__114__split_bufferIN3olc13DecalInstanceERNS_9allocatorIS2_EEED2Ev, symObjAddr: 0x2DB44, symBinAddr: 0x10002F834, symSize: 0x8C }
  - { offsetInCU: 0x5ED8E, offset: 0x5ED8E, size: 0x8, addend: 0x0, symName: __ZNSt3__114__split_bufferIN3olc13DecalInstanceERNS_9allocatorIS2_EEE5clearB8ue170006Ev, symObjAddr: 0x2DBD0, symBinAddr: 0x10002F8C0, symSize: 0x28 }
  - { offsetInCU: 0x5EDB4, offset: 0x5EDB4, size: 0x8, addend: 0x0, symName: __ZNKSt3__114__split_bufferIN3olc13DecalInstanceERNS_9allocatorIS2_EEE8capacityB8ue170006Ev, symObjAddr: 0x2DBF8, symBinAddr: 0x10002F8E8, symSize: 0x40 }
  - { offsetInCU: 0x5EDDA, offset: 0x5EDDA, size: 0x8, addend: 0x0, symName: __ZNSt3__114__split_bufferIN3olc13DecalInstanceERNS_9allocatorIS2_EEE17__destruct_at_endB8ue170006EPS2_, symObjAddr: 0x2DC38, symBinAddr: 0x10002F928, symSize: 0x2C }
  - { offsetInCU: 0x5EE0E, offset: 0x5EE0E, size: 0x8, addend: 0x0, symName: __ZNSt3__114__split_bufferIN3olc13DecalInstanceERNS_9allocatorIS2_EEE17__destruct_at_endB8ue170006EPS2_NS_17integral_constantIbLb0EEE, symObjAddr: 0x2DC64, symBinAddr: 0x10002F954, symSize: 0x80 }
  - { offsetInCU: 0x5EE4E, offset: 0x5EE4E, size: 0x8, addend: 0x0, symName: __ZNKSt3__114__split_bufferIN3olc13DecalInstanceERNS_9allocatorIS2_EEE9__end_capB8ue170006Ev, symObjAddr: 0x2DCE4, symBinAddr: 0x10002F9D4, symSize: 0x28 }
  - { offsetInCU: 0x5EE74, offset: 0x5EE74, size: 0x8, addend: 0x0, symName: __ZNKSt3__117__compressed_pairIPN3olc13DecalInstanceERNS_9allocatorIS2_EEE5firstB8ue170006Ev, symObjAddr: 0x2DD0C, symBinAddr: 0x10002F9FC, symSize: 0x24 }
  - { offsetInCU: 0x5EE9A, offset: 0x5EE9A, size: 0x8, addend: 0x0, symName: __ZN3olc13DecalInstanceD2Ev, symObjAddr: 0x2DD30, symBinAddr: 0x10002FA20, symSize: 0x54 }
  - { offsetInCU: 0x5EEC7, offset: 0x5EEC7, size: 0x8, addend: 0x0, symName: __ZNSt3__16vectorIN3olc11v2d_genericIfEENS_9allocatorIS3_EEE8__appendEm, symObjAddr: 0x2DD84, symBinAddr: 0x10002FA74, symSize: 0x108 }
  - { offsetInCU: 0x5EF23, offset: 0x5EF23, size: 0x8, addend: 0x0, symName: __ZNSt3__16vectorIN3olc11v2d_genericIfEENS_9allocatorIS3_EEE18__construct_at_endEm, symObjAddr: 0x2DE8C, symBinAddr: 0x10002FB7C, symSize: 0xC8 }
  - { offsetInCU: 0x5EF96, offset: 0x5EF96, size: 0x8, addend: 0x0, symName: __ZNSt3__114__split_bufferIN3olc11v2d_genericIfEERNS_9allocatorIS3_EEEC1EmmS6_, symObjAddr: 0x2DF54, symBinAddr: 0x10002FC44, symSize: 0x44 }
  - { offsetInCU: 0x5EFEC, offset: 0x5EFEC, size: 0x8, addend: 0x0, symName: __ZNSt3__114__split_bufferIN3olc11v2d_genericIfEERNS_9allocatorIS3_EEE18__construct_at_endEm, symObjAddr: 0x2DF98, symBinAddr: 0x10002FC88, symSize: 0xB4 }
  - { offsetInCU: 0x5F031, offset: 0x5F031, size: 0x8, addend: 0x0, symName: __ZNSt3__114__split_bufferIN3olc11v2d_genericIfEERNS_9allocatorIS3_EEED1Ev, symObjAddr: 0x2E15C, symBinAddr: 0x10002FE4C, symSize: 0x2C }
  - { offsetInCU: 0x5F05D, offset: 0x5F05D, size: 0x8, addend: 0x0, symName: __ZNSt3__116allocator_traitsINS_9allocatorIN3olc11v2d_genericIfEEEEE9constructB8ue170006IS4_JEvvEEvRS5_PT_DpOT0_, symObjAddr: 0x2E188, symBinAddr: 0x10002FE78, symSize: 0x28 }
  - { offsetInCU: 0x5F09D, offset: 0x5F09D, size: 0x8, addend: 0x0, symName: __ZNSt3__114__split_bufferIN3olc11v2d_genericIfEERNS_9allocatorIS3_EEEC2EmmS6_, symObjAddr: 0x2E1E4, symBinAddr: 0x10002FED4, symSize: 0xD4 }
  - { offsetInCU: 0x5F111, offset: 0x5F111, size: 0x8, addend: 0x0, symName: __ZNSt3__117__compressed_pairIPN3olc11v2d_genericIfEERNS_9allocatorIS3_EEEC1B8ue170006IDnS7_EEOT_OT0_, symObjAddr: 0x2E2B8, symBinAddr: 0x10002FFA8, symSize: 0x3C }
  - { offsetInCU: 0x5F169, offset: 0x5F169, size: 0x8, addend: 0x0, symName: __ZNSt3__114__split_bufferIN3olc11v2d_genericIfEERNS_9allocatorIS3_EEE7__allocB8ue170006Ev, symObjAddr: 0x2E2F4, symBinAddr: 0x10002FFE4, symSize: 0x28 }
  - { offsetInCU: 0x5F18F, offset: 0x5F18F, size: 0x8, addend: 0x0, symName: __ZNSt3__114__split_bufferIN3olc11v2d_genericIfEERNS_9allocatorIS3_EEE9__end_capB8ue170006Ev, symObjAddr: 0x2E31C, symBinAddr: 0x10003000C, symSize: 0x28 }
  - { offsetInCU: 0x5F1B5, offset: 0x5F1B5, size: 0x8, addend: 0x0, symName: __ZNSt3__117__compressed_pairIPN3olc11v2d_genericIfEERNS_9allocatorIS3_EEEC2B8ue170006IDnS7_EEOT_OT0_, symObjAddr: 0x2E344, symBinAddr: 0x100030034, symSize: 0x48 }
  - { offsetInCU: 0x5F20D, offset: 0x5F20D, size: 0x8, addend: 0x0, symName: __ZNSt3__122__compressed_pair_elemIRNS_9allocatorIN3olc11v2d_genericIfEEEELi1ELb0EEC2B8ue170006IS6_vEEOT_, symObjAddr: 0x2E38C, symBinAddr: 0x10003007C, symSize: 0x20 }
  - { offsetInCU: 0x5F24F, offset: 0x5F24F, size: 0x8, addend: 0x0, symName: __ZNSt3__117__compressed_pairIPN3olc11v2d_genericIfEERNS_9allocatorIS3_EEE6secondB8ue170006Ev, symObjAddr: 0x2E3AC, symBinAddr: 0x10003009C, symSize: 0x28 }
  - { offsetInCU: 0x5F275, offset: 0x5F275, size: 0x8, addend: 0x0, symName: __ZNSt3__122__compressed_pair_elemIRNS_9allocatorIN3olc11v2d_genericIfEEEELi1ELb0EE5__getB8ue170006Ev, symObjAddr: 0x2E3D4, symBinAddr: 0x1000300C4, symSize: 0x18 }
  - { offsetInCU: 0x5F29B, offset: 0x5F29B, size: 0x8, addend: 0x0, symName: __ZNSt3__117__compressed_pairIPN3olc11v2d_genericIfEERNS_9allocatorIS3_EEE5firstB8ue170006Ev, symObjAddr: 0x2E3EC, symBinAddr: 0x1000300DC, symSize: 0x24 }
  - { offsetInCU: 0x5F2CB, offset: 0x5F2CB, size: 0x8, addend: 0x0, symName: __ZNSt3__114__split_bufferIN3olc11v2d_genericIfEERNS_9allocatorIS3_EEE21_ConstructTransactionC1B8ue170006EPPS3_m, symObjAddr: 0x2E410, symBinAddr: 0x100030100, symSize: 0x3C }
  - { offsetInCU: 0x5F311, offset: 0x5F311, size: 0x8, addend: 0x0, symName: __ZNSt3__114__split_bufferIN3olc11v2d_genericIfEERNS_9allocatorIS3_EEE21_ConstructTransactionD1B8ue170006Ev, symObjAddr: 0x2E44C, symBinAddr: 0x10003013C, symSize: 0x2C }
  - { offsetInCU: 0x5F33B, offset: 0x5F33B, size: 0x8, addend: 0x0, symName: __ZNSt3__114__split_bufferIN3olc11v2d_genericIfEERNS_9allocatorIS3_EEE21_ConstructTransactionC2B8ue170006EPPS3_m, symObjAddr: 0x2E478, symBinAddr: 0x100030168, symSize: 0x44 }
  - { offsetInCU: 0x5F381, offset: 0x5F381, size: 0x8, addend: 0x0, symName: __ZNSt3__114__split_bufferIN3olc11v2d_genericIfEERNS_9allocatorIS3_EEE21_ConstructTransactionD2B8ue170006Ev, symObjAddr: 0x2E4BC, symBinAddr: 0x1000301AC, symSize: 0x20 }
  - { offsetInCU: 0x5F3AB, offset: 0x5F3AB, size: 0x8, addend: 0x0, symName: __ZNSt3__129_AllocatorDestroyRangeReverseINS_9allocatorIN3olc11v2d_genericIfEEEENS_16reverse_iteratorIPS4_EEEC1B8ue170006ERS5_RS8_SB_, symObjAddr: 0x2E688, symBinAddr: 0x100030378, symSize: 0x44 }
  - { offsetInCU: 0x5F402, offset: 0x5F402, size: 0x8, addend: 0x0, symName: __ZNKSt3__116reverse_iteratorIPN3olc11v2d_genericIfEEEdeB8ue170006Ev, symObjAddr: 0x2E6CC, symBinAddr: 0x1000303BC, symSize: 0x28 }
  - { offsetInCU: 0x5F437, offset: 0x5F437, size: 0x8, addend: 0x0, symName: __ZNSt3__128__exception_guard_exceptionsINS_29_AllocatorDestroyRangeReverseINS_9allocatorIN3olc11v2d_genericIfEEEENS_16reverse_iteratorIPS5_EEEEE10__completeB8ue170006Ev, symObjAddr: 0x2E6F4, symBinAddr: 0x1000303E4, symSize: 0x1C }
  - { offsetInCU: 0x5F45D, offset: 0x5F45D, size: 0x8, addend: 0x0, symName: __ZNSt3__128__exception_guard_exceptionsINS_29_AllocatorDestroyRangeReverseINS_9allocatorIN3olc11v2d_genericIfEEEENS_16reverse_iteratorIPS5_EEEEED1B8ue170006Ev, symObjAddr: 0x2E710, symBinAddr: 0x100030400, symSize: 0x2C }
  - { offsetInCU: 0x5F487, offset: 0x5F487, size: 0x8, addend: 0x0, symName: __ZNSt3__128__exception_guard_exceptionsINS_29_AllocatorDestroyRangeReverseINS_9allocatorIN3olc11v2d_genericIfEEEENS_16reverse_iteratorIPS5_EEEEEC1B8ue170006ESA_, symObjAddr: 0x2E73C, symBinAddr: 0x10003042C, symSize: 0x34 }
  - { offsetInCU: 0x5F4C0, offset: 0x5F4C0, size: 0x8, addend: 0x0, symName: __ZNSt3__128__exception_guard_exceptionsINS_29_AllocatorDestroyRangeReverseINS_9allocatorIN3olc11v2d_genericIfEEEENS_16reverse_iteratorIPS5_EEEEEC2B8ue170006ESA_, symObjAddr: 0x2E770, symBinAddr: 0x100030460, symSize: 0x30 }
  - { offsetInCU: 0x5F4F9, offset: 0x5F4F9, size: 0x8, addend: 0x0, symName: __ZNSt3__129_AllocatorDestroyRangeReverseINS_9allocatorIN3olc11v2d_genericIfEEEENS_16reverse_iteratorIPS4_EEEC2B8ue170006ERS5_RS8_SB_, symObjAddr: 0x2E7A0, symBinAddr: 0x100030490, symSize: 0x38 }
  - { offsetInCU: 0x5F550, offset: 0x5F550, size: 0x8, addend: 0x0, symName: __ZNSt3__128__exception_guard_exceptionsINS_29_AllocatorDestroyRangeReverseINS_9allocatorIN3olc11v2d_genericIfEEEENS_16reverse_iteratorIPS5_EEEEED2B8ue170006Ev, symObjAddr: 0x2E7D8, symBinAddr: 0x1000304C8, symSize: 0x50 }
  - { offsetInCU: 0x5F57A, offset: 0x5F57A, size: 0x8, addend: 0x0, symName: __ZNKSt3__129_AllocatorDestroyRangeReverseINS_9allocatorIN3olc11v2d_genericIfEEEENS_16reverse_iteratorIPS4_EEEclB8ue170006Ev, symObjAddr: 0x2E828, symBinAddr: 0x100030518, symSize: 0xB4 }
  - { offsetInCU: 0x5F5A1, offset: 0x5F5A1, size: 0x8, addend: 0x0, symName: __ZNSt3__116reverse_iteratorINS0_IPN3olc11v2d_genericIfEEEEEC1B8ue170006ES5_, symObjAddr: 0x2E94C, symBinAddr: 0x10003063C, symSize: 0x3C }
  - { offsetInCU: 0x5F5D9, offset: 0x5F5D9, size: 0x8, addend: 0x0, symName: __ZNSt3__116reverse_iteratorINS0_IPN3olc11v2d_genericIfEEEEEppB8ue170006Ev, symObjAddr: 0x2EA0C, symBinAddr: 0x1000306FC, symSize: 0x30 }
  - { offsetInCU: 0x5F5FF, offset: 0x5F5FF, size: 0x8, addend: 0x0, symName: __ZNKSt3__116reverse_iteratorINS0_IPN3olc11v2d_genericIfEEEEE4baseB8ue170006Ev, symObjAddr: 0x2EA3C, symBinAddr: 0x10003072C, symSize: 0x24 }
  - { offsetInCU: 0x5F62A, offset: 0x5F62A, size: 0x8, addend: 0x0, symName: __ZNSt3__119__to_address_helperINS_16reverse_iteratorINS1_IPN3olc11v2d_genericIfEEEEEEvE6__callB8ue170006ERKS7_, symObjAddr: 0x2EA60, symBinAddr: 0x100030750, symSize: 0x38 }
  - { offsetInCU: 0x5F64D, offset: 0x5F64D, size: 0x8, addend: 0x0, symName: __ZNKSt3__116reverse_iteratorINS0_IPN3olc11v2d_genericIfEEEEEptB8ue170006Ev, symObjAddr: 0x2EA98, symBinAddr: 0x100030788, symSize: 0x4C }
  - { offsetInCU: 0x5F673, offset: 0x5F673, size: 0x8, addend: 0x0, symName: __ZNSt3__116reverse_iteratorIPN3olc11v2d_genericIfEEEpLB8ue170006El, symObjAddr: 0x2EB94, symBinAddr: 0x100030884, symSize: 0x30 }
  - { offsetInCU: 0x5F6A7, offset: 0x5F6A7, size: 0x8, addend: 0x0, symName: __ZNSt3__116reverse_iteratorIPN3olc11v2d_genericIfEEEmmB8ue170006Ev, symObjAddr: 0x2EBC4, symBinAddr: 0x1000308B4, symSize: 0x20 }
  - { offsetInCU: 0x5F6CD, offset: 0x5F6CD, size: 0x8, addend: 0x0, symName: __ZNSt3__116reverse_iteratorINS0_IPN3olc11v2d_genericIfEEEEEC2B8ue170006ES5_, symObjAddr: 0x2EBE4, symBinAddr: 0x1000308D4, symSize: 0x2C }
  - { offsetInCU: 0x5F705, offset: 0x5F705, size: 0x8, addend: 0x0, symName: __ZNSt3__114__split_bufferIN3olc11v2d_genericIfEERNS_9allocatorIS3_EEED2Ev, symObjAddr: 0x2EC10, symBinAddr: 0x100030900, symSize: 0x8C }
  - { offsetInCU: 0x5F731, offset: 0x5F731, size: 0x8, addend: 0x0, symName: __ZNSt3__114__split_bufferIN3olc11v2d_genericIfEERNS_9allocatorIS3_EEE5clearB8ue170006Ev, symObjAddr: 0x2EC9C, symBinAddr: 0x10003098C, symSize: 0x28 }
  - { offsetInCU: 0x5F757, offset: 0x5F757, size: 0x8, addend: 0x0, symName: __ZNKSt3__114__split_bufferIN3olc11v2d_genericIfEERNS_9allocatorIS3_EEE8capacityB8ue170006Ev, symObjAddr: 0x2ECC4, symBinAddr: 0x1000309B4, symSize: 0x40 }
  - { offsetInCU: 0x5F77D, offset: 0x5F77D, size: 0x8, addend: 0x0, symName: __ZNSt3__114__split_bufferIN3olc11v2d_genericIfEERNS_9allocatorIS3_EEE17__destruct_at_endB8ue170006EPS3_, symObjAddr: 0x2ED04, symBinAddr: 0x1000309F4, symSize: 0x2C }
  - { offsetInCU: 0x5F7B1, offset: 0x5F7B1, size: 0x8, addend: 0x0, symName: __ZNSt3__114__split_bufferIN3olc11v2d_genericIfEERNS_9allocatorIS3_EEE17__destruct_at_endB8ue170006EPS3_NS_17integral_constantIbLb0EEE, symObjAddr: 0x2ED30, symBinAddr: 0x100030A20, symSize: 0x80 }
  - { offsetInCU: 0x5F7F1, offset: 0x5F7F1, size: 0x8, addend: 0x0, symName: __ZNKSt3__114__split_bufferIN3olc11v2d_genericIfEERNS_9allocatorIS3_EEE9__end_capB8ue170006Ev, symObjAddr: 0x2EDB0, symBinAddr: 0x100030AA0, symSize: 0x28 }
  - { offsetInCU: 0x5F817, offset: 0x5F817, size: 0x8, addend: 0x0, symName: __ZNKSt3__117__compressed_pairIPN3olc11v2d_genericIfEERNS_9allocatorIS3_EEE5firstB8ue170006Ev, symObjAddr: 0x2EDD8, symBinAddr: 0x100030AC8, symSize: 0x24 }
  - { offsetInCU: 0x5F83D, offset: 0x5F83D, size: 0x8, addend: 0x0, symName: __ZNSt3__16vectorIfNS_9allocatorIfEEE8__appendEm, symObjAddr: 0x2EDFC, symBinAddr: 0x100030AEC, symSize: 0x108 }
  - { offsetInCU: 0x5F899, offset: 0x5F899, size: 0x8, addend: 0x0, symName: __ZNSt3__16vectorIfNS_9allocatorIfEEE18__construct_at_endEm, symObjAddr: 0x2EF04, symBinAddr: 0x100030BF4, symSize: 0xC8 }
  - { offsetInCU: 0x5F90C, offset: 0x5F90C, size: 0x8, addend: 0x0, symName: __ZNSt3__114__split_bufferIfRNS_9allocatorIfEEEC1EmmS3_, symObjAddr: 0x2EFCC, symBinAddr: 0x100030CBC, symSize: 0x44 }
  - { offsetInCU: 0x5F962, offset: 0x5F962, size: 0x8, addend: 0x0, symName: __ZNSt3__114__split_bufferIfRNS_9allocatorIfEEE18__construct_at_endEm, symObjAddr: 0x2F010, symBinAddr: 0x100030D00, symSize: 0xB4 }
  - { offsetInCU: 0x5F9A7, offset: 0x5F9A7, size: 0x8, addend: 0x0, symName: __ZNSt3__114__split_bufferIfRNS_9allocatorIfEEED1Ev, symObjAddr: 0x2F1D4, symBinAddr: 0x100030EC4, symSize: 0x2C }
  - { offsetInCU: 0x5F9D3, offset: 0x5F9D3, size: 0x8, addend: 0x0, symName: __ZNSt3__116allocator_traitsINS_9allocatorIfEEE9constructB8ue170006IfJEvvEEvRS2_PT_DpOT0_, symObjAddr: 0x2F200, symBinAddr: 0x100030EF0, symSize: 0x28 }
  - { offsetInCU: 0x5FA13, offset: 0x5FA13, size: 0x8, addend: 0x0, symName: __ZNSt3__114__split_bufferIfRNS_9allocatorIfEEEC2EmmS3_, symObjAddr: 0x2F24C, symBinAddr: 0x100030F3C, symSize: 0xD4 }
  - { offsetInCU: 0x5FA87, offset: 0x5FA87, size: 0x8, addend: 0x0, symName: __ZNSt3__117__compressed_pairIPfRNS_9allocatorIfEEEC1B8ue170006IDnS4_EEOT_OT0_, symObjAddr: 0x2F320, symBinAddr: 0x100031010, symSize: 0x3C }
  - { offsetInCU: 0x5FADF, offset: 0x5FADF, size: 0x8, addend: 0x0, symName: __ZNSt3__114__split_bufferIfRNS_9allocatorIfEEE7__allocB8ue170006Ev, symObjAddr: 0x2F35C, symBinAddr: 0x10003104C, symSize: 0x28 }
  - { offsetInCU: 0x5FB05, offset: 0x5FB05, size: 0x8, addend: 0x0, symName: __ZNSt3__114__split_bufferIfRNS_9allocatorIfEEE9__end_capB8ue170006Ev, symObjAddr: 0x2F384, symBinAddr: 0x100031074, symSize: 0x28 }
  - { offsetInCU: 0x5FB2B, offset: 0x5FB2B, size: 0x8, addend: 0x0, symName: __ZNSt3__117__compressed_pairIPfRNS_9allocatorIfEEEC2B8ue170006IDnS4_EEOT_OT0_, symObjAddr: 0x2F3AC, symBinAddr: 0x10003109C, symSize: 0x48 }
  - { offsetInCU: 0x5FB83, offset: 0x5FB83, size: 0x8, addend: 0x0, symName: __ZNSt3__122__compressed_pair_elemIRNS_9allocatorIfEELi1ELb0EEC2B8ue170006IS3_vEEOT_, symObjAddr: 0x2F3F4, symBinAddr: 0x1000310E4, symSize: 0x20 }
  - { offsetInCU: 0x5FBC5, offset: 0x5FBC5, size: 0x8, addend: 0x0, symName: __ZNSt3__117__compressed_pairIPfRNS_9allocatorIfEEE6secondB8ue170006Ev, symObjAddr: 0x2F414, symBinAddr: 0x100031104, symSize: 0x28 }
  - { offsetInCU: 0x5FBEB, offset: 0x5FBEB, size: 0x8, addend: 0x0, symName: __ZNSt3__122__compressed_pair_elemIRNS_9allocatorIfEELi1ELb0EE5__getB8ue170006Ev, symObjAddr: 0x2F43C, symBinAddr: 0x10003112C, symSize: 0x18 }
  - { offsetInCU: 0x5FC11, offset: 0x5FC11, size: 0x8, addend: 0x0, symName: __ZNSt3__117__compressed_pairIPfRNS_9allocatorIfEEE5firstB8ue170006Ev, symObjAddr: 0x2F454, symBinAddr: 0x100031144, symSize: 0x24 }
  - { offsetInCU: 0x5FC41, offset: 0x5FC41, size: 0x8, addend: 0x0, symName: __ZNSt3__114__split_bufferIfRNS_9allocatorIfEEE21_ConstructTransactionC1B8ue170006EPPfm, symObjAddr: 0x2F478, symBinAddr: 0x100031168, symSize: 0x3C }
  - { offsetInCU: 0x5FC87, offset: 0x5FC87, size: 0x8, addend: 0x0, symName: __ZNSt3__114__split_bufferIfRNS_9allocatorIfEEE21_ConstructTransactionD1B8ue170006Ev, symObjAddr: 0x2F4B4, symBinAddr: 0x1000311A4, symSize: 0x2C }
  - { offsetInCU: 0x5FCB1, offset: 0x5FCB1, size: 0x8, addend: 0x0, symName: __ZNSt3__114__split_bufferIfRNS_9allocatorIfEEE21_ConstructTransactionC2B8ue170006EPPfm, symObjAddr: 0x2F4E0, symBinAddr: 0x1000311D0, symSize: 0x44 }
  - { offsetInCU: 0x5FCF7, offset: 0x5FCF7, size: 0x8, addend: 0x0, symName: __ZNSt3__114__split_bufferIfRNS_9allocatorIfEEE21_ConstructTransactionD2B8ue170006Ev, symObjAddr: 0x2F524, symBinAddr: 0x100031214, symSize: 0x20 }
  - { offsetInCU: 0x5FD21, offset: 0x5FD21, size: 0x8, addend: 0x0, symName: __ZNSt3__116reverse_iteratorIPfEC1B8ue170006ES1_, symObjAddr: 0x2F5BC, symBinAddr: 0x1000312AC, symSize: 0x34 }
  - { offsetInCU: 0x5FD59, offset: 0x5FD59, size: 0x8, addend: 0x0, symName: __ZNKSt3__116reverse_iteratorIPfE4baseB8ue170006Ev, symObjAddr: 0x2F5F0, symBinAddr: 0x1000312E0, symSize: 0x18 }
  - { offsetInCU: 0x5FD99, offset: 0x5FD99, size: 0x8, addend: 0x0, symName: __ZNKSt3__111__move_loopINS_17_ClassicAlgPolicyEEclB8ue170006INS_16reverse_iteratorIPfEES6_S6_EENS_4pairIT_T1_EES8_T0_S9_, symObjAddr: 0x2F8FC, symBinAddr: 0x1000315EC, symSize: 0xA0 }
  - { offsetInCU: 0x5FE04, offset: 0x5FE04, size: 0x8, addend: 0x0, symName: __ZNSt3__119__unwrap_range_implINS_16reverse_iteratorIPfEES3_E8__unwrapB8ue170006ES3_S3_, symObjAddr: 0x2FAE8, symBinAddr: 0x1000317D8, symSize: 0x84 }
  - { offsetInCU: 0x5FE3B, offset: 0x5FE3B, size: 0x8, addend: 0x0, symName: __ZNSt3__14pairINS_16reverse_iteratorIPfEES3_EC1B8ue170006IS3_S3_LPv0EEEOT_OT0_, symObjAddr: 0x2FB6C, symBinAddr: 0x10003185C, symSize: 0x3C }
  - { offsetInCU: 0x5FE99, offset: 0x5FE99, size: 0x8, addend: 0x0, symName: __ZNSt3__14pairINS_16reverse_iteratorIPfEES3_EC2B8ue170006IS3_S3_LPv0EEEOT_OT0_, symObjAddr: 0x2FBA8, symBinAddr: 0x100031898, symSize: 0x34 }
  - { offsetInCU: 0x5FEFD, offset: 0x5FEFD, size: 0x8, addend: 0x0, symName: __ZNSt3__18_IterOpsINS_17_ClassicAlgPolicyEE11__iter_moveB8ue170006IRNS_16reverse_iteratorIPfEEEENS_9enable_ifIXsr12is_referenceIDTdeclsr3stdE7declvalIRT_EEEEE5valueEDTclsr3stdE4movedeclsr3stdE7declvalISA_EEEEE4typeEOS9_, symObjAddr: 0x2FC24, symBinAddr: 0x100031914, symSize: 0x28 }
  - { offsetInCU: 0x5FF29, offset: 0x5FF29, size: 0x8, addend: 0x0, symName: __ZNKSt3__116reverse_iteratorIPfEdeB8ue170006Ev, symObjAddr: 0x2FC4C, symBinAddr: 0x10003193C, symSize: 0x28 }
  - { offsetInCU: 0x5FF5E, offset: 0x5FF5E, size: 0x8, addend: 0x0, symName: __ZNSt3__116reverse_iteratorIPfEppB8ue170006Ev, symObjAddr: 0x2FC74, symBinAddr: 0x100031964, symSize: 0x20 }
  - { offsetInCU: 0x5FF84, offset: 0x5FF84, size: 0x8, addend: 0x0, symName: __ZNSt3__18_IterOpsINS_17_ClassicAlgPolicyEE25__validate_iter_referenceB8ue170006IRNS_16reverse_iteratorIPfEEEEvv, symObjAddr: 0x2FC94, symBinAddr: 0x100031984, symSize: 0x4 }
  - { offsetInCU: 0x5FFA2, offset: 0x5FFA2, size: 0x8, addend: 0x0, symName: __ZNSt3__118__unwrap_iter_implINS_16reverse_iteratorIPfEELb0EE8__unwrapB8ue170006ES3_, symObjAddr: 0x2FC98, symBinAddr: 0x100031988, symSize: 0x24 }
  - { offsetInCU: 0x5FFC5, offset: 0x5FFC5, size: 0x8, addend: 0x0, symName: __ZNSt3__119__unwrap_range_implINS_16reverse_iteratorIPfEES3_E8__rewrapB8ue170006ES3_S3_, symObjAddr: 0x2FCBC, symBinAddr: 0x1000319AC, symSize: 0x5C }
  - { offsetInCU: 0x5FFF6, offset: 0x5FFF6, size: 0x8, addend: 0x0, symName: __ZNSt3__118__unwrap_iter_implINS_16reverse_iteratorIPfEELb0EE8__rewrapB8ue170006ES3_S3_, symObjAddr: 0x2FD18, symBinAddr: 0x100031A08, symSize: 0x2C }
  - { offsetInCU: 0x60023, offset: 0x60023, size: 0x8, addend: 0x0, symName: __ZNSt3__116reverse_iteratorIPfEC2B8ue170006ES1_, symObjAddr: 0x2FD44, symBinAddr: 0x100031A34, symSize: 0x28 }
  - { offsetInCU: 0x6005B, offset: 0x6005B, size: 0x8, addend: 0x0, symName: __ZNSt3__114__split_bufferIfRNS_9allocatorIfEEED2Ev, symObjAddr: 0x2FD6C, symBinAddr: 0x100031A5C, symSize: 0x8C }
  - { offsetInCU: 0x60087, offset: 0x60087, size: 0x8, addend: 0x0, symName: __ZNSt3__114__split_bufferIfRNS_9allocatorIfEEE5clearB8ue170006Ev, symObjAddr: 0x2FDF8, symBinAddr: 0x100031AE8, symSize: 0x28 }
  - { offsetInCU: 0x600AD, offset: 0x600AD, size: 0x8, addend: 0x0, symName: __ZNKSt3__114__split_bufferIfRNS_9allocatorIfEEE8capacityB8ue170006Ev, symObjAddr: 0x2FE20, symBinAddr: 0x100031B10, symSize: 0x40 }
  - { offsetInCU: 0x600D3, offset: 0x600D3, size: 0x8, addend: 0x0, symName: __ZNSt3__114__split_bufferIfRNS_9allocatorIfEEE17__destruct_at_endB8ue170006EPf, symObjAddr: 0x2FE60, symBinAddr: 0x100031B50, symSize: 0x2C }
  - { offsetInCU: 0x60107, offset: 0x60107, size: 0x8, addend: 0x0, symName: __ZNSt3__114__split_bufferIfRNS_9allocatorIfEEE17__destruct_at_endB8ue170006EPfNS_17integral_constantIbLb0EEE, symObjAddr: 0x2FE8C, symBinAddr: 0x100031B7C, symSize: 0x80 }
  - { offsetInCU: 0x60147, offset: 0x60147, size: 0x8, addend: 0x0, symName: __ZNKSt3__114__split_bufferIfRNS_9allocatorIfEEE9__end_capB8ue170006Ev, symObjAddr: 0x2FF0C, symBinAddr: 0x100031BFC, symSize: 0x28 }
  - { offsetInCU: 0x6016D, offset: 0x6016D, size: 0x8, addend: 0x0, symName: __ZNKSt3__117__compressed_pairIPfRNS_9allocatorIfEEE5firstB8ue170006Ev, symObjAddr: 0x2FF34, symBinAddr: 0x100031C24, symSize: 0x24 }
  - { offsetInCU: 0x60193, offset: 0x60193, size: 0x8, addend: 0x0, symName: __ZNSt3__16vectorIN3olc5PixelENS_9allocatorIS2_EEEC2EmRKS2_, symObjAddr: 0x2FF58, symBinAddr: 0x100031C48, symSize: 0xDC }
  - { offsetInCU: 0x601FD, offset: 0x601FD, size: 0x8, addend: 0x0, symName: '__ZZN3olc15PixelGameEngine16DrawPolygonDecalEPNS_5DecalERKNSt3__16vectorINS_11v2d_genericIfEENS3_9allocatorIS6_EEEESB_RKNS4_INS_5PixelENS7_ISC_EEEESC_ENK3$_0clESC_', symObjAddr: 0x30068, symBinAddr: 0x100031D58, symSize: 0x40 }
  - { offsetInCU: 0x60236, offset: 0x60236, size: 0x8, addend: 0x0, symName: __ZNKSt3__111__wrap_iterIPKN3olc5PixelEEdeB8ue170006Ev, symObjAddr: 0x300A8, symBinAddr: 0x100031D98, symSize: 0x18 }
  - { offsetInCU: 0x6025C, offset: 0x6025C, size: 0x8, addend: 0x0, symName: __ZNKSt3__111__wrap_iterIPN3olc5PixelEEdeB8ue170006Ev, symObjAddr: 0x300C0, symBinAddr: 0x100031DB0, symSize: 0x18 }
  - { offsetInCU: 0x60282, offset: 0x60282, size: 0x8, addend: 0x0, symName: __ZNSt3__111__wrap_iterIPKN3olc5PixelEEppB8ue170006Ev, symObjAddr: 0x300D8, symBinAddr: 0x100031DC8, symSize: 0x20 }
  - { offsetInCU: 0x602A8, offset: 0x602A8, size: 0x8, addend: 0x0, symName: __ZNSt3__111__wrap_iterIPN3olc5PixelEEppB8ue170006Ev, symObjAddr: 0x300F8, symBinAddr: 0x100031DE8, symSize: 0x20 }
  - { offsetInCU: 0x602CE, offset: 0x602CE, size: 0x8, addend: 0x0, symName: __ZNKSt3__111__wrap_iterIPKN3olc5PixelEE4baseB8ue170006Ev, symObjAddr: 0x30160, symBinAddr: 0x100031E50, symSize: 0x18 }
  - { offsetInCU: 0x602F4, offset: 0x602F4, size: 0x8, addend: 0x0, symName: __ZNKSt3__16vectorIN3olc5PixelENS_9allocatorIS2_EEE11__make_iterB8ue170006EPKS2_, symObjAddr: 0x30178, symBinAddr: 0x100031E68, symSize: 0x30 }
  - { offsetInCU: 0x60329, offset: 0x60329, size: 0x8, addend: 0x0, symName: __ZNSt3__111__wrap_iterIPKN3olc5PixelEEC1B8ue170006ES4_, symObjAddr: 0x301A8, symBinAddr: 0x100031E98, symSize: 0x34 }
  - { offsetInCU: 0x60361, offset: 0x60361, size: 0x8, addend: 0x0, symName: __ZNSt3__111__wrap_iterIPKN3olc5PixelEEC2B8ue170006ES4_, symObjAddr: 0x301DC, symBinAddr: 0x100031ECC, symSize: 0x20 }
  - { offsetInCU: 0x60399, offset: 0x60399, size: 0x8, addend: 0x0, symName: __ZNSt3__16vectorIN3olc5PixelENS_9allocatorIS2_EEE11__make_iterB8ue170006EPS2_, symObjAddr: 0x301FC, symBinAddr: 0x100031EEC, symSize: 0x30 }
  - { offsetInCU: 0x603CE, offset: 0x603CE, size: 0x8, addend: 0x0, symName: __ZNSt3__111__wrap_iterIPN3olc5PixelEEC1B8ue170006ES3_, symObjAddr: 0x3022C, symBinAddr: 0x100031F1C, symSize: 0x34 }
  - { offsetInCU: 0x60406, offset: 0x60406, size: 0x8, addend: 0x0, symName: __ZNSt3__111__wrap_iterIPN3olc5PixelEEC2B8ue170006ES3_, symObjAddr: 0x30260, symBinAddr: 0x100031F50, symSize: 0x20 }
  - { offsetInCU: 0x6043E, offset: 0x6043E, size: 0x8, addend: 0x0, symName: __ZNKSt3__16vectorINS_12basic_stringIcNS_11char_traitsIcEENS_9allocatorIcEEEENS4_IS6_EEE17__annotate_shrinkB8ue170006Em, symObjAddr: 0x30280, symBinAddr: 0x100031F70, symSize: 0xD0 }
  - { offsetInCU: 0x60473, offset: 0x60473, size: 0x8, addend: 0x0, symName: __ZNSt3__16vectorINS_12basic_stringIcNS_11char_traitsIcEENS_9allocatorIcEEEENS4_IS6_EEE8__appendEm, symObjAddr: 0x30350, symBinAddr: 0x100032040, symSize: 0x108 }
  - { offsetInCU: 0x604CF, offset: 0x604CF, size: 0x8, addend: 0x0, symName: __ZNSt3__16vectorINS_12basic_stringIcNS_11char_traitsIcEENS_9allocatorIcEEEENS4_IS6_EEE17__destruct_at_endB8ue170006EPS6_, symObjAddr: 0x30458, symBinAddr: 0x100032148, symSize: 0x4C }
  - { offsetInCU: 0x60513, offset: 0x60513, size: 0x8, addend: 0x0, symName: __ZNSt3__16vectorINS_12basic_stringIcNS_11char_traitsIcEENS_9allocatorIcEEEENS4_IS6_EEE9__end_capB8ue170006Ev, symObjAddr: 0x304A4, symBinAddr: 0x100032194, symSize: 0x28 }
  - { offsetInCU: 0x60539, offset: 0x60539, size: 0x8, addend: 0x0, symName: __ZNSt3__16vectorINS_12basic_stringIcNS_11char_traitsIcEENS_9allocatorIcEEEENS4_IS6_EEE18__construct_at_endEm, symObjAddr: 0x304CC, symBinAddr: 0x1000321BC, symSize: 0xC8 }
  - { offsetInCU: 0x605AC, offset: 0x605AC, size: 0x8, addend: 0x0, symName: __ZNKSt3__16vectorINS_12basic_stringIcNS_11char_traitsIcEENS_9allocatorIcEEEENS4_IS6_EEE11__recommendB8ue170006Em, symObjAddr: 0x30594, symBinAddr: 0x100032284, symSize: 0xB4 }
  - { offsetInCU: 0x60601, offset: 0x60601, size: 0x8, addend: 0x0, symName: __ZNSt3__114__split_bufferINS_12basic_stringIcNS_11char_traitsIcEENS_9allocatorIcEEEERNS4_IS6_EEEC1EmmS8_, symObjAddr: 0x30648, symBinAddr: 0x100032338, symSize: 0x44 }
  - { offsetInCU: 0x60657, offset: 0x60657, size: 0x8, addend: 0x0, symName: __ZNSt3__114__split_bufferINS_12basic_stringIcNS_11char_traitsIcEENS_9allocatorIcEEEERNS4_IS6_EEE18__construct_at_endEm, symObjAddr: 0x3068C, symBinAddr: 0x10003237C, symSize: 0xB4 }
  - { offsetInCU: 0x6069C, offset: 0x6069C, size: 0x8, addend: 0x0, symName: __ZNSt3__114__split_bufferINS_12basic_stringIcNS_11char_traitsIcEENS_9allocatorIcEEEERNS4_IS6_EEED1Ev, symObjAddr: 0x30850, symBinAddr: 0x100032540, symSize: 0x2C }
  - { offsetInCU: 0x606C8, offset: 0x606C8, size: 0x8, addend: 0x0, symName: __ZNSt3__117__compressed_pairIPNS_12basic_stringIcNS_11char_traitsIcEENS_9allocatorIcEEEENS4_IS6_EEE5firstB8ue170006Ev, symObjAddr: 0x3087C, symBinAddr: 0x10003256C, symSize: 0x24 }
  - { offsetInCU: 0x606EE, offset: 0x606EE, size: 0x8, addend: 0x0, symName: __ZNSt3__122__compressed_pair_elemIPNS_12basic_stringIcNS_11char_traitsIcEENS_9allocatorIcEEEELi0ELb0EE5__getB8ue170006Ev, symObjAddr: 0x308A0, symBinAddr: 0x100032590, symSize: 0x14 }
  - { offsetInCU: 0x6072D, offset: 0x6072D, size: 0x8, addend: 0x0, symName: __ZNSt3__16vectorINS_12basic_stringIcNS_11char_traitsIcEENS_9allocatorIcEEEENS4_IS6_EEE21_ConstructTransactionC1B8ue170006ERS8_m, symObjAddr: 0x308B4, symBinAddr: 0x1000325A4, symSize: 0x3C }
  - { offsetInCU: 0x60775, offset: 0x60775, size: 0x8, addend: 0x0, symName: __ZNSt3__116allocator_traitsINS_9allocatorINS_12basic_stringIcNS_11char_traitsIcEENS1_IcEEEEEEE9constructB8ue170006IS6_JEvvEEvRS7_PT_DpOT0_, symObjAddr: 0x308F0, symBinAddr: 0x1000325E0, symSize: 0x28 }
  - { offsetInCU: 0x607B5, offset: 0x607B5, size: 0x8, addend: 0x0, symName: __ZNSt3__16vectorINS_12basic_stringIcNS_11char_traitsIcEENS_9allocatorIcEEEENS4_IS6_EEE21_ConstructTransactionD1B8ue170006Ev, symObjAddr: 0x30918, symBinAddr: 0x100032608, symSize: 0x2C }
  - { offsetInCU: 0x607DF, offset: 0x607DF, size: 0x8, addend: 0x0, symName: __ZNSt3__16vectorINS_12basic_stringIcNS_11char_traitsIcEENS_9allocatorIcEEEENS4_IS6_EEE21_ConstructTransactionC2B8ue170006ERS8_m, symObjAddr: 0x30944, symBinAddr: 0x100032634, symSize: 0x4C }
  - { offsetInCU: 0x60827, offset: 0x60827, size: 0x8, addend: 0x0, symName: __ZNSt3__16vectorINS_12basic_stringIcNS_11char_traitsIcEENS_9allocatorIcEEEENS4_IS6_EEE21_ConstructTransactionD2B8ue170006Ev, symObjAddr: 0x309C4, symBinAddr: 0x1000326B4, symSize: 0x20 }
  - { offsetInCU: 0x60851, offset: 0x60851, size: 0x8, addend: 0x0, symName: __ZNKSt3__16vectorINS_12basic_stringIcNS_11char_traitsIcEENS_9allocatorIcEEEENS4_IS6_EEE8max_sizeEv, symObjAddr: 0x309E4, symBinAddr: 0x1000326D4, symSize: 0x60 }
  - { offsetInCU: 0x60879, offset: 0x60879, size: 0x8, addend: 0x0, symName: __ZNKSt3__16vectorINS_12basic_stringIcNS_11char_traitsIcEENS_9allocatorIcEEEENS4_IS6_EEE20__throw_length_errorB8ue170006Ev, symObjAddr: 0x30A44, symBinAddr: 0x100032734, symSize: 0x1C }
  - { offsetInCU: 0x608A9, offset: 0x608A9, size: 0x8, addend: 0x0, symName: __ZNSt3__116allocator_traitsINS_9allocatorINS_12basic_stringIcNS_11char_traitsIcEENS1_IcEEEEEEE8max_sizeB8ue170006IS7_vvEEmRKS7_, symObjAddr: 0x30A60, symBinAddr: 0x100032750, symSize: 0x28 }
  - { offsetInCU: 0x608D5, offset: 0x608D5, size: 0x8, addend: 0x0, symName: __ZNKSt3__16vectorINS_12basic_stringIcNS_11char_traitsIcEENS_9allocatorIcEEEENS4_IS6_EEE7__allocB8ue170006Ev, symObjAddr: 0x30A88, symBinAddr: 0x100032778, symSize: 0x28 }
  - { offsetInCU: 0x608FB, offset: 0x608FB, size: 0x8, addend: 0x0, symName: __ZNKSt3__117__compressed_pairIPNS_12basic_stringIcNS_11char_traitsIcEENS_9allocatorIcEEEENS4_IS6_EEE6secondB8ue170006Ev, symObjAddr: 0x30AB0, symBinAddr: 0x1000327A0, symSize: 0x24 }
  - { offsetInCU: 0x60921, offset: 0x60921, size: 0x8, addend: 0x0, symName: __ZNKSt3__122__compressed_pair_elemINS_9allocatorINS_12basic_stringIcNS_11char_traitsIcEENS1_IcEEEEEELi1ELb1EE5__getB8ue170006Ev, symObjAddr: 0x30AD4, symBinAddr: 0x1000327C4, symSize: 0x14 }
  - { offsetInCU: 0x60947, offset: 0x60947, size: 0x8, addend: 0x0, symName: __ZNSt3__114__split_bufferINS_12basic_stringIcNS_11char_traitsIcEENS_9allocatorIcEEEERNS4_IS6_EEEC2EmmS8_, symObjAddr: 0x30AE8, symBinAddr: 0x1000327D8, symSize: 0xE0 }
  - { offsetInCU: 0x609BB, offset: 0x609BB, size: 0x8, addend: 0x0, symName: __ZNSt3__117__compressed_pairIPNS_12basic_stringIcNS_11char_traitsIcEENS_9allocatorIcEEEERNS4_IS6_EEEC1B8ue170006IDnS9_EEOT_OT0_, symObjAddr: 0x30BC8, symBinAddr: 0x1000328B8, symSize: 0x3C }
  - { offsetInCU: 0x60A13, offset: 0x60A13, size: 0x8, addend: 0x0, symName: __ZNSt3__114__split_bufferINS_12basic_stringIcNS_11char_traitsIcEENS_9allocatorIcEEEERNS4_IS6_EEE7__allocB8ue170006Ev, symObjAddr: 0x30C44, symBinAddr: 0x100032934, symSize: 0x28 }
  - { offsetInCU: 0x60A39, offset: 0x60A39, size: 0x8, addend: 0x0, symName: __ZNSt3__114__split_bufferINS_12basic_stringIcNS_11char_traitsIcEENS_9allocatorIcEEEERNS4_IS6_EEE9__end_capB8ue170006Ev, symObjAddr: 0x30C6C, symBinAddr: 0x10003295C, symSize: 0x28 }
  - { offsetInCU: 0x60A5F, offset: 0x60A5F, size: 0x8, addend: 0x0, symName: __ZNSt3__117__compressed_pairIPNS_12basic_stringIcNS_11char_traitsIcEENS_9allocatorIcEEEERNS4_IS6_EEEC2B8ue170006IDnS9_EEOT_OT0_, symObjAddr: 0x30C94, symBinAddr: 0x100032984, symSize: 0x48 }
  - { offsetInCU: 0x60AB7, offset: 0x60AB7, size: 0x8, addend: 0x0, symName: __ZNSt3__122__compressed_pair_elemIRNS_9allocatorINS_12basic_stringIcNS_11char_traitsIcEENS1_IcEEEEEELi1ELb0EEC2B8ue170006IS8_vEEOT_, symObjAddr: 0x30CDC, symBinAddr: 0x1000329CC, symSize: 0x20 }
  - { offsetInCU: 0x60AF9, offset: 0x60AF9, size: 0x8, addend: 0x0, symName: __ZNSt3__19allocatorINS_12basic_stringIcNS_11char_traitsIcEENS0_IcEEEEE8allocateB8ue170006Em, symObjAddr: 0x30CFC, symBinAddr: 0x1000329EC, symSize: 0x5C }
  - { offsetInCU: 0x60B2D, offset: 0x60B2D, size: 0x8, addend: 0x0, symName: __ZNSt3__117__compressed_pairIPNS_12basic_stringIcNS_11char_traitsIcEENS_9allocatorIcEEEERNS4_IS6_EEE6secondB8ue170006Ev, symObjAddr: 0x30D58, symBinAddr: 0x100032A48, symSize: 0x28 }
  - { offsetInCU: 0x60B53, offset: 0x60B53, size: 0x8, addend: 0x0, symName: __ZNSt3__122__compressed_pair_elemIRNS_9allocatorINS_12basic_stringIcNS_11char_traitsIcEENS1_IcEEEEEELi1ELb0EE5__getB8ue170006Ev, symObjAddr: 0x30D80, symBinAddr: 0x100032A70, symSize: 0x18 }
  - { offsetInCU: 0x60B79, offset: 0x60B79, size: 0x8, addend: 0x0, symName: __ZNSt3__117__compressed_pairIPNS_12basic_stringIcNS_11char_traitsIcEENS_9allocatorIcEEEERNS4_IS6_EEE5firstB8ue170006Ev, symObjAddr: 0x30D98, symBinAddr: 0x100032A88, symSize: 0x24 }
  - { offsetInCU: 0x60BA9, offset: 0x60BA9, size: 0x8, addend: 0x0, symName: __ZNSt3__114__split_bufferINS_12basic_stringIcNS_11char_traitsIcEENS_9allocatorIcEEEERNS4_IS6_EEE21_ConstructTransactionC1B8ue170006EPPS6_m, symObjAddr: 0x30DBC, symBinAddr: 0x100032AAC, symSize: 0x3C }
  - { offsetInCU: 0x60BEF, offset: 0x60BEF, size: 0x8, addend: 0x0, symName: __ZNSt3__114__split_bufferINS_12basic_stringIcNS_11char_traitsIcEENS_9allocatorIcEEEERNS4_IS6_EEE21_ConstructTransactionD1B8ue170006Ev, symObjAddr: 0x30DF8, symBinAddr: 0x100032AE8, symSize: 0x2C }
  - { offsetInCU: 0x60C19, offset: 0x60C19, size: 0x8, addend: 0x0, symName: __ZNSt3__114__split_bufferINS_12basic_stringIcNS_11char_traitsIcEENS_9allocatorIcEEEERNS4_IS6_EEE21_ConstructTransactionC2B8ue170006EPPS6_m, symObjAddr: 0x30E24, symBinAddr: 0x100032B14, symSize: 0x4C }
  - { offsetInCU: 0x60C5F, offset: 0x60C5F, size: 0x8, addend: 0x0, symName: __ZNSt3__114__split_bufferINS_12basic_stringIcNS_11char_traitsIcEENS_9allocatorIcEEEERNS4_IS6_EEE21_ConstructTransactionD2B8ue170006Ev, symObjAddr: 0x30E70, symBinAddr: 0x100032B60, symSize: 0x20 }
  - { offsetInCU: 0x60C89, offset: 0x60C89, size: 0x8, addend: 0x0, symName: __ZNSt3__116reverse_iteratorIPNS_12basic_stringIcNS_11char_traitsIcEENS_9allocatorIcEEEEEC1B8ue170006ES7_, symObjAddr: 0x30FBC, symBinAddr: 0x100032CAC, symSize: 0x34 }
  - { offsetInCU: 0x60CC1, offset: 0x60CC1, size: 0x8, addend: 0x0, symName: __ZNKSt3__116reverse_iteratorIPNS_12basic_stringIcNS_11char_traitsIcEENS_9allocatorIcEEEEE4baseB8ue170006Ev, symObjAddr: 0x30FF0, symBinAddr: 0x100032CE0, symSize: 0x18 }
  - { offsetInCU: 0x60CE7, offset: 0x60CE7, size: 0x8, addend: 0x0, symName: __ZNKSt3__16vectorINS_12basic_stringIcNS_11char_traitsIcEENS_9allocatorIcEEEENS4_IS6_EEE14__annotate_newB8ue170006Em, symObjAddr: 0x31044, symBinAddr: 0x100032D34, symSize: 0xC8 }
  - { offsetInCU: 0x60D1C, offset: 0x60D1C, size: 0x8, addend: 0x0, symName: __ZNSt3__129_AllocatorDestroyRangeReverseINS_9allocatorINS_12basic_stringIcNS_11char_traitsIcEENS1_IcEEEEEENS_16reverse_iteratorIPS6_EEEC1B8ue170006ERS7_RSA_SD_, symObjAddr: 0x31158, symBinAddr: 0x100032E48, symSize: 0x44 }
  - { offsetInCU: 0x60D79, offset: 0x60D79, size: 0x8, addend: 0x0, symName: __ZNSt3__116allocator_traitsINS_9allocatorINS_12basic_stringIcNS_11char_traitsIcEENS1_IcEEEEEEE9constructB8ue170006IS6_JS6_EvvEEvRS7_PT_DpOT0_, symObjAddr: 0x311E4, symBinAddr: 0x100032ED4, symSize: 0x30 }
  - { offsetInCU: 0x60DCE, offset: 0x60DCE, size: 0x8, addend: 0x0, symName: __ZNKSt3__116reverse_iteratorIPNS_12basic_stringIcNS_11char_traitsIcEENS_9allocatorIcEEEEEdeB8ue170006Ev, symObjAddr: 0x31238, symBinAddr: 0x100032F28, symSize: 0x28 }
  - { offsetInCU: 0x60E03, offset: 0x60E03, size: 0x8, addend: 0x0, symName: __ZNSt3__116reverse_iteratorIPNS_12basic_stringIcNS_11char_traitsIcEENS_9allocatorIcEEEEEppB8ue170006Ev, symObjAddr: 0x31260, symBinAddr: 0x100032F50, symSize: 0x20 }
  - { offsetInCU: 0x60E29, offset: 0x60E29, size: 0x8, addend: 0x0, symName: __ZNSt3__128__exception_guard_exceptionsINS_29_AllocatorDestroyRangeReverseINS_9allocatorINS_12basic_stringIcNS_11char_traitsIcEENS2_IcEEEEEENS_16reverse_iteratorIPS7_EEEEE10__completeB8ue170006Ev, symObjAddr: 0x31280, symBinAddr: 0x100032F70, symSize: 0x1C }
  - { offsetInCU: 0x60E4F, offset: 0x60E4F, size: 0x8, addend: 0x0, symName: __ZNSt3__128__exception_guard_exceptionsINS_29_AllocatorDestroyRangeReverseINS_9allocatorINS_12basic_stringIcNS_11char_traitsIcEENS2_IcEEEEEENS_16reverse_iteratorIPS7_EEEEED1B8ue170006Ev, symObjAddr: 0x3129C, symBinAddr: 0x100032F8C, symSize: 0x2C }
  - { offsetInCU: 0x60E79, offset: 0x60E79, size: 0x8, addend: 0x0, symName: __ZNSt3__128__exception_guard_exceptionsINS_29_AllocatorDestroyRangeReverseINS_9allocatorINS_12basic_stringIcNS_11char_traitsIcEENS2_IcEEEEEENS_16reverse_iteratorIPS7_EEEEEC1B8ue170006ESC_, symObjAddr: 0x312C8, symBinAddr: 0x100032FB8, symSize: 0x34 }
  - { offsetInCU: 0x60EB2, offset: 0x60EB2, size: 0x8, addend: 0x0, symName: __ZNSt3__128__exception_guard_exceptionsINS_29_AllocatorDestroyRangeReverseINS_9allocatorINS_12basic_stringIcNS_11char_traitsIcEENS2_IcEEEEEENS_16reverse_iteratorIPS7_EEEEEC2B8ue170006ESC_, symObjAddr: 0x312FC, symBinAddr: 0x100032FEC, symSize: 0x30 }
  - { offsetInCU: 0x60EEB, offset: 0x60EEB, size: 0x8, addend: 0x0, symName: __ZNSt3__129_AllocatorDestroyRangeReverseINS_9allocatorINS_12basic_stringIcNS_11char_traitsIcEENS1_IcEEEEEENS_16reverse_iteratorIPS6_EEEC2B8ue170006ERS7_RSA_SD_, symObjAddr: 0x3132C, symBinAddr: 0x10003301C, symSize: 0x38 }
  - { offsetInCU: 0x60F42, offset: 0x60F42, size: 0x8, addend: 0x0, symName: __ZNSt3__112basic_stringIcNS_11char_traitsIcEENS_9allocatorIcEEEC1B8ue170006EOS5_, symObjAddr: 0x313A0, symBinAddr: 0x100033090, symSize: 0x34 }
  - { offsetInCU: 0x60F7B, offset: 0x60F7B, size: 0x8, addend: 0x0, symName: __ZNSt3__112basic_stringIcNS_11char_traitsIcEENS_9allocatorIcEEEC2B8ue170006EOS5_, symObjAddr: 0x313D4, symBinAddr: 0x1000330C4, symSize: 0x48 }
  - { offsetInCU: 0x60FB9, offset: 0x60FB9, size: 0x8, addend: 0x0, symName: __ZNSt3__119__to_address_helperINS_16reverse_iteratorIPNS_12basic_stringIcNS_11char_traitsIcEENS_9allocatorIcEEEEEEvE6__callB8ue170006ERKS9_, symObjAddr: 0x3141C, symBinAddr: 0x10003310C, symSize: 0x38 }
  - { offsetInCU: 0x60FDC, offset: 0x60FDC, size: 0x8, addend: 0x0, symName: __ZNKSt3__116reverse_iteratorIPNS_12basic_stringIcNS_11char_traitsIcEENS_9allocatorIcEEEEEptB8ue170006Ev, symObjAddr: 0x31454, symBinAddr: 0x100033144, symSize: 0x2C }
  - { offsetInCU: 0x61002, offset: 0x61002, size: 0x8, addend: 0x0, symName: __ZNSt3__128__exception_guard_exceptionsINS_29_AllocatorDestroyRangeReverseINS_9allocatorINS_12basic_stringIcNS_11char_traitsIcEENS2_IcEEEEEENS_16reverse_iteratorIPS7_EEEEED2B8ue170006Ev, symObjAddr: 0x31524, symBinAddr: 0x100033214, symSize: 0x50 }
  - { offsetInCU: 0x6102C, offset: 0x6102C, size: 0x8, addend: 0x0, symName: __ZNKSt3__129_AllocatorDestroyRangeReverseINS_9allocatorINS_12basic_stringIcNS_11char_traitsIcEENS1_IcEEEEEENS_16reverse_iteratorIPS6_EEEclB8ue170006Ev, symObjAddr: 0x31574, symBinAddr: 0x100033264, symSize: 0xB4 }
  - { offsetInCU: 0x61053, offset: 0x61053, size: 0x8, addend: 0x0, symName: __ZNSt3__116reverse_iteratorINS0_IPNS_12basic_stringIcNS_11char_traitsIcEENS_9allocatorIcEEEEEEEC1B8ue170006ES8_, symObjAddr: 0x31698, symBinAddr: 0x100033388, symSize: 0x3C }
  - { offsetInCU: 0x6108B, offset: 0x6108B, size: 0x8, addend: 0x0, symName: __ZNSt3__116reverse_iteratorINS0_IPNS_12basic_stringIcNS_11char_traitsIcEENS_9allocatorIcEEEEEEEppB8ue170006Ev, symObjAddr: 0x31758, symBinAddr: 0x100033448, symSize: 0x30 }
  - { offsetInCU: 0x610B1, offset: 0x610B1, size: 0x8, addend: 0x0, symName: __ZNKSt3__116reverse_iteratorINS0_IPNS_12basic_stringIcNS_11char_traitsIcEENS_9allocatorIcEEEEEEE4baseB8ue170006Ev, symObjAddr: 0x31788, symBinAddr: 0x100033478, symSize: 0x24 }
  - { offsetInCU: 0x610DC, offset: 0x610DC, size: 0x8, addend: 0x0, symName: __ZNSt3__119__to_address_helperINS_16reverse_iteratorINS1_IPNS_12basic_stringIcNS_11char_traitsIcEENS_9allocatorIcEEEEEEEEvE6__callB8ue170006ERKSA_, symObjAddr: 0x317AC, symBinAddr: 0x10003349C, symSize: 0x38 }
  - { offsetInCU: 0x610FF, offset: 0x610FF, size: 0x8, addend: 0x0, symName: __ZNKSt3__116reverse_iteratorINS0_IPNS_12basic_stringIcNS_11char_traitsIcEENS_9allocatorIcEEEEEEEptB8ue170006Ev, symObjAddr: 0x317E4, symBinAddr: 0x1000334D4, symSize: 0x4C }
  - { offsetInCU: 0x61125, offset: 0x61125, size: 0x8, addend: 0x0, symName: __ZNSt3__116reverse_iteratorIPNS_12basic_stringIcNS_11char_traitsIcEENS_9allocatorIcEEEEEpLB8ue170006El, symObjAddr: 0x318E0, symBinAddr: 0x1000335D0, symSize: 0x30 }
  - { offsetInCU: 0x61159, offset: 0x61159, size: 0x8, addend: 0x0, symName: __ZNSt3__116reverse_iteratorIPNS_12basic_stringIcNS_11char_traitsIcEENS_9allocatorIcEEEEEmmB8ue170006Ev, symObjAddr: 0x31910, symBinAddr: 0x100033600, symSize: 0x20 }
  - { offsetInCU: 0x6117F, offset: 0x6117F, size: 0x8, addend: 0x0, symName: __ZNSt3__116reverse_iteratorINS0_IPNS_12basic_stringIcNS_11char_traitsIcEENS_9allocatorIcEEEEEEEC2B8ue170006ES8_, symObjAddr: 0x31930, symBinAddr: 0x100033620, symSize: 0x2C }
  - { offsetInCU: 0x611B7, offset: 0x611B7, size: 0x8, addend: 0x0, symName: __ZNSt3__116reverse_iteratorIPNS_12basic_stringIcNS_11char_traitsIcEENS_9allocatorIcEEEEEC2B8ue170006ES7_, symObjAddr: 0x3195C, symBinAddr: 0x10003364C, symSize: 0x28 }
  - { offsetInCU: 0x611EF, offset: 0x611EF, size: 0x8, addend: 0x0, symName: __ZNSt3__114__split_bufferINS_12basic_stringIcNS_11char_traitsIcEENS_9allocatorIcEEEERNS4_IS6_EEED2Ev, symObjAddr: 0x31984, symBinAddr: 0x100033674, symSize: 0x8C }
  - { offsetInCU: 0x6121B, offset: 0x6121B, size: 0x8, addend: 0x0, symName: __ZNSt3__114__split_bufferINS_12basic_stringIcNS_11char_traitsIcEENS_9allocatorIcEEEERNS4_IS6_EEE5clearB8ue170006Ev, symObjAddr: 0x31A10, symBinAddr: 0x100033700, symSize: 0x28 }
  - { offsetInCU: 0x61241, offset: 0x61241, size: 0x8, addend: 0x0, symName: __ZNKSt3__114__split_bufferINS_12basic_stringIcNS_11char_traitsIcEENS_9allocatorIcEEEERNS4_IS6_EEE8capacityB8ue170006Ev, symObjAddr: 0x31A38, symBinAddr: 0x100033728, symSize: 0x40 }
  - { offsetInCU: 0x61267, offset: 0x61267, size: 0x8, addend: 0x0, symName: __ZNSt3__114__split_bufferINS_12basic_stringIcNS_11char_traitsIcEENS_9allocatorIcEEEERNS4_IS6_EEE17__destruct_at_endB8ue170006EPS6_, symObjAddr: 0x31A78, symBinAddr: 0x100033768, symSize: 0x2C }
  - { offsetInCU: 0x6129B, offset: 0x6129B, size: 0x8, addend: 0x0, symName: __ZNSt3__114__split_bufferINS_12basic_stringIcNS_11char_traitsIcEENS_9allocatorIcEEEERNS4_IS6_EEE17__destruct_at_endB8ue170006EPS6_NS_17integral_constantIbLb0EEE, symObjAddr: 0x31AA4, symBinAddr: 0x100033794, symSize: 0x80 }
  - { offsetInCU: 0x612DB, offset: 0x612DB, size: 0x8, addend: 0x0, symName: __ZNKSt3__114__split_bufferINS_12basic_stringIcNS_11char_traitsIcEENS_9allocatorIcEEEERNS4_IS6_EEE9__end_capB8ue170006Ev, symObjAddr: 0x31B24, symBinAddr: 0x100033814, symSize: 0x28 }
  - { offsetInCU: 0x61301, offset: 0x61301, size: 0x8, addend: 0x0, symName: __ZNKSt3__117__compressed_pairIPNS_12basic_stringIcNS_11char_traitsIcEENS_9allocatorIcEEEERNS4_IS6_EEE5firstB8ue170006Ev, symObjAddr: 0x31B4C, symBinAddr: 0x10003383C, symSize: 0x24 }
  - { offsetInCU: 0x61327, offset: 0x61327, size: 0x8, addend: 0x0, symName: __ZNSt3__16vectorINS_5tupleIJN3olc3KeyENS_12basic_stringIcNS_11char_traitsIcEENS_9allocatorIcEEEES9_EEENS7_ISA_EEE11__make_iterB8ue170006EPSA_, symObjAddr: 0x31B70, symBinAddr: 0x100033860, symSize: 0x30 }
  - { offsetInCU: 0x6135C, offset: 0x6135C, size: 0x8, addend: 0x0, symName: __ZNSt3__111__wrap_iterIPNS_5tupleIJN3olc3KeyENS_12basic_stringIcNS_11char_traitsIcEENS_9allocatorIcEEEES9_EEEEC1B8ue170006ESB_, symObjAddr: 0x31BA0, symBinAddr: 0x100033890, symSize: 0x34 }
  - { offsetInCU: 0x61394, offset: 0x61394, size: 0x8, addend: 0x0, symName: __ZNSt3__111__wrap_iterIPNS_5tupleIJN3olc3KeyENS_12basic_stringIcNS_11char_traitsIcEENS_9allocatorIcEEEES9_EEEEC2B8ue170006ESB_, symObjAddr: 0x31BD4, symBinAddr: 0x1000338C4, symSize: 0x20 }
  - { offsetInCU: 0x613CC, offset: 0x613CC, size: 0x8, addend: 0x0, symName: __ZNKSt3__111__wrap_iterIPNS_5tupleIJN3olc3KeyENS_12basic_stringIcNS_11char_traitsIcEENS_9allocatorIcEEEES9_EEEE4baseB8ue170006Ev, symObjAddr: 0x31C3C, symBinAddr: 0x10003392C, symSize: 0x18 }
  - { offsetInCU: 0x613F2, offset: 0x613F2, size: 0x8, addend: 0x0, symName: __ZNKSt3__112__tuple_leafILm0EN3olc3KeyELb0EE3getB8ue170006Ev, symObjAddr: 0x31C54, symBinAddr: 0x100033944, symSize: 0x14 }
  - { offsetInCU: 0x61418, offset: 0x61418, size: 0x8, addend: 0x0, symName: __ZNKSt3__112__tuple_leafILm2ENS_12basic_stringIcNS_11char_traitsIcEENS_9allocatorIcEEEELb0EE3getB8ue170006Ev, symObjAddr: 0x31C68, symBinAddr: 0x100033958, symSize: 0x14 }
  - { offsetInCU: 0x6143E, offset: 0x6143E, size: 0x8, addend: 0x0, symName: __ZNKSt3__112__tuple_leafILm1ENS_12basic_stringIcNS_11char_traitsIcEENS_9allocatorIcEEEELb0EE3getB8ue170006Ev, symObjAddr: 0x31C7C, symBinAddr: 0x10003396C, symSize: 0x14 }
  - { offsetInCU: 0x61464, offset: 0x61464, size: 0x8, addend: 0x0, symName: __ZNSt3__111char_traitsIcE6assignB8ue170006ERcRKc, symObjAddr: 0x31C90, symBinAddr: 0x100033980, symSize: 0x24 }
  - { offsetInCU: 0x61495, offset: 0x61495, size: 0x8, addend: 0x0, symName: __ZNSt3__112basic_stringIcNS_11char_traitsIcEENS_9allocatorIcEEE15__set_long_sizeB8ue170006Em, symObjAddr: 0x31CB4, symBinAddr: 0x1000339A4, symSize: 0x38 }
  - { offsetInCU: 0x614CA, offset: 0x614CA, size: 0x8, addend: 0x0, symName: __ZNSt3__112basic_stringIcNS_11char_traitsIcEENS_9allocatorIcEEE16__set_short_sizeB8ue170006Em, symObjAddr: 0x31CEC, symBinAddr: 0x1000339DC, symSize: 0x78 }
  - { offsetInCU: 0x614FF, offset: 0x614FF, size: 0x8, addend: 0x0, symName: __ZNSt3__16vectorINS_12basic_stringIcNS_11char_traitsIcEENS_9allocatorIcEEEENS4_IS6_EEE19__copy_assign_allocB8ue170006ERKS8_, symObjAddr: 0x31D64, symBinAddr: 0x100033A54, symSize: 0x2C }
  - { offsetInCU: 0x61534, offset: 0x61534, size: 0x8, addend: 0x0, symName: __ZNSt3__16vectorINS_12basic_stringIcNS_11char_traitsIcEENS_9allocatorIcEEEENS4_IS6_EEE6assignIPS6_Li0EEEvT_SB_, symObjAddr: 0x31D90, symBinAddr: 0x100033A80, symSize: 0x5C }
  - { offsetInCU: 0x61589, offset: 0x61589, size: 0x8, addend: 0x0, symName: __ZNSt3__16vectorINS_12basic_stringIcNS_11char_traitsIcEENS_9allocatorIcEEEENS4_IS6_EEE19__copy_assign_allocB8ue170006ERKS8_NS_17integral_constantIbLb0EEE, symObjAddr: 0x31DEC, symBinAddr: 0x100033ADC, symSize: 0x14 }
  - { offsetInCU: 0x615C7, offset: 0x615C7, size: 0x8, addend: 0x0, symName: __ZNSt3__16vectorINS_12basic_stringIcNS_11char_traitsIcEENS_9allocatorIcEEEENS4_IS6_EEE18__assign_with_sizeB8ue170006IPS6_SA_EEvT_T0_l, symObjAddr: 0x31E00, symBinAddr: 0x100033AF0, symSize: 0x164 }
  - { offsetInCU: 0x61679, offset: 0x61679, size: 0x8, addend: 0x0, symName: __ZNSt3__16vectorINS_12basic_stringIcNS_11char_traitsIcEENS_9allocatorIcEEEENS4_IS6_EEE18__construct_at_endIPS6_SA_EEvT_T0_m, symObjAddr: 0x32004, symBinAddr: 0x100033CF4, symSize: 0x8C }
  - { offsetInCU: 0x616EF, offset: 0x616EF, size: 0x8, addend: 0x0, symName: __ZNSt3__16vectorINS_12basic_stringIcNS_11char_traitsIcEENS_9allocatorIcEEEENS4_IS6_EEE13__vdeallocateEv, symObjAddr: 0x320D4, symBinAddr: 0x100033DC4, symSize: 0x94 }
  - { offsetInCU: 0x61717, offset: 0x61717, size: 0x8, addend: 0x0, symName: __ZNSt3__16vectorINS_12basic_stringIcNS_11char_traitsIcEENS_9allocatorIcEEEENS4_IS6_EEE11__vallocateB8ue170006Em, symObjAddr: 0x32168, symBinAddr: 0x100033E58, symSize: 0xB4 }
  - { offsetInCU: 0x61775, offset: 0x61775, size: 0x8, addend: 0x0, symName: __ZNSt3__119__unwrap_range_implIPNS_12basic_stringIcNS_11char_traitsIcEENS_9allocatorIcEEEES7_E8__unwrapB8ue170006ES7_S7_, symObjAddr: 0x3242C, symBinAddr: 0x10003411C, symSize: 0x58 }
  - { offsetInCU: 0x617AC, offset: 0x617AC, size: 0x8, addend: 0x0, symName: __ZNSt3__14pairIPNS_12basic_stringIcNS_11char_traitsIcEENS_9allocatorIcEEEES7_EC1B8ue170006IS7_S7_LPv0EEEOT_OT0_, symObjAddr: 0x32484, symBinAddr: 0x100034174, symSize: 0x3C }
  - { offsetInCU: 0x6180A, offset: 0x6180A, size: 0x8, addend: 0x0, symName: __ZNSt3__14pairIPNS_12basic_stringIcNS_11char_traitsIcEENS_9allocatorIcEEEES7_EC2B8ue170006IS7_S7_LPv0EEEOT_OT0_, symObjAddr: 0x324C0, symBinAddr: 0x1000341B0, symSize: 0x34 }
  - { offsetInCU: 0x61868, offset: 0x61868, size: 0x8, addend: 0x0, symName: __ZNSt3__129_AllocatorDestroyRangeReverseINS_9allocatorINS_12basic_stringIcNS_11char_traitsIcEENS1_IcEEEEEEPS6_EC1B8ue170006ERS7_RS8_SB_, symObjAddr: 0x32540, symBinAddr: 0x100034230, symSize: 0x44 }
  - { offsetInCU: 0x618BF, offset: 0x618BF, size: 0x8, addend: 0x0, symName: __ZNSt3__116allocator_traitsINS_9allocatorINS_12basic_stringIcNS_11char_traitsIcEENS1_IcEEEEEEE9constructB8ue170006IS6_JRS6_EvvEEvRS7_PT_DpOT0_, symObjAddr: 0x32584, symBinAddr: 0x100034274, symSize: 0x30 }
  - { offsetInCU: 0x61914, offset: 0x61914, size: 0x8, addend: 0x0, symName: __ZNSt3__128__exception_guard_exceptionsINS_29_AllocatorDestroyRangeReverseINS_9allocatorINS_12basic_stringIcNS_11char_traitsIcEENS2_IcEEEEEEPS7_EEE10__completeB8ue170006Ev, symObjAddr: 0x325B4, symBinAddr: 0x1000342A4, symSize: 0x1C }
  - { offsetInCU: 0x6193A, offset: 0x6193A, size: 0x8, addend: 0x0, symName: __ZNSt3__128__exception_guard_exceptionsINS_29_AllocatorDestroyRangeReverseINS_9allocatorINS_12basic_stringIcNS_11char_traitsIcEENS2_IcEEEEEEPS7_EEED1B8ue170006Ev, symObjAddr: 0x325D0, symBinAddr: 0x1000342C0, symSize: 0x2C }
